
a.out:     file format elf64-x86-64


Disassembly of section .init:

0000000000002000 <_init>:
    2000:	f3 0f 1e fa          	endbr64 
    2004:	48 83 ec 08          	sub    $0x8,%rsp
    2008:	48 8b 05 d9 0f 01 00 	mov    0x10fd9(%rip),%rax        # 12fe8 <__gmon_start__>
    200f:	48 85 c0             	test   %rax,%rax
    2012:	74 02                	je     2016 <_init+0x16>
    2014:	ff d0                	callq  *%rax
    2016:	48 83 c4 08          	add    $0x8,%rsp
    201a:	c3                   	retq   

Disassembly of section .plt:

0000000000002020 <.plt>:
    2020:	ff 35 a2 0e 01 00    	pushq  0x10ea2(%rip)        # 12ec8 <_GLOBAL_OFFSET_TABLE_+0x8>
    2026:	ff 25 a4 0e 01 00    	jmpq   *0x10ea4(%rip)        # 12ed0 <_GLOBAL_OFFSET_TABLE_+0x10>
    202c:	0f 1f 40 00          	nopl   0x0(%rax)

0000000000002030 <_ZNSo3putEc@plt>:
    2030:	ff 25 a2 0e 01 00    	jmpq   *0x10ea2(%rip)        # 12ed8 <_ZNSo3putEc@GLIBCXX_3.4>
    2036:	68 00 00 00 00       	pushq  $0x0
    203b:	e9 e0 ff ff ff       	jmpq   2020 <.plt>

0000000000002040 <_ZNSt6chrono3_V212system_clock3nowEv@plt>:
    2040:	ff 25 9a 0e 01 00    	jmpq   *0x10e9a(%rip)        # 12ee0 <_ZNSt6chrono3_V212system_clock3nowEv@GLIBCXX_3.4.19>
    2046:	68 01 00 00 00       	pushq  $0x1
    204b:	e9 d0 ff ff ff       	jmpq   2020 <.plt>

0000000000002050 <_ZSt17__throw_bad_allocv@plt>:
    2050:	ff 25 92 0e 01 00    	jmpq   *0x10e92(%rip)        # 12ee8 <_ZSt17__throw_bad_allocv@GLIBCXX_3.4>
    2056:	68 02 00 00 00       	pushq  $0x2
    205b:	e9 c0 ff ff ff       	jmpq   2020 <.plt>

0000000000002060 <_ZNSt13runtime_errorC1EPKc@plt>:
    2060:	ff 25 8a 0e 01 00    	jmpq   *0x10e8a(%rip)        # 12ef0 <_ZNSt13runtime_errorC1EPKc@GLIBCXX_3.4.21>
    2066:	68 03 00 00 00       	pushq  $0x3
    206b:	e9 b0 ff ff ff       	jmpq   2020 <.plt>

0000000000002070 <__cxa_begin_catch@plt>:
    2070:	ff 25 82 0e 01 00    	jmpq   *0x10e82(%rip)        # 12ef8 <__cxa_begin_catch@CXXABI_1.3>
    2076:	68 04 00 00 00       	pushq  $0x4
    207b:	e9 a0 ff ff ff       	jmpq   2020 <.plt>

0000000000002080 <__cxa_allocate_exception@plt>:
    2080:	ff 25 7a 0e 01 00    	jmpq   *0x10e7a(%rip)        # 12f00 <__cxa_allocate_exception@CXXABI_1.3>
    2086:	68 05 00 00 00       	pushq  $0x5
    208b:	e9 90 ff ff ff       	jmpq   2020 <.plt>

0000000000002090 <_ZSt20__throw_length_errorPKc@plt>:
    2090:	ff 25 72 0e 01 00    	jmpq   *0x10e72(%rip)        # 12f08 <_ZSt20__throw_length_errorPKc@GLIBCXX_3.4>
    2096:	68 06 00 00 00       	pushq  $0x6
    209b:	e9 80 ff ff ff       	jmpq   2020 <.plt>

00000000000020a0 <_ZNSo5flushEv@plt>:
    20a0:	ff 25 6a 0e 01 00    	jmpq   *0x10e6a(%rip)        # 12f10 <_ZNSo5flushEv@GLIBCXX_3.4>
    20a6:	68 07 00 00 00       	pushq  $0x7
    20ab:	e9 70 ff ff ff       	jmpq   2020 <.plt>

00000000000020b0 <__cxa_free_exception@plt>:
    20b0:	ff 25 62 0e 01 00    	jmpq   *0x10e62(%rip)        # 12f18 <__cxa_free_exception@CXXABI_1.3>
    20b6:	68 08 00 00 00       	pushq  $0x8
    20bb:	e9 60 ff ff ff       	jmpq   2020 <.plt>

00000000000020c0 <memcpy@plt>:
    20c0:	ff 25 5a 0e 01 00    	jmpq   *0x10e5a(%rip)        # 12f20 <memcpy@GLIBC_2.14>
    20c6:	68 09 00 00 00       	pushq  $0x9
    20cb:	e9 50 ff ff ff       	jmpq   2020 <.plt>

00000000000020d0 <__cxa_atexit@plt>:
    20d0:	ff 25 52 0e 01 00    	jmpq   *0x10e52(%rip)        # 12f28 <__cxa_atexit@GLIBC_2.2.5>
    20d6:	68 0a 00 00 00       	pushq  $0xa
    20db:	e9 40 ff ff ff       	jmpq   2020 <.plt>

00000000000020e0 <_ZNSt13random_device7_M_finiEv@plt>:
    20e0:	ff 25 4a 0e 01 00    	jmpq   *0x10e4a(%rip)        # 12f30 <_ZNSt13random_device7_M_finiEv@GLIBCXX_3.4.18>
    20e6:	68 0b 00 00 00       	pushq  $0xb
    20eb:	e9 30 ff ff ff       	jmpq   2020 <.plt>

00000000000020f0 <_ZNSo9_M_insertIlEERSoT_@plt>:
    20f0:	ff 25 42 0e 01 00    	jmpq   *0x10e42(%rip)        # 12f38 <_ZNSo9_M_insertIlEERSoT_@GLIBCXX_3.4.9>
    20f6:	68 0c 00 00 00       	pushq  $0xc
    20fb:	e9 20 ff ff ff       	jmpq   2020 <.plt>

0000000000002100 <_Znwm@plt>:
    2100:	ff 25 3a 0e 01 00    	jmpq   *0x10e3a(%rip)        # 12f40 <_Znwm@GLIBCXX_3.4>
    2106:	68 0d 00 00 00       	pushq  $0xd
    210b:	e9 10 ff ff ff       	jmpq   2020 <.plt>

0000000000002110 <_ZdlPvm@plt>:
    2110:	ff 25 32 0e 01 00    	jmpq   *0x10e32(%rip)        # 12f48 <_ZdlPvm@CXXABI_1.3.9>
    2116:	68 0e 00 00 00       	pushq  $0xe
    211b:	e9 00 ff ff ff       	jmpq   2020 <.plt>

0000000000002120 <__stack_chk_fail@plt>:
    2120:	ff 25 2a 0e 01 00    	jmpq   *0x10e2a(%rip)        # 12f50 <__stack_chk_fail@GLIBC_2.4>
    2126:	68 0f 00 00 00       	pushq  $0xf
    212b:	e9 f0 fe ff ff       	jmpq   2020 <.plt>

0000000000002130 <_ZSt16__ostream_insertIcSt11char_traitsIcEERSt13basic_ostreamIT_T0_ES6_PKS3_l@plt>:
    2130:	ff 25 22 0e 01 00    	jmpq   *0x10e22(%rip)        # 12f58 <_ZSt16__ostream_insertIcSt11char_traitsIcEERSt13basic_ostreamIT_T0_ES6_PKS3_l@GLIBCXX_3.4.9>
    2136:	68 10 00 00 00       	pushq  $0x10
    213b:	e9 e0 fe ff ff       	jmpq   2020 <.plt>

0000000000002140 <_ZNKSt5ctypeIcE13_M_widen_initEv@plt>:
    2140:	ff 25 1a 0e 01 00    	jmpq   *0x10e1a(%rip)        # 12f60 <_ZNKSt5ctypeIcE13_M_widen_initEv@GLIBCXX_3.4.11>
    2146:	68 11 00 00 00       	pushq  $0x11
    214b:	e9 d0 fe ff ff       	jmpq   2020 <.plt>

0000000000002150 <_ZSt16__throw_bad_castv@plt>:
    2150:	ff 25 12 0e 01 00    	jmpq   *0x10e12(%rip)        # 12f68 <_ZSt16__throw_bad_castv@GLIBCXX_3.4>
    2156:	68 12 00 00 00       	pushq  $0x12
    215b:	e9 c0 fe ff ff       	jmpq   2020 <.plt>

0000000000002160 <_ZNSt13random_device9_M_getvalEv@plt>:
    2160:	ff 25 0a 0e 01 00    	jmpq   *0x10e0a(%rip)        # 12f70 <_ZNSt13random_device9_M_getvalEv@GLIBCXX_3.4.18>
    2166:	68 13 00 00 00       	pushq  $0x13
    216b:	e9 b0 fe ff ff       	jmpq   2020 <.plt>

0000000000002170 <strcmp@plt>:
    2170:	ff 25 02 0e 01 00    	jmpq   *0x10e02(%rip)        # 12f78 <strcmp@GLIBC_2.2.5>
    2176:	68 14 00 00 00       	pushq  $0x14
    217b:	e9 a0 fe ff ff       	jmpq   2020 <.plt>

0000000000002180 <__cxa_rethrow@plt>:
    2180:	ff 25 fa 0d 01 00    	jmpq   *0x10dfa(%rip)        # 12f80 <__cxa_rethrow@CXXABI_1.3>
    2186:	68 15 00 00 00       	pushq  $0x15
    218b:	e9 90 fe ff ff       	jmpq   2020 <.plt>

0000000000002190 <_ZNSt8ios_base4InitC1Ev@plt>:
    2190:	ff 25 f2 0d 01 00    	jmpq   *0x10df2(%rip)        # 12f88 <_ZNSt8ios_base4InitC1Ev@GLIBCXX_3.4>
    2196:	68 16 00 00 00       	pushq  $0x16
    219b:	e9 80 fe ff ff       	jmpq   2020 <.plt>

00000000000021a0 <_ZNSo9_M_insertIdEERSoT_@plt>:
    21a0:	ff 25 ea 0d 01 00    	jmpq   *0x10dea(%rip)        # 12f90 <_ZNSo9_M_insertIdEERSoT_@GLIBCXX_3.4.9>
    21a6:	68 17 00 00 00       	pushq  $0x17
    21ab:	e9 70 fe ff ff       	jmpq   2020 <.plt>

00000000000021b0 <memmove@plt>:
    21b0:	ff 25 e2 0d 01 00    	jmpq   *0x10de2(%rip)        # 12f98 <memmove@GLIBC_2.2.5>
    21b6:	68 18 00 00 00       	pushq  $0x18
    21bb:	e9 60 fe ff ff       	jmpq   2020 <.plt>

00000000000021c0 <__cxa_end_catch@plt>:
    21c0:	ff 25 da 0d 01 00    	jmpq   *0x10dda(%rip)        # 12fa0 <__cxa_end_catch@CXXABI_1.3>
    21c6:	68 19 00 00 00       	pushq  $0x19
    21cb:	e9 50 fe ff ff       	jmpq   2020 <.plt>

00000000000021d0 <_ZNSt13random_device7_M_initERKNSt7__cxx1112basic_stringIcSt11char_traitsIcESaIcEEE@plt>:
    21d0:	ff 25 d2 0d 01 00    	jmpq   *0x10dd2(%rip)        # 12fa8 <_ZNSt13random_device7_M_initERKNSt7__cxx1112basic_stringIcSt11char_traitsIcESaIcEEE@GLIBCXX_3.4.21>
    21d6:	68 1a 00 00 00       	pushq  $0x1a
    21db:	e9 40 fe ff ff       	jmpq   2020 <.plt>

00000000000021e0 <__cxa_throw@plt>:
    21e0:	ff 25 ca 0d 01 00    	jmpq   *0x10dca(%rip)        # 12fb0 <__cxa_throw@CXXABI_1.3>
    21e6:	68 1b 00 00 00       	pushq  $0x1b
    21eb:	e9 30 fe ff ff       	jmpq   2020 <.plt>

00000000000021f0 <_Unwind_Resume@plt>:
    21f0:	ff 25 c2 0d 01 00    	jmpq   *0x10dc2(%rip)        # 12fb8 <_Unwind_Resume@GCC_3.0>
    21f6:	68 1c 00 00 00       	pushq  $0x1c
    21fb:	e9 20 fe ff ff       	jmpq   2020 <.plt>

Disassembly of section .plt.got:

0000000000002200 <__cxa_finalize@plt>:
    2200:	ff 25 ba 0d 01 00    	jmpq   *0x10dba(%rip)        # 12fc0 <__cxa_finalize@GLIBC_2.2.5>
    2206:	66 90                	xchg   %ax,%ax

Disassembly of section .text:

0000000000002210 <_Z3addii.cold>:
    2210:	48 8b bd 40 ec ff ff 	mov    -0x13c0(%rbp),%rdi
    2217:	4c 39 e7             	cmp    %r12,%rdi
    221a:	74 51                	je     226d <_Z3addii.cold+0x5d>
    221c:	48 8b 85 50 ec ff ff 	mov    -0x13b0(%rbp),%rax
    2223:	48 8d 70 01          	lea    0x1(%rax),%rsi
    2227:	c5 f8 77             	vzeroupper 
    222a:	e8 e1 fe ff ff       	callq  2110 <_ZdlPvm@plt>
    222f:	4c 89 ef             	mov    %r13,%rdi
    2232:	e8 b9 ff ff ff       	callq  21f0 <_Unwind_Resume@plt>
    2237:	4c 89 f7             	mov    %r14,%rdi
    223a:	c5 f8 77             	vzeroupper 
    223d:	e8 be 18 00 00       	callq  3b00 <_ZNSt10unique_ptrI10PRTreeNodeIdLi6EESt14default_deleteIS1_EED1Ev>
    2242:	48 8b bd 50 d8 ff ff 	mov    -0x27b0(%rbp),%rdi
    2249:	48 8b b5 60 d8 ff ff 	mov    -0x27a0(%rbp),%rsi
    2250:	48 29 fe             	sub    %rdi,%rsi
    2253:	48 85 ff             	test   %rdi,%rdi
    2256:	74 05                	je     225d <_Z3addii.cold+0x4d>
    2258:	e8 b3 fe ff ff       	callq  2110 <_ZdlPvm@plt>
    225d:	4c 89 ff             	mov    %r15,%rdi
    2260:	e8 7b fe ff ff       	callq  20e0 <_ZNSt13random_device7_M_finiEv@plt>
    2265:	48 89 df             	mov    %rbx,%rdi
    2268:	e8 83 ff ff ff       	callq  21f0 <_Unwind_Resume@plt>
    226d:	c5 f8 77             	vzeroupper 
    2270:	eb bd                	jmp    222f <_Z3addii.cold+0x1f>
    2272:	66 2e 0f 1f 84 00 00 	nopw   %cs:0x0(%rax,%rax,1)
    2279:	00 00 00 
    227c:	0f 1f 40 00          	nopl   0x0(%rax)

0000000000002280 <main>:
    2280:	48 83 ec 08          	sub    $0x8,%rsp
    2284:	be 02 00 00 00       	mov    $0x2,%esi
    2289:	bf 01 00 00 00       	mov    $0x1,%edi
    228e:	e8 4d 01 00 00       	callq  23e0 <_Z3addii>
    2293:	31 c0                	xor    %eax,%eax
    2295:	48 83 c4 08          	add    $0x8,%rsp
    2299:	c3                   	retq   
    229a:	66 0f 1f 44 00 00    	nopw   0x0(%rax,%rax,1)

00000000000022a0 <_GLOBAL__sub_I__Z3addii>:
    22a0:	48 83 ec 08          	sub    $0x8,%rsp
    22a4:	48 8d 3d a6 0e 01 00 	lea    0x10ea6(%rip),%rdi        # 13151 <_ZStL8__ioinit>
    22ab:	e8 e0 fe ff ff       	callq  2190 <_ZNSt8ios_base4InitC1Ev@plt>
    22b0:	48 8b 3d 41 0d 01 00 	mov    0x10d41(%rip),%rdi        # 12ff8 <_ZNSt8ios_base4InitD1Ev@GLIBCXX_3.4>
    22b7:	48 8d 15 4a 0d 01 00 	lea    0x10d4a(%rip),%rdx        # 13008 <__dso_handle>
    22be:	48 8d 35 8c 0e 01 00 	lea    0x10e8c(%rip),%rsi        # 13151 <_ZStL8__ioinit>
    22c5:	48 83 c4 08          	add    $0x8,%rsp
    22c9:	e9 02 fe ff ff       	jmpq   20d0 <__cxa_atexit@plt>
    22ce:	66 90                	xchg   %ax,%ax

00000000000022d0 <set_fast_math>:
    22d0:	0f ae 5c 24 fc       	stmxcsr -0x4(%rsp)
    22d5:	81 4c 24 fc 40 80 00 	orl    $0x8040,-0x4(%rsp)
    22dc:	00 
    22dd:	0f ae 54 24 fc       	ldmxcsr -0x4(%rsp)
    22e2:	c3                   	retq   
    22e3:	66 2e 0f 1f 84 00 00 	nopw   %cs:0x0(%rax,%rax,1)
    22ea:	00 00 00 
    22ed:	0f 1f 00             	nopl   (%rax)

00000000000022f0 <_start>:
    22f0:	f3 0f 1e fa          	endbr64 
    22f4:	31 ed                	xor    %ebp,%ebp
    22f6:	49 89 d1             	mov    %rdx,%r9
    22f9:	5e                   	pop    %rsi
    22fa:	48 89 e2             	mov    %rsp,%rdx
    22fd:	48 83 e4 f0          	and    $0xfffffffffffffff0,%rsp
    2301:	50                   	push   %rax
    2302:	54                   	push   %rsp
    2303:	4c 8d 05 e6 d8 00 00 	lea    0xd8e6(%rip),%r8        # fbf0 <__libc_csu_fini>
    230a:	48 8d 0d 6f d8 00 00 	lea    0xd86f(%rip),%rcx        # fb80 <__libc_csu_init>
    2311:	48 8d 3d 68 ff ff ff 	lea    -0x98(%rip),%rdi        # 2280 <main>
    2318:	ff 15 c2 0c 01 00    	callq  *0x10cc2(%rip)        # 12fe0 <__libc_start_main@GLIBC_2.2.5>
    231e:	f4                   	hlt    
    231f:	90                   	nop

0000000000002320 <deregister_tm_clones>:
    2320:	48 8d 3d f1 0c 01 00 	lea    0x10cf1(%rip),%rdi        # 13018 <__TMC_END__>
    2327:	48 8d 05 ea 0c 01 00 	lea    0x10cea(%rip),%rax        # 13018 <__TMC_END__>
    232e:	48 39 f8             	cmp    %rdi,%rax
    2331:	74 15                	je     2348 <deregister_tm_clones+0x28>
    2333:	48 8b 05 9e 0c 01 00 	mov    0x10c9e(%rip),%rax        # 12fd8 <_ITM_deregisterTMCloneTable>
    233a:	48 85 c0             	test   %rax,%rax
    233d:	74 09                	je     2348 <deregister_tm_clones+0x28>
    233f:	ff e0                	jmpq   *%rax
    2341:	0f 1f 80 00 00 00 00 	nopl   0x0(%rax)
    2348:	c3                   	retq   
    2349:	0f 1f 80 00 00 00 00 	nopl   0x0(%rax)

0000000000002350 <register_tm_clones>:
    2350:	48 8d 3d c1 0c 01 00 	lea    0x10cc1(%rip),%rdi        # 13018 <__TMC_END__>
    2357:	48 8d 35 ba 0c 01 00 	lea    0x10cba(%rip),%rsi        # 13018 <__TMC_END__>
    235e:	48 29 fe             	sub    %rdi,%rsi
    2361:	48 89 f0             	mov    %rsi,%rax
    2364:	48 c1 ee 3f          	shr    $0x3f,%rsi
    2368:	48 c1 f8 03          	sar    $0x3,%rax
    236c:	48 01 c6             	add    %rax,%rsi
    236f:	48 d1 fe             	sar    %rsi
    2372:	74 14                	je     2388 <register_tm_clones+0x38>
    2374:	48 8b 05 75 0c 01 00 	mov    0x10c75(%rip),%rax        # 12ff0 <_ITM_registerTMCloneTable>
    237b:	48 85 c0             	test   %rax,%rax
    237e:	74 08                	je     2388 <register_tm_clones+0x38>
    2380:	ff e0                	jmpq   *%rax
    2382:	66 0f 1f 44 00 00    	nopw   0x0(%rax,%rax,1)
    2388:	c3                   	retq   
    2389:	0f 1f 80 00 00 00 00 	nopl   0x0(%rax)

0000000000002390 <__do_global_dtors_aux>:
    2390:	80 3d b9 0d 01 00 00 	cmpb   $0x0,0x10db9(%rip)        # 13150 <completed.0>
    2397:	75 2f                	jne    23c8 <__do_global_dtors_aux+0x38>
    2399:	55                   	push   %rbp
    239a:	48 83 3d 1e 0c 01 00 	cmpq   $0x0,0x10c1e(%rip)        # 12fc0 <__cxa_finalize@GLIBC_2.2.5>
    23a1:	00 
    23a2:	48 89 e5             	mov    %rsp,%rbp
    23a5:	74 0c                	je     23b3 <__do_global_dtors_aux+0x23>
    23a7:	48 8b 3d 5a 0c 01 00 	mov    0x10c5a(%rip),%rdi        # 13008 <__dso_handle>
    23ae:	e8 4d fe ff ff       	callq  2200 <__cxa_finalize@plt>
    23b3:	e8 68 ff ff ff       	callq  2320 <deregister_tm_clones>
    23b8:	c6 05 91 0d 01 00 01 	movb   $0x1,0x10d91(%rip)        # 13150 <completed.0>
    23bf:	5d                   	pop    %rbp
    23c0:	c3                   	retq   
    23c1:	0f 1f 80 00 00 00 00 	nopl   0x0(%rax)
    23c8:	c3                   	retq   
    23c9:	0f 1f 80 00 00 00 00 	nopl   0x0(%rax)

00000000000023d0 <frame_dummy>:
    23d0:	e9 7b ff ff ff       	jmpq   2350 <register_tm_clones>
    23d5:	66 2e 0f 1f 84 00 00 	nopw   %cs:0x0(%rax,%rax,1)
    23dc:	00 00 00 
    23df:	90                   	nop

00000000000023e0 <_Z3addii>:
    23e0:	4c 8d 54 24 08       	lea    0x8(%rsp),%r10
    23e5:	48 83 e4 e0          	and    $0xffffffffffffffe0,%rsp
    23e9:	41 ff 72 f8          	pushq  -0x8(%r10)
    23ed:	55                   	push   %rbp
    23ee:	48 89 e5             	mov    %rsp,%rbp
    23f1:	41 57                	push   %r15
    23f3:	41 56                	push   %r14
    23f5:	4c 8d bd b0 d8 ff ff 	lea    -0x2750(%rbp),%r15
    23fc:	41 55                	push   %r13
    23fe:	41 54                	push   %r12
    2400:	4c 8d a5 50 ec ff ff 	lea    -0x13b0(%rbp),%r12
    2407:	41 52                	push   %r10
    2409:	53                   	push   %rbx
    240a:	48 8d 9d 40 ec ff ff 	lea    -0x13c0(%rbp),%rbx
    2411:	48 81 ec c0 27 00 00 	sub    $0x27c0,%rsp
    2418:	89 bd 24 d8 ff ff    	mov    %edi,-0x27dc(%rbp)
    241e:	89 b5 20 d8 ff ff    	mov    %esi,-0x27e0(%rbp)
    2424:	4c 89 ff             	mov    %r15,%rdi
    2427:	48 89 de             	mov    %rbx,%rsi
    242a:	64 48 8b 04 25 28 00 	mov    %fs:0x28,%rax
    2431:	00 00 
    2433:	48 89 45 c8          	mov    %rax,-0x38(%rbp)
    2437:	31 c0                	xor    %eax,%eax
    2439:	4c 89 a5 40 ec ff ff 	mov    %r12,-0x13c0(%rbp)
    2440:	c7 85 50 ec ff ff 64 	movl   $0x61666564,-0x13b0(%rbp)
    2447:	65 66 61 
    244a:	66 c7 85 54 ec ff ff 	movw   $0x6c75,-0x13ac(%rbp)
    2451:	75 6c 
    2453:	c6 85 56 ec ff ff 74 	movb   $0x74,-0x13aa(%rbp)
    245a:	48 c7 85 48 ec ff ff 	movq   $0x7,-0x13b8(%rbp)
    2461:	07 00 00 00 
    2465:	c6 85 57 ec ff ff 00 	movb   $0x0,-0x13a9(%rbp)
    246c:	e8 5f fd ff ff       	callq  21d0 <_ZNSt13random_device7_M_initERKNSt7__cxx1112basic_stringIcSt11char_traitsIcESaIcEEE@plt>
    2471:	48 8b bd 40 ec ff ff 	mov    -0x13c0(%rbp),%rdi
    2478:	4c 39 e7             	cmp    %r12,%rdi
    247b:	74 10                	je     248d <_Z3addii+0xad>
    247d:	48 8b 85 50 ec ff ff 	mov    -0x13b0(%rbp),%rax
    2484:	48 8d 70 01          	lea    0x1(%rax),%rsi
    2488:	e8 83 fc ff ff       	callq  2110 <_ZdlPvm@plt>
    248d:	4c 89 ff             	mov    %r15,%rdi
    2490:	e8 cb fc ff ff       	callq  2160 <_ZNSt13random_device9_M_getvalEv@plt>
    2495:	89 c1                	mov    %eax,%ecx
    2497:	b8 01 00 00 00       	mov    $0x1,%eax
    249c:	48 89 8d 40 ec ff ff 	mov    %rcx,-0x13c0(%rbp)
    24a3:	66 66 2e 0f 1f 84 00 	data16 nopw %cs:0x0(%rax,%rax,1)
    24aa:	00 00 00 00 
    24ae:	66 90                	xchg   %ax,%ax
    24b0:	48 89 ca             	mov    %rcx,%rdx
    24b3:	48 c1 ea 1e          	shr    $0x1e,%rdx
    24b7:	48 31 ca             	xor    %rcx,%rdx
    24ba:	48 69 d2 65 89 07 6c 	imul   $0x6c078965,%rdx,%rdx
    24c1:	8d 0c 02             	lea    (%rdx,%rax,1),%ecx
    24c4:	48 89 0c c3          	mov    %rcx,(%rbx,%rax,8)
    24c8:	48 ff c0             	inc    %rax
    24cb:	48 3d 70 02 00 00    	cmp    $0x270,%rax
    24d1:	75 dd                	jne    24b0 <_Z3addii+0xd0>
    24d3:	c5 f9 ef c0          	vpxor  %xmm0,%xmm0,%xmm0
    24d7:	41 be 40 42 0f 00    	mov    $0xf4240,%r14d
    24dd:	4c 8d a5 50 d8 ff ff 	lea    -0x27b0(%rbp),%r12
    24e4:	48 c7 45 c0 70 02 00 	movq   $0x270,-0x40(%rbp)
    24eb:	00 
    24ec:	c5 f9 7f 85 50 d8 ff 	vmovdqa %xmm0,-0x27b0(%rbp)
    24f3:	ff 
    24f4:	c5 f9 57 c0          	vxorpd %xmm0,%xmm0,%xmm0
    24f8:	48 c7 85 60 d8 ff ff 	movq   $0x0,-0x27a0(%rbp)
    24ff:	00 00 00 00 
    2503:	c5 fd 29 85 90 d8 ff 	vmovapd %ymm0,-0x2770(%rbp)
    250a:	ff 
    250b:	c5 f8 77             	vzeroupper 
    250e:	e9 fe 04 00 00       	jmpq   2a11 <_Z3addii+0x631>
    2513:	66 66 2e 0f 1f 84 00 	data16 nopw %cs:0x0(%rax,%rax,1)
    251a:	00 00 00 00 
    251e:	66 90                	xchg   %ax,%ax
    2520:	c5 c9 57 f6          	vxorpd %xmm6,%xmm6,%xmm6
    2524:	c4 e1 cb 2a c0       	vcvtsi2sd %rax,%xmm6,%xmm0
    2529:	c5 fb 10 d0          	vmovsd %xmm0,%xmm0,%xmm2
    252d:	48 81 f9 6f 02 00 00 	cmp    $0x26f,%rcx
    2534:	0f 87 55 05 00 00    	ja     2a8f <_Z3addii+0x6af>
    253a:	48 8b 84 cd 40 ec ff 	mov    -0x13c0(%rbp,%rcx,8),%rax
    2541:	ff 
    2542:	48 8d 51 01          	lea    0x1(%rcx),%rdx
    2546:	48 89 55 c0          	mov    %rdx,-0x40(%rbp)
    254a:	48 89 c1             	mov    %rax,%rcx
    254d:	48 c1 e9 0b          	shr    $0xb,%rcx
    2551:	89 c9                	mov    %ecx,%ecx
    2553:	48 31 c8             	xor    %rcx,%rax
    2556:	48 89 c1             	mov    %rax,%rcx
    2559:	48 c1 e1 07          	shl    $0x7,%rcx
    255d:	81 e1 80 56 2c 9d    	and    $0x9d2c5680,%ecx
    2563:	48 31 c8             	xor    %rcx,%rax
    2566:	48 89 c1             	mov    %rax,%rcx
    2569:	48 c1 e1 0f          	shl    $0xf,%rcx
    256d:	81 e1 00 00 c6 ef    	and    $0xefc60000,%ecx
    2573:	48 31 c8             	xor    %rcx,%rax
    2576:	48 89 c1             	mov    %rax,%rcx
    2579:	48 c1 e9 12          	shr    $0x12,%rcx
    257d:	48 31 c8             	xor    %rcx,%rax
    2580:	0f 88 2a 07 00 00    	js     2cb0 <_Z3addii+0x8d0>
    2586:	c5 c1 57 ff          	vxorpd %xmm7,%xmm7,%xmm7
    258a:	c4 e1 c3 2a c0       	vcvtsi2sd %rax,%xmm7,%xmm0
    258f:	c4 e2 e9 99 05 78 dd 	vfmadd132sd 0xdd78(%rip),%xmm2,%xmm0        # 10310 <_ZZNSt19_Sp_make_shared_tag5_S_tiEvE5__tag+0x110>
    2596:	00 00 
    2598:	c5 fb 10 2d 80 dd 00 	vmovsd 0xdd80(%rip),%xmm5        # 10320 <_ZZNSt19_Sp_make_shared_tag5_S_tiEvE5__tag+0x120>
    259f:	00 
    25a0:	c5 fb 10 35 58 dd 00 	vmovsd 0xdd58(%rip),%xmm6        # 10300 <_ZZNSt19_Sp_make_shared_tag5_S_tiEvE5__tag+0x100>
    25a7:	00 
    25a8:	c5 fb 59 0d 68 dd 00 	vmulsd 0xdd68(%rip),%xmm0,%xmm1        # 10318 <_ZZNSt19_Sp_make_shared_tag5_S_tiEvE5__tag+0x118>
    25af:	00 
    25b0:	c5 d3 c2 c0 02       	vcmplesd %xmm0,%xmm5,%xmm0
    25b5:	c4 e3 71 4b ce 00    	vblendvpd %xmm0,%xmm6,%xmm1,%xmm1
    25bb:	c5 fb 11 8d 70 d8 ff 	vmovsd %xmm1,-0x2790(%rbp)
    25c2:	ff 
    25c3:	48 81 fa 6f 02 00 00 	cmp    $0x26f,%rdx
    25ca:	0f 87 30 07 00 00    	ja     2d00 <_Z3addii+0x920>
    25d0:	48 8b 84 d5 40 ec ff 	mov    -0x13c0(%rbp,%rdx,8),%rax
    25d7:	ff 
    25d8:	48 8d 4a 01          	lea    0x1(%rdx),%rcx
    25dc:	48 89 4d c0          	mov    %rcx,-0x40(%rbp)
    25e0:	48 89 c2             	mov    %rax,%rdx
    25e3:	48 c1 ea 0b          	shr    $0xb,%rdx
    25e7:	89 d2                	mov    %edx,%edx
    25e9:	48 31 d0             	xor    %rdx,%rax
    25ec:	48 89 c2             	mov    %rax,%rdx
    25ef:	48 c1 e2 07          	shl    $0x7,%rdx
    25f3:	81 e2 80 56 2c 9d    	and    $0x9d2c5680,%edx
    25f9:	48 31 d0             	xor    %rdx,%rax
    25fc:	48 89 c2             	mov    %rax,%rdx
    25ff:	48 c1 e2 0f          	shl    $0xf,%rdx
    2603:	81 e2 00 00 c6 ef    	and    $0xefc60000,%edx
    2609:	48 31 d0             	xor    %rdx,%rax
    260c:	48 89 c2             	mov    %rax,%rdx
    260f:	48 c1 ea 12          	shr    $0x12,%rdx
    2613:	48 31 d0             	xor    %rdx,%rax
    2616:	0f 88 44 06 00 00    	js     2c60 <_Z3addii+0x880>
    261c:	c5 d9 57 e4          	vxorpd %xmm4,%xmm4,%xmm4
    2620:	c4 e1 db 2a c0       	vcvtsi2sd %rax,%xmm4,%xmm0
    2625:	c5 fb 10 d0          	vmovsd %xmm0,%xmm0,%xmm2
    2629:	48 81 f9 6f 02 00 00 	cmp    $0x26f,%rcx
    2630:	0f 87 50 06 00 00    	ja     2c86 <_Z3addii+0x8a6>
    2636:	48 8b 84 cd 40 ec ff 	mov    -0x13c0(%rbp,%rcx,8),%rax
    263d:	ff 
    263e:	48 8d 51 01          	lea    0x1(%rcx),%rdx
    2642:	48 89 55 c0          	mov    %rdx,-0x40(%rbp)
    2646:	48 89 c1             	mov    %rax,%rcx
    2649:	48 c1 e9 0b          	shr    $0xb,%rcx
    264d:	89 c9                	mov    %ecx,%ecx
    264f:	48 31 c8             	xor    %rcx,%rax
    2652:	48 89 c1             	mov    %rax,%rcx
    2655:	48 c1 e1 07          	shl    $0x7,%rcx
    2659:	81 e1 80 56 2c 9d    	and    $0x9d2c5680,%ecx
    265f:	48 31 c8             	xor    %rcx,%rax
    2662:	48 89 c1             	mov    %rax,%rcx
    2665:	48 c1 e1 0f          	shl    $0xf,%rcx
    2669:	81 e1 00 00 c6 ef    	and    $0xefc60000,%ecx
    266f:	48 31 c8             	xor    %rcx,%rax
    2672:	48 89 c1             	mov    %rax,%rcx
    2675:	48 c1 e9 12          	shr    $0x12,%rcx
    2679:	48 31 c8             	xor    %rcx,%rax
    267c:	0f 88 be 05 00 00    	js     2c40 <_Z3addii+0x860>
    2682:	c5 c9 57 f6          	vxorpd %xmm6,%xmm6,%xmm6
    2686:	c4 e1 cb 2a c0       	vcvtsi2sd %rax,%xmm6,%xmm0
    268b:	c4 e2 e9 99 05 7c dc 	vfmadd132sd 0xdc7c(%rip),%xmm2,%xmm0        # 10310 <_ZZNSt19_Sp_make_shared_tag5_S_tiEvE5__tag+0x110>
    2692:	00 00 
    2694:	c5 fb 10 3d 84 dc 00 	vmovsd 0xdc84(%rip),%xmm7        # 10320 <_ZZNSt19_Sp_make_shared_tag5_S_tiEvE5__tag+0x120>
    269b:	00 
    269c:	c5 fb 10 2d 5c dc 00 	vmovsd 0xdc5c(%rip),%xmm5        # 10300 <_ZZNSt19_Sp_make_shared_tag5_S_tiEvE5__tag+0x100>
    26a3:	00 
    26a4:	c5 fb 59 15 6c dc 00 	vmulsd 0xdc6c(%rip),%xmm0,%xmm2        # 10318 <_ZZNSt19_Sp_make_shared_tag5_S_tiEvE5__tag+0x118>
    26ab:	00 
    26ac:	c5 c3 c2 c0 02       	vcmplesd %xmm0,%xmm7,%xmm0
    26b1:	c4 e3 69 4b d5 00    	vblendvpd %xmm0,%xmm5,%xmm2,%xmm2
    26b7:	48 81 fa 6f 02 00 00 	cmp    $0x26f,%rdx
    26be:	0f 87 0c 06 00 00    	ja     2cd0 <_Z3addii+0x8f0>
    26c4:	48 8b 84 d5 40 ec ff 	mov    -0x13c0(%rbp,%rdx,8),%rax
    26cb:	ff 
    26cc:	48 8d 4a 01          	lea    0x1(%rdx),%rcx
    26d0:	48 89 4d c0          	mov    %rcx,-0x40(%rbp)
    26d4:	48 89 c2             	mov    %rax,%rdx
    26d7:	48 c1 ea 0b          	shr    $0xb,%rdx
    26db:	89 d2                	mov    %edx,%edx
    26dd:	48 31 d0             	xor    %rdx,%rax
    26e0:	48 89 c2             	mov    %rax,%rdx
    26e3:	48 c1 e2 07          	shl    $0x7,%rdx
    26e7:	81 e2 80 56 2c 9d    	and    $0x9d2c5680,%edx
    26ed:	48 31 d0             	xor    %rdx,%rax
    26f0:	48 89 c2             	mov    %rax,%rdx
    26f3:	48 c1 e2 0f          	shl    $0xf,%rdx
    26f7:	81 e2 00 00 c6 ef    	and    $0xefc60000,%edx
    26fd:	48 31 d0             	xor    %rdx,%rax
    2700:	48 89 c2             	mov    %rax,%rdx
    2703:	48 c1 ea 12          	shr    $0x12,%rdx
    2707:	48 31 d0             	xor    %rdx,%rax
    270a:	0f 88 d0 04 00 00    	js     2be0 <_Z3addii+0x800>
    2710:	c5 c1 57 ff          	vxorpd %xmm7,%xmm7,%xmm7
    2714:	c4 e1 c3 2a c0       	vcvtsi2sd %rax,%xmm7,%xmm0
    2719:	c5 fb 10 d8          	vmovsd %xmm0,%xmm0,%xmm3
    271d:	48 81 f9 6f 02 00 00 	cmp    $0x26f,%rcx
    2724:	0f 87 dc 04 00 00    	ja     2c06 <_Z3addii+0x826>
    272a:	48 8b 84 cd 40 ec ff 	mov    -0x13c0(%rbp,%rcx,8),%rax
    2731:	ff 
    2732:	48 8d 51 01          	lea    0x1(%rcx),%rdx
    2736:	48 89 55 c0          	mov    %rdx,-0x40(%rbp)
    273a:	48 89 c1             	mov    %rax,%rcx
    273d:	48 c1 e9 0b          	shr    $0xb,%rcx
    2741:	89 c9                	mov    %ecx,%ecx
    2743:	48 31 c8             	xor    %rcx,%rax
    2746:	48 89 c1             	mov    %rax,%rcx
    2749:	48 c1 e1 07          	shl    $0x7,%rcx
    274d:	81 e1 80 56 2c 9d    	and    $0x9d2c5680,%ecx
    2753:	48 31 c8             	xor    %rcx,%rax
    2756:	48 89 c1             	mov    %rax,%rcx
    2759:	48 c1 e1 0f          	shl    $0xf,%rcx
    275d:	81 e1 00 00 c6 ef    	and    $0xefc60000,%ecx
    2763:	48 31 c8             	xor    %rcx,%rax
    2766:	48 89 c1             	mov    %rax,%rcx
    2769:	48 c1 e9 12          	shr    $0x12,%rcx
    276d:	48 31 c8             	xor    %rcx,%rax
    2770:	0f 88 4a 04 00 00    	js     2bc0 <_Z3addii+0x7e0>
    2776:	c5 d9 57 e4          	vxorpd %xmm4,%xmm4,%xmm4
    277a:	c4 e1 db 2a c0       	vcvtsi2sd %rax,%xmm4,%xmm0
    277f:	c4 e2 e1 99 05 88 db 	vfmadd132sd 0xdb88(%rip),%xmm3,%xmm0        # 10310 <_ZZNSt19_Sp_make_shared_tag5_S_tiEvE5__tag+0x110>
    2786:	00 00 
    2788:	c5 fb 10 35 90 db 00 	vmovsd 0xdb90(%rip),%xmm6        # 10320 <_ZZNSt19_Sp_make_shared_tag5_S_tiEvE5__tag+0x120>
    278f:	00 
    2790:	49 bd 7a 14 ae 47 e1 	movabs $0x3f847ae147ae147a,%r13
    2797:	7a 84 3f 
    279a:	c4 c1 f9 6e cd       	vmovq  %r13,%xmm1
    279f:	c5 fb 59 1d 81 db 00 	vmulsd 0xdb81(%rip),%xmm0,%xmm3        # 10328 <_ZZNSt19_Sp_make_shared_tag5_S_tiEvE5__tag+0x128>
    27a6:	00 
    27a7:	c5 cb c2 c0 06       	vcmpnlesd %xmm0,%xmm6,%xmm0
    27ac:	c4 e3 71 4b fb 00    	vblendvpd %xmm0,%xmm3,%xmm1,%xmm7
    27b2:	c4 c1 f9 7e fd       	vmovq  %xmm7,%r13
    27b7:	48 81 fa 6f 02 00 00 	cmp    $0x26f,%rdx
    27be:	0f 87 9c 05 00 00    	ja     2d60 <_Z3addii+0x980>
    27c4:	48 8d 4a 01          	lea    0x1(%rdx),%rcx
    27c8:	48 8b 94 d5 40 ec ff 	mov    -0x13c0(%rbp,%rdx,8),%rdx
    27cf:	ff 
    27d0:	48 89 4d c0          	mov    %rcx,-0x40(%rbp)
    27d4:	48 89 d6             	mov    %rdx,%rsi
    27d7:	48 c1 ee 0b          	shr    $0xb,%rsi
    27db:	89 f0                	mov    %esi,%eax
    27dd:	48 31 d0             	xor    %rdx,%rax
    27e0:	48 89 c2             	mov    %rax,%rdx
    27e3:	48 c1 e2 07          	shl    $0x7,%rdx
    27e7:	81 e2 80 56 2c 9d    	and    $0x9d2c5680,%edx
    27ed:	48 31 c2             	xor    %rax,%rdx
    27f0:	48 89 d0             	mov    %rdx,%rax
    27f3:	48 c1 e0 0f          	shl    $0xf,%rax
    27f7:	25 00 00 c6 ef       	and    $0xefc60000,%eax
    27fc:	48 31 d0             	xor    %rdx,%rax
    27ff:	48 89 c2             	mov    %rax,%rdx
    2802:	48 c1 ea 12          	shr    $0x12,%rdx
    2806:	48 31 d0             	xor    %rdx,%rax
    2809:	0f 88 51 03 00 00    	js     2b60 <_Z3addii+0x780>
    280f:	c5 d1 57 ed          	vxorpd %xmm5,%xmm5,%xmm5
    2813:	c4 e1 d3 2a c0       	vcvtsi2sd %rax,%xmm5,%xmm0
    2818:	c5 fb 10 d8          	vmovsd %xmm0,%xmm0,%xmm3
    281c:	48 81 f9 6f 02 00 00 	cmp    $0x26f,%rcx
    2823:	0f 87 5d 03 00 00    	ja     2b86 <_Z3addii+0x7a6>
    2829:	48 8b 84 cd 40 ec ff 	mov    -0x13c0(%rbp,%rcx,8),%rax
    2830:	ff 
    2831:	48 8d 51 01          	lea    0x1(%rcx),%rdx
    2835:	48 89 55 c0          	mov    %rdx,-0x40(%rbp)
    2839:	48 89 c1             	mov    %rax,%rcx
    283c:	48 c1 e9 0b          	shr    $0xb,%rcx
    2840:	89 c9                	mov    %ecx,%ecx
    2842:	48 31 c8             	xor    %rcx,%rax
    2845:	48 89 c1             	mov    %rax,%rcx
    2848:	48 c1 e1 07          	shl    $0x7,%rcx
    284c:	81 e1 80 56 2c 9d    	and    $0x9d2c5680,%ecx
    2852:	48 31 c8             	xor    %rcx,%rax
    2855:	48 89 c1             	mov    %rax,%rcx
    2858:	48 c1 e1 0f          	shl    $0xf,%rcx
    285c:	81 e1 00 00 c6 ef    	and    $0xefc60000,%ecx
    2862:	48 31 c8             	xor    %rcx,%rax
    2865:	48 89 c1             	mov    %rax,%rcx
    2868:	48 c1 e9 12          	shr    $0x12,%rcx
    286c:	48 31 c8             	xor    %rcx,%rax
    286f:	0f 88 cb 02 00 00    	js     2b40 <_Z3addii+0x760>
    2875:	c5 c9 57 f6          	vxorpd %xmm6,%xmm6,%xmm6
    2879:	c4 e1 cb 2a c0       	vcvtsi2sd %rax,%xmm6,%xmm0
    287e:	c4 e2 e1 99 05 89 da 	vfmadd132sd 0xda89(%rip),%xmm3,%xmm0        # 10310 <_ZZNSt19_Sp_make_shared_tag5_S_tiEvE5__tag+0x110>
    2885:	00 00 
    2887:	c5 fb 10 25 91 da 00 	vmovsd 0xda91(%rip),%xmm4        # 10320 <_ZZNSt19_Sp_make_shared_tag5_S_tiEvE5__tag+0x120>
    288e:	00 
    288f:	c5 fb 10 0d 69 da 00 	vmovsd 0xda69(%rip),%xmm1        # 10300 <_ZZNSt19_Sp_make_shared_tag5_S_tiEvE5__tag+0x100>
    2896:	00 
    2897:	c5 fb 59 1d 79 da 00 	vmulsd 0xda79(%rip),%xmm0,%xmm3        # 10318 <_ZZNSt19_Sp_make_shared_tag5_S_tiEvE5__tag+0x118>
    289e:	00 
    289f:	c5 db c2 c0 02       	vcmplesd %xmm0,%xmm4,%xmm0
    28a4:	c4 e3 61 4b d9 00    	vblendvpd %xmm0,%xmm1,%xmm3,%xmm3
    28aa:	48 81 fa 6f 02 00 00 	cmp    $0x26f,%rdx
    28b1:	0f 87 69 04 00 00    	ja     2d20 <_Z3addii+0x940>
    28b7:	48 8b b4 d5 40 ec ff 	mov    -0x13c0(%rbp,%rdx,8),%rsi
    28be:	ff 
    28bf:	48 8d 4a 01          	lea    0x1(%rdx),%rcx
    28c3:	48 89 4d c0          	mov    %rcx,-0x40(%rbp)
    28c7:	48 89 f2             	mov    %rsi,%rdx
    28ca:	48 c1 ea 0b          	shr    $0xb,%rdx
    28ce:	89 d0                	mov    %edx,%eax
    28d0:	48 31 f0             	xor    %rsi,%rax
    28d3:	48 89 c2             	mov    %rax,%rdx
    28d6:	48 c1 e2 07          	shl    $0x7,%rdx
    28da:	81 e2 80 56 2c 9d    	and    $0x9d2c5680,%edx
    28e0:	48 31 d0             	xor    %rdx,%rax
    28e3:	48 89 c2             	mov    %rax,%rdx
    28e6:	48 c1 e2 0f          	shl    $0xf,%rdx
    28ea:	81 e2 00 00 c6 ef    	and    $0xefc60000,%edx
    28f0:	48 31 d0             	xor    %rdx,%rax
    28f3:	48 89 c2             	mov    %rax,%rdx
    28f6:	48 c1 ea 12          	shr    $0x12,%rdx
    28fa:	48 31 d0             	xor    %rdx,%rax
    28fd:	0f 88 cd 01 00 00    	js     2ad0 <_Z3addii+0x6f0>
    2903:	c5 c1 57 ff          	vxorpd %xmm7,%xmm7,%xmm7
    2907:	c4 e1 c3 2a c0       	vcvtsi2sd %rax,%xmm7,%xmm0
    290c:	c5 fb 10 e0          	vmovsd %xmm0,%xmm0,%xmm4
    2910:	48 81 f9 6f 02 00 00 	cmp    $0x26f,%rcx
    2917:	0f 87 d9 01 00 00    	ja     2af6 <_Z3addii+0x716>
    291d:	48 8d 41 01          	lea    0x1(%rcx),%rax
    2921:	48 89 45 c0          	mov    %rax,-0x40(%rbp)
    2925:	48 8b 84 cd 40 ec ff 	mov    -0x13c0(%rbp,%rcx,8),%rax
    292c:	ff 
    292d:	48 89 c2             	mov    %rax,%rdx
    2930:	48 c1 ea 0b          	shr    $0xb,%rdx
    2934:	89 d2                	mov    %edx,%edx
    2936:	48 31 d0             	xor    %rdx,%rax
    2939:	48 89 c2             	mov    %rax,%rdx
    293c:	48 c1 e2 07          	shl    $0x7,%rdx
    2940:	81 e2 80 56 2c 9d    	and    $0x9d2c5680,%edx
    2946:	48 31 d0             	xor    %rdx,%rax
    2949:	48 89 c2             	mov    %rax,%rdx
    294c:	48 c1 e2 0f          	shl    $0xf,%rdx
    2950:	81 e2 00 00 c6 ef    	and    $0xefc60000,%edx
    2956:	48 31 d0             	xor    %rdx,%rax
    2959:	48 89 c2             	mov    %rax,%rdx
    295c:	48 c1 ea 12          	shr    $0x12,%rdx
    2960:	48 31 c2             	xor    %rax,%rdx
    2963:	0f 88 47 01 00 00    	js     2ab0 <_Z3addii+0x6d0>
    2969:	c5 d1 57 ed          	vxorpd %xmm5,%xmm5,%xmm5
    296d:	c4 e1 d3 2a c2       	vcvtsi2sd %rdx,%xmm5,%xmm0
    2972:	c4 e2 d9 99 05 95 d9 	vfmadd132sd 0xd995(%rip),%xmm4,%xmm0        # 10310 <_ZZNSt19_Sp_make_shared_tag5_S_tiEvE5__tag+0x110>
    2979:	00 00 
    297b:	c5 f9 2f 05 9d d9 00 	vcomisd 0xd99d(%rip),%xmm0        # 10320 <_ZZNSt19_Sp_make_shared_tag5_S_tiEvE5__tag+0x120>
    2982:	00 
    2983:	0f 83 f7 06 00 00    	jae    3080 <_Z3addii+0xca0>
    2989:	c5 fb 59 05 97 d9 00 	vmulsd 0xd997(%rip),%xmm0,%xmm0        # 10328 <_ZZNSt19_Sp_make_shared_tag5_S_tiEvE5__tag+0x128>
    2990:	00 
    2991:	c4 c1 f9 6e ed       	vmovq  %r13,%xmm5
    2996:	c5 e3 58 c0          	vaddsd %xmm0,%xmm3,%xmm0
    299a:	c5 fb 11 95 90 d8 ff 	vmovsd %xmm2,-0x2770(%rbp)
    29a1:	ff 
    29a2:	48 8b b5 58 d8 ff ff 	mov    -0x27a8(%rbp),%rsi
    29a9:	c5 eb 58 d5          	vaddsd %xmm5,%xmm2,%xmm2
    29ad:	c5 fb 11 9d a0 d8 ff 	vmovsd %xmm3,-0x2760(%rbp)
    29b4:	ff 
    29b5:	c5 fb 11 85 a8 d8 ff 	vmovsd %xmm0,-0x2758(%rbp)
    29bc:	ff 
    29bd:	c5 fb 11 95 98 d8 ff 	vmovsd %xmm2,-0x2768(%rbp)
    29c4:	ff 
    29c5:	48 3b b5 60 d8 ff ff 	cmp    -0x27a0(%rbp),%rsi
    29cc:	0f 84 de 03 00 00    	je     2db0 <_Z3addii+0x9d0>
    29d2:	c5 fb 10 85 70 d8 ff 	vmovsd -0x2790(%rbp),%xmm0
    29d9:	ff 
    29da:	48 83 c6 28          	add    $0x28,%rsi
    29de:	c5 f9 6f a5 90 d8 ff 	vmovdqa -0x2770(%rbp),%xmm4
    29e5:	ff 
    29e6:	c5 f9 6f ad a0 d8 ff 	vmovdqa -0x2760(%rbp),%xmm5
    29ed:	ff 
    29ee:	c5 fb 11 46 d8       	vmovsd %xmm0,-0x28(%rsi)
    29f3:	c5 fa 7f 66 e0       	vmovdqu %xmm4,-0x20(%rsi)
    29f8:	c5 fa 7f 6e f0       	vmovdqu %xmm5,-0x10(%rsi)
    29fd:	41 ff ce             	dec    %r14d
    2a00:	48 89 b5 58 d8 ff ff 	mov    %rsi,-0x27a8(%rbp)
    2a07:	0f 84 c5 03 00 00    	je     2dd2 <_Z3addii+0x9f2>
    2a0d:	48 8b 45 c0          	mov    -0x40(%rbp),%rax
    2a11:	48 3d 6f 02 00 00    	cmp    $0x26f,%rax
    2a17:	0f 87 73 03 00 00    	ja     2d90 <_Z3addii+0x9b0>
    2a1d:	48 8d 48 01          	lea    0x1(%rax),%rcx
    2a21:	48 8b 84 c5 40 ec ff 	mov    -0x13c0(%rbp,%rax,8),%rax
    2a28:	ff 
    2a29:	48 89 4d c0          	mov    %rcx,-0x40(%rbp)
    2a2d:	48 89 c2             	mov    %rax,%rdx
    2a30:	48 c1 ea 0b          	shr    $0xb,%rdx
    2a34:	89 d2                	mov    %edx,%edx
    2a36:	48 31 d0             	xor    %rdx,%rax
    2a39:	48 89 c2             	mov    %rax,%rdx
    2a3c:	48 c1 e2 07          	shl    $0x7,%rdx
    2a40:	81 e2 80 56 2c 9d    	and    $0x9d2c5680,%edx
    2a46:	48 31 d0             	xor    %rdx,%rax
    2a49:	48 89 c2             	mov    %rax,%rdx
    2a4c:	48 c1 e2 0f          	shl    $0xf,%rdx
    2a50:	81 e2 00 00 c6 ef    	and    $0xefc60000,%edx
    2a56:	48 31 d0             	xor    %rdx,%rax
    2a59:	48 89 c2             	mov    %rax,%rdx
    2a5c:	48 c1 ea 12          	shr    $0x12,%rdx
    2a60:	48 31 d0             	xor    %rdx,%rax
    2a63:	0f 89 b7 fa ff ff    	jns    2520 <_Z3addii+0x140>
    2a69:	48 89 c2             	mov    %rax,%rdx
    2a6c:	83 e0 01             	and    $0x1,%eax
    2a6f:	c5 c9 57 f6          	vxorpd %xmm6,%xmm6,%xmm6
    2a73:	48 d1 ea             	shr    %rdx
    2a76:	48 09 c2             	or     %rax,%rdx
    2a79:	c4 e1 cb 2a c2       	vcvtsi2sd %rdx,%xmm6,%xmm0
    2a7e:	c5 fb 58 d0          	vaddsd %xmm0,%xmm0,%xmm2
    2a82:	48 81 f9 6f 02 00 00 	cmp    $0x26f,%rcx
    2a89:	0f 86 ab fa ff ff    	jbe    253a <_Z3addii+0x15a>
    2a8f:	48 89 df             	mov    %rbx,%rdi
    2a92:	c5 fb 11 95 38 d8 ff 	vmovsd %xmm2,-0x27c8(%rbp)
    2a99:	ff 
    2a9a:	e8 a1 5d 00 00       	callq  8840 <_ZNSt23mersenne_twister_engineImLm32ELm624ELm397ELm31ELm2567483615ELm11ELm4294967295ELm7ELm2636928640ELm15ELm4022730752ELm18ELm1812433253EE11_M_gen_randEv>
    2a9f:	c5 fb 10 95 38 d8 ff 	vmovsd -0x27c8(%rbp),%xmm2
    2aa6:	ff 
    2aa7:	48 8b 4d c0          	mov    -0x40(%rbp),%rcx
    2aab:	e9 8a fa ff ff       	jmpq   253a <_Z3addii+0x15a>
    2ab0:	48 89 d0             	mov    %rdx,%rax
    2ab3:	83 e2 01             	and    $0x1,%edx
    2ab6:	c5 c9 57 f6          	vxorpd %xmm6,%xmm6,%xmm6
    2aba:	48 d1 e8             	shr    %rax
    2abd:	48 09 d0             	or     %rdx,%rax
    2ac0:	c4 e1 cb 2a c0       	vcvtsi2sd %rax,%xmm6,%xmm0
    2ac5:	c5 fb 58 c0          	vaddsd %xmm0,%xmm0,%xmm0
    2ac9:	e9 a4 fe ff ff       	jmpq   2972 <_Z3addii+0x592>
    2ace:	66 90                	xchg   %ax,%ax
    2ad0:	48 89 c2             	mov    %rax,%rdx
    2ad3:	83 e0 01             	and    $0x1,%eax
    2ad6:	c5 f1 57 c9          	vxorpd %xmm1,%xmm1,%xmm1
    2ada:	48 d1 ea             	shr    %rdx
    2add:	48 09 c2             	or     %rax,%rdx
    2ae0:	c4 e1 f3 2a c2       	vcvtsi2sd %rdx,%xmm1,%xmm0
    2ae5:	c5 fb 58 e0          	vaddsd %xmm0,%xmm0,%xmm4
    2ae9:	48 81 f9 6f 02 00 00 	cmp    $0x26f,%rcx
    2af0:	0f 86 27 fe ff ff    	jbe    291d <_Z3addii+0x53d>
    2af6:	48 89 df             	mov    %rbx,%rdi
    2af9:	c5 fb 11 95 28 d8 ff 	vmovsd %xmm2,-0x27d8(%rbp)
    2b00:	ff 
    2b01:	c5 fb 11 9d 30 d8 ff 	vmovsd %xmm3,-0x27d0(%rbp)
    2b08:	ff 
    2b09:	c5 fb 11 a5 38 d8 ff 	vmovsd %xmm4,-0x27c8(%rbp)
    2b10:	ff 
    2b11:	e8 2a 5d 00 00       	callq  8840 <_ZNSt23mersenne_twister_engineImLm32ELm624ELm397ELm31ELm2567483615ELm11ELm4294967295ELm7ELm2636928640ELm15ELm4022730752ELm18ELm1812433253EE11_M_gen_randEv>
    2b16:	c5 fb 10 95 28 d8 ff 	vmovsd -0x27d8(%rbp),%xmm2
    2b1d:	ff 
    2b1e:	c5 fb 10 9d 30 d8 ff 	vmovsd -0x27d0(%rbp),%xmm3
    2b25:	ff 
    2b26:	c5 fb 10 a5 38 d8 ff 	vmovsd -0x27c8(%rbp),%xmm4
    2b2d:	ff 
    2b2e:	48 8b 4d c0          	mov    -0x40(%rbp),%rcx
    2b32:	e9 e6 fd ff ff       	jmpq   291d <_Z3addii+0x53d>
    2b37:	66 0f 1f 84 00 00 00 	nopw   0x0(%rax,%rax,1)
    2b3e:	00 00 
    2b40:	48 89 c1             	mov    %rax,%rcx
    2b43:	83 e0 01             	and    $0x1,%eax
    2b46:	c5 d1 57 ed          	vxorpd %xmm5,%xmm5,%xmm5
    2b4a:	48 d1 e9             	shr    %rcx
    2b4d:	48 09 c1             	or     %rax,%rcx
    2b50:	c4 e1 d3 2a c1       	vcvtsi2sd %rcx,%xmm5,%xmm0
    2b55:	c5 fb 58 c0          	vaddsd %xmm0,%xmm0,%xmm0
    2b59:	e9 20 fd ff ff       	jmpq   287e <_Z3addii+0x49e>
    2b5e:	66 90                	xchg   %ax,%ax
    2b60:	48 89 c2             	mov    %rax,%rdx
    2b63:	83 e0 01             	and    $0x1,%eax
    2b66:	c5 d9 57 e4          	vxorpd %xmm4,%xmm4,%xmm4
    2b6a:	48 d1 ea             	shr    %rdx
    2b6d:	48 09 c2             	or     %rax,%rdx
    2b70:	c4 e1 db 2a c2       	vcvtsi2sd %rdx,%xmm4,%xmm0
    2b75:	c5 fb 58 d8          	vaddsd %xmm0,%xmm0,%xmm3
    2b79:	48 81 f9 6f 02 00 00 	cmp    $0x26f,%rcx
    2b80:	0f 86 a3 fc ff ff    	jbe    2829 <_Z3addii+0x449>
    2b86:	48 89 df             	mov    %rbx,%rdi
    2b89:	c5 fb 11 95 30 d8 ff 	vmovsd %xmm2,-0x27d0(%rbp)
    2b90:	ff 
    2b91:	c5 fb 11 9d 38 d8 ff 	vmovsd %xmm3,-0x27c8(%rbp)
    2b98:	ff 
    2b99:	e8 a2 5c 00 00       	callq  8840 <_ZNSt23mersenne_twister_engineImLm32ELm624ELm397ELm31ELm2567483615ELm11ELm4294967295ELm7ELm2636928640ELm15ELm4022730752ELm18ELm1812433253EE11_M_gen_randEv>
    2b9e:	c5 fb 10 95 30 d8 ff 	vmovsd -0x27d0(%rbp),%xmm2
    2ba5:	ff 
    2ba6:	c5 fb 10 9d 38 d8 ff 	vmovsd -0x27c8(%rbp),%xmm3
    2bad:	ff 
    2bae:	48 8b 4d c0          	mov    -0x40(%rbp),%rcx
    2bb2:	e9 72 fc ff ff       	jmpq   2829 <_Z3addii+0x449>
    2bb7:	66 0f 1f 84 00 00 00 	nopw   0x0(%rax,%rax,1)
    2bbe:	00 00 
    2bc0:	48 89 c1             	mov    %rax,%rcx
    2bc3:	83 e0 01             	and    $0x1,%eax
    2bc6:	c5 c1 57 ff          	vxorpd %xmm7,%xmm7,%xmm7
    2bca:	48 d1 e9             	shr    %rcx
    2bcd:	48 09 c1             	or     %rax,%rcx
    2bd0:	c4 e1 c3 2a c1       	vcvtsi2sd %rcx,%xmm7,%xmm0
    2bd5:	c5 fb 58 c0          	vaddsd %xmm0,%xmm0,%xmm0
    2bd9:	e9 a1 fb ff ff       	jmpq   277f <_Z3addii+0x39f>
    2bde:	66 90                	xchg   %ax,%ax
    2be0:	48 89 c2             	mov    %rax,%rdx
    2be3:	83 e0 01             	and    $0x1,%eax
    2be6:	c5 c9 57 f6          	vxorpd %xmm6,%xmm6,%xmm6
    2bea:	48 d1 ea             	shr    %rdx
    2bed:	48 09 c2             	or     %rax,%rdx
    2bf0:	c4 e1 cb 2a c2       	vcvtsi2sd %rdx,%xmm6,%xmm0
    2bf5:	c5 fb 58 d8          	vaddsd %xmm0,%xmm0,%xmm3
    2bf9:	48 81 f9 6f 02 00 00 	cmp    $0x26f,%rcx
    2c00:	0f 86 24 fb ff ff    	jbe    272a <_Z3addii+0x34a>
    2c06:	48 89 df             	mov    %rbx,%rdi
    2c09:	c5 fb 11 9d 30 d8 ff 	vmovsd %xmm3,-0x27d0(%rbp)
    2c10:	ff 
    2c11:	c5 fb 11 95 38 d8 ff 	vmovsd %xmm2,-0x27c8(%rbp)
    2c18:	ff 
    2c19:	e8 22 5c 00 00       	callq  8840 <_ZNSt23mersenne_twister_engineImLm32ELm624ELm397ELm31ELm2567483615ELm11ELm4294967295ELm7ELm2636928640ELm15ELm4022730752ELm18ELm1812433253EE11_M_gen_randEv>
    2c1e:	c5 fb 10 9d 30 d8 ff 	vmovsd -0x27d0(%rbp),%xmm3
    2c25:	ff 
    2c26:	c5 fb 10 95 38 d8 ff 	vmovsd -0x27c8(%rbp),%xmm2
    2c2d:	ff 
    2c2e:	48 8b 4d c0          	mov    -0x40(%rbp),%rcx
    2c32:	e9 f3 fa ff ff       	jmpq   272a <_Z3addii+0x34a>
    2c37:	66 0f 1f 84 00 00 00 	nopw   0x0(%rax,%rax,1)
    2c3e:	00 00 
    2c40:	48 89 c1             	mov    %rax,%rcx
    2c43:	83 e0 01             	and    $0x1,%eax
    2c46:	c5 d1 57 ed          	vxorpd %xmm5,%xmm5,%xmm5
    2c4a:	48 d1 e9             	shr    %rcx
    2c4d:	48 09 c1             	or     %rax,%rcx
    2c50:	c4 e1 d3 2a c1       	vcvtsi2sd %rcx,%xmm5,%xmm0
    2c55:	c5 fb 58 c0          	vaddsd %xmm0,%xmm0,%xmm0
    2c59:	e9 2d fa ff ff       	jmpq   268b <_Z3addii+0x2ab>
    2c5e:	66 90                	xchg   %ax,%ax
    2c60:	48 89 c2             	mov    %rax,%rdx
    2c63:	83 e0 01             	and    $0x1,%eax
    2c66:	c5 d9 57 e4          	vxorpd %xmm4,%xmm4,%xmm4
    2c6a:	48 d1 ea             	shr    %rdx
    2c6d:	48 09 c2             	or     %rax,%rdx
    2c70:	c4 e1 db 2a c2       	vcvtsi2sd %rdx,%xmm4,%xmm0
    2c75:	c5 fb 58 d0          	vaddsd %xmm0,%xmm0,%xmm2
    2c79:	48 81 f9 6f 02 00 00 	cmp    $0x26f,%rcx
    2c80:	0f 86 b0 f9 ff ff    	jbe    2636 <_Z3addii+0x256>
    2c86:	48 89 df             	mov    %rbx,%rdi
    2c89:	c5 fb 11 95 38 d8 ff 	vmovsd %xmm2,-0x27c8(%rbp)
    2c90:	ff 
    2c91:	e8 aa 5b 00 00       	callq  8840 <_ZNSt23mersenne_twister_engineImLm32ELm624ELm397ELm31ELm2567483615ELm11ELm4294967295ELm7ELm2636928640ELm15ELm4022730752ELm18ELm1812433253EE11_M_gen_randEv>
    2c96:	c5 fb 10 95 38 d8 ff 	vmovsd -0x27c8(%rbp),%xmm2
    2c9d:	ff 
    2c9e:	48 8b 4d c0          	mov    -0x40(%rbp),%rcx
    2ca2:	e9 8f f9 ff ff       	jmpq   2636 <_Z3addii+0x256>
    2ca7:	66 0f 1f 84 00 00 00 	nopw   0x0(%rax,%rax,1)
    2cae:	00 00 
    2cb0:	48 89 c1             	mov    %rax,%rcx
    2cb3:	83 e0 01             	and    $0x1,%eax
    2cb6:	c5 c1 57 ff          	vxorpd %xmm7,%xmm7,%xmm7
    2cba:	48 d1 e9             	shr    %rcx
    2cbd:	48 09 c1             	or     %rax,%rcx
    2cc0:	c4 e1 c3 2a c1       	vcvtsi2sd %rcx,%xmm7,%xmm0
    2cc5:	c5 fb 58 c0          	vaddsd %xmm0,%xmm0,%xmm0
    2cc9:	e9 c1 f8 ff ff       	jmpq   258f <_Z3addii+0x1af>
    2cce:	66 90                	xchg   %ax,%ax
    2cd0:	48 89 df             	mov    %rbx,%rdi
    2cd3:	c5 fb 11 95 38 d8 ff 	vmovsd %xmm2,-0x27c8(%rbp)
    2cda:	ff 
    2cdb:	e8 60 5b 00 00       	callq  8840 <_ZNSt23mersenne_twister_engineImLm32ELm624ELm397ELm31ELm2567483615ELm11ELm4294967295ELm7ELm2636928640ELm15ELm4022730752ELm18ELm1812433253EE11_M_gen_randEv>
    2ce0:	c5 fb 10 95 38 d8 ff 	vmovsd -0x27c8(%rbp),%xmm2
    2ce7:	ff 
    2ce8:	48 8b 55 c0          	mov    -0x40(%rbp),%rdx
    2cec:	e9 d3 f9 ff ff       	jmpq   26c4 <_Z3addii+0x2e4>
    2cf1:	66 66 2e 0f 1f 84 00 	data16 nopw %cs:0x0(%rax,%rax,1)
    2cf8:	00 00 00 00 
    2cfc:	0f 1f 40 00          	nopl   0x0(%rax)
    2d00:	48 89 df             	mov    %rbx,%rdi
    2d03:	e8 38 5b 00 00       	callq  8840 <_ZNSt23mersenne_twister_engineImLm32ELm624ELm397ELm31ELm2567483615ELm11ELm4294967295ELm7ELm2636928640ELm15ELm4022730752ELm18ELm1812433253EE11_M_gen_randEv>
    2d08:	48 8b 55 c0          	mov    -0x40(%rbp),%rdx
    2d0c:	e9 bf f8 ff ff       	jmpq   25d0 <_Z3addii+0x1f0>
    2d11:	66 66 2e 0f 1f 84 00 	data16 nopw %cs:0x0(%rax,%rax,1)
    2d18:	00 00 00 00 
    2d1c:	0f 1f 40 00          	nopl   0x0(%rax)
    2d20:	48 89 df             	mov    %rbx,%rdi
    2d23:	c5 fb 11 95 30 d8 ff 	vmovsd %xmm2,-0x27d0(%rbp)
    2d2a:	ff 
    2d2b:	c5 fb 11 9d 38 d8 ff 	vmovsd %xmm3,-0x27c8(%rbp)
    2d32:	ff 
    2d33:	e8 08 5b 00 00       	callq  8840 <_ZNSt23mersenne_twister_engineImLm32ELm624ELm397ELm31ELm2567483615ELm11ELm4294967295ELm7ELm2636928640ELm15ELm4022730752ELm18ELm1812433253EE11_M_gen_randEv>
    2d38:	c5 fb 10 95 30 d8 ff 	vmovsd -0x27d0(%rbp),%xmm2
    2d3f:	ff 
    2d40:	c5 fb 10 9d 38 d8 ff 	vmovsd -0x27c8(%rbp),%xmm3
    2d47:	ff 
    2d48:	48 8b 55 c0          	mov    -0x40(%rbp),%rdx
    2d4c:	e9 66 fb ff ff       	jmpq   28b7 <_Z3addii+0x4d7>
    2d51:	66 66 2e 0f 1f 84 00 	data16 nopw %cs:0x0(%rax,%rax,1)
    2d58:	00 00 00 00 
    2d5c:	0f 1f 40 00          	nopl   0x0(%rax)
    2d60:	48 89 df             	mov    %rbx,%rdi
    2d63:	c5 fb 11 95 38 d8 ff 	vmovsd %xmm2,-0x27c8(%rbp)
    2d6a:	ff 
    2d6b:	e8 d0 5a 00 00       	callq  8840 <_ZNSt23mersenne_twister_engineImLm32ELm624ELm397ELm31ELm2567483615ELm11ELm4294967295ELm7ELm2636928640ELm15ELm4022730752ELm18ELm1812433253EE11_M_gen_randEv>
    2d70:	c5 fb 10 95 38 d8 ff 	vmovsd -0x27c8(%rbp),%xmm2
    2d77:	ff 
    2d78:	48 8b 55 c0          	mov    -0x40(%rbp),%rdx
    2d7c:	e9 43 fa ff ff       	jmpq   27c4 <_Z3addii+0x3e4>
    2d81:	66 66 2e 0f 1f 84 00 	data16 nopw %cs:0x0(%rax,%rax,1)
    2d88:	00 00 00 00 
    2d8c:	0f 1f 40 00          	nopl   0x0(%rax)
    2d90:	48 89 df             	mov    %rbx,%rdi
    2d93:	e8 a8 5a 00 00       	callq  8840 <_ZNSt23mersenne_twister_engineImLm32ELm624ELm397ELm31ELm2567483615ELm11ELm4294967295ELm7ELm2636928640ELm15ELm4022730752ELm18ELm1812433253EE11_M_gen_randEv>
    2d98:	48 8b 45 c0          	mov    -0x40(%rbp),%rax
    2d9c:	e9 7c fc ff ff       	jmpq   2a1d <_Z3addii+0x63d>
    2da1:	66 66 2e 0f 1f 84 00 	data16 nopw %cs:0x0(%rax,%rax,1)
    2da8:	00 00 00 00 
    2dac:	0f 1f 40 00          	nopl   0x0(%rax)
    2db0:	4c 8d ad 70 d8 ff ff 	lea    -0x2790(%rbp),%r13
    2db7:	48 8d 8d 90 d8 ff ff 	lea    -0x2770(%rbp),%rcx
    2dbe:	4c 89 e7             	mov    %r12,%rdi
    2dc1:	4c 89 ea             	mov    %r13,%rdx
    2dc4:	e8 e7 11 00 00       	callq  3fb0 <_ZNSt6vectorISt4pairId11BoundingBoxESaIS2_EE17_M_realloc_insertIJRdRS1_EEEvN9__gnu_cxx17__normal_iteratorIPS2_S4_EEDpOT_>
    2dc9:	41 ff ce             	dec    %r14d
    2dcc:	0f 85 3b fc ff ff    	jne    2a0d <_Z3addii+0x62d>
    2dd2:	4c 8d b5 48 d8 ff ff 	lea    -0x27b8(%rbp),%r14
    2dd9:	4c 89 e6             	mov    %r12,%rsi
    2ddc:	4c 89 f7             	mov    %r14,%rdi
    2ddf:	e8 7c 97 00 00       	callq  c560 <_ZN6PRTreeIdLi6EEC1ERSt6vectorISt4pairId11BoundingBoxESaIS4_EE>
    2de4:	e8 57 f2 ff ff       	callq  2040 <_ZNSt6chrono3_V212system_clock3nowEv@plt>
    2de9:	4c 8b 25 08 d5 00 00 	mov    0xd508(%rip),%r12        # 102f8 <_ZZNSt19_Sp_make_shared_tag5_S_tiEvE5__tag+0xf8>
    2df0:	31 db                	xor    %ebx,%ebx
    2df2:	4c 8d ad 70 d8 ff ff 	lea    -0x2790(%rbp),%r13
    2df9:	48 89 85 38 d8 ff ff 	mov    %rax,-0x27c8(%rbp)
    2e00:	48 8b 95 50 d8 ff ff 	mov    -0x27b0(%rbp),%rdx
    2e07:	4c 89 f6             	mov    %r14,%rsi
    2e0a:	4c 89 ef             	mov    %r13,%rdi
    2e0d:	48 01 da             	add    %rbx,%rdx
    2e10:	48 83 c2 08          	add    $0x8,%rdx
    2e14:	e8 c7 4f 00 00       	callq  7de0 <_ZN6PRTreeIdLi6EEclER11BoundingBox>
    2e19:	48 8b bd 70 d8 ff ff 	mov    -0x2790(%rbp),%rdi
    2e20:	48 8b 85 78 d8 ff ff 	mov    -0x2788(%rbp),%rax
    2e27:	48 29 f8             	sub    %rdi,%rax
    2e2a:	48 c1 f8 03          	sar    $0x3,%rax
    2e2e:	0f 88 7c 02 00 00    	js     30b0 <_Z3addii+0xcd0>
    2e34:	c5 d9 57 e4          	vxorpd %xmm4,%xmm4,%xmm4
    2e38:	c4 e1 db 2a c0       	vcvtsi2sd %rax,%xmm4,%xmm0
    2e3d:	c4 c1 f9 6e fc       	vmovq  %r12,%xmm7
    2e42:	c5 c3 58 f0          	vaddsd %xmm0,%xmm7,%xmm6
    2e46:	c4 c1 f9 7e f4       	vmovq  %xmm6,%r12
    2e4b:	48 85 ff             	test   %rdi,%rdi
    2e4e:	0f 84 3c 02 00 00    	je     3090 <_Z3addii+0xcb0>
    2e54:	48 8b b5 80 d8 ff ff 	mov    -0x2780(%rbp),%rsi
    2e5b:	48 83 c3 28          	add    $0x28,%rbx
    2e5f:	48 29 fe             	sub    %rdi,%rsi
    2e62:	e8 a9 f2 ff ff       	callq  2110 <_ZdlPvm@plt>
    2e67:	48 81 fb 40 9c 00 00 	cmp    $0x9c40,%rbx
    2e6e:	75 90                	jne    2e00 <_Z3addii+0xa20>
    2e70:	e8 cb f1 ff ff       	callq  2040 <_ZNSt6chrono3_V212system_clock3nowEv@plt>
    2e75:	48 2b 85 38 d8 ff ff 	sub    -0x27c8(%rbp),%rax
    2e7c:	48 ba db 34 b6 d7 82 	movabs $0x431bde82d7b634db,%rdx
    2e83:	de 1b 43 
    2e86:	48 8d 35 fd d1 00 00 	lea    0xd1fd(%rip),%rsi        # 1008a <_IO_stdin_used+0x8a>
    2e8d:	48 8d 3d ac 01 01 00 	lea    0x101ac(%rip),%rdi        # 13040 <_ZSt4cout@@GLIBCXX_3.4>
    2e94:	48 89 c1             	mov    %rax,%rcx
    2e97:	48 f7 ea             	imul   %rdx
    2e9a:	48 c1 f9 3f          	sar    $0x3f,%rcx
    2e9e:	48 c1 fa 12          	sar    $0x12,%rdx
    2ea2:	48 29 ca             	sub    %rcx,%rdx
    2ea5:	49 89 d5             	mov    %rdx,%r13
    2ea8:	ba 0b 00 00 00       	mov    $0xb,%edx
    2ead:	e8 7e f2 ff ff       	callq  2130 <_ZSt16__ostream_insertIcSt11char_traitsIcEERSt13basic_ostreamIT_T0_ES6_PKS3_l@plt>
    2eb2:	4c 89 ee             	mov    %r13,%rsi
    2eb5:	48 8d 3d 84 01 01 00 	lea    0x10184(%rip),%rdi        # 13040 <_ZSt4cout@@GLIBCXX_3.4>
    2ebc:	e8 2f f2 ff ff       	callq  20f0 <_ZNSo9_M_insertIlEERSoT_@plt>
    2ec1:	48 89 c7             	mov    %rax,%rdi
    2ec4:	ba 06 00 00 00       	mov    $0x6,%edx
    2ec9:	48 8d 35 c6 d1 00 00 	lea    0xd1c6(%rip),%rsi        # 10096 <_IO_stdin_used+0x96>
    2ed0:	e8 5b f2 ff ff       	callq  2130 <_ZSt16__ostream_insertIcSt11char_traitsIcEERSt13basic_ostreamIT_T0_ES6_PKS3_l@plt>
    2ed5:	c4 c1 f9 6e e4       	vmovq  %r12,%xmm4
    2eda:	c5 db 59 05 4e d4 00 	vmulsd 0xd44e(%rip),%xmm4,%xmm0        # 10330 <_ZZNSt19_Sp_make_shared_tag5_S_tiEvE5__tag+0x130>
    2ee1:	00 
    2ee2:	48 8d 3d 57 01 01 00 	lea    0x10157(%rip),%rdi        # 13040 <_ZSt4cout@@GLIBCXX_3.4>
    2ee9:	e8 b2 f2 ff ff       	callq  21a0 <_ZNSo9_M_insertIdEERSoT_@plt>
    2eee:	49 89 c4             	mov    %rax,%r12
    2ef1:	48 8b 00             	mov    (%rax),%rax
    2ef4:	48 8b 40 e8          	mov    -0x18(%rax),%rax
    2ef8:	4d 8b ac 04 f0 00 00 	mov    0xf0(%r12,%rax,1),%r13
    2eff:	00 
    2f00:	4d 85 ed             	test   %r13,%r13
    2f03:	0f 84 f7 01 00 00    	je     3100 <_Z3addii+0xd20>
    2f09:	41 80 7d 38 00       	cmpb   $0x0,0x38(%r13)
    2f0e:	0f 84 ba 01 00 00    	je     30ce <_Z3addii+0xcee>
    2f14:	41 0f be 75 43       	movsbl 0x43(%r13),%esi
    2f19:	4c 89 e7             	mov    %r12,%rdi
    2f1c:	e8 0f f1 ff ff       	callq  2030 <_ZNSo3putEc@plt>
    2f21:	48 89 c7             	mov    %rax,%rdi
    2f24:	e8 77 f1 ff ff       	callq  20a0 <_ZNSo5flushEv@plt>
    2f29:	4c 8b a5 48 d8 ff ff 	mov    -0x27b8(%rbp),%r12
    2f30:	44 8b ad 24 d8 ff ff 	mov    -0x27dc(%rbp),%r13d
    2f37:	44 03 ad 20 d8 ff ff 	add    -0x27e0(%rbp),%r13d
    2f3e:	4d 85 e4             	test   %r12,%r12
    2f41:	0f 84 e1 00 00 00    	je     3028 <_Z3addii+0xc48>
    2f47:	4d 8b 74 24 30       	mov    0x30(%r12),%r14
    2f4c:	4d 85 f6             	test   %r14,%r14
    2f4f:	74 4a                	je     2f9b <_Z3addii+0xbbb>
    2f51:	49 8d 7e 30          	lea    0x30(%r14),%rdi
    2f55:	e8 a6 0b 00 00       	callq  3b00 <_ZNSt10unique_ptrI10PRTreeNodeIdLi6EESt14default_deleteIS1_EED1Ev>
    2f5a:	49 8d 7e 28          	lea    0x28(%r14),%rdi
    2f5e:	e8 9d 0b 00 00       	callq  3b00 <_ZNSt10unique_ptrI10PRTreeNodeIdLi6EESt14default_deleteIS1_EED1Ev>
    2f63:	49 8b 5e 20          	mov    0x20(%r14),%rbx
    2f67:	48 85 db             	test   %rbx,%rbx
    2f6a:	74 22                	je     2f8e <_Z3addii+0xbae>
    2f6c:	48 8b 7b 28          	mov    0x28(%rbx),%rdi
    2f70:	48 85 ff             	test   %rdi,%rdi
    2f73:	74 0c                	je     2f81 <_Z3addii+0xba1>
    2f75:	48 8b 73 38          	mov    0x38(%rbx),%rsi
    2f79:	48 29 fe             	sub    %rdi,%rsi
    2f7c:	e8 8f f1 ff ff       	callq  2110 <_ZdlPvm@plt>
    2f81:	be 40 00 00 00       	mov    $0x40,%esi
    2f86:	48 89 df             	mov    %rbx,%rdi
    2f89:	e8 82 f1 ff ff       	callq  2110 <_ZdlPvm@plt>
    2f8e:	be 38 00 00 00       	mov    $0x38,%esi
    2f93:	4c 89 f7             	mov    %r14,%rdi
    2f96:	e8 75 f1 ff ff       	callq  2110 <_ZdlPvm@plt>
    2f9b:	4d 8b 74 24 28       	mov    0x28(%r12),%r14
    2fa0:	4d 85 f6             	test   %r14,%r14
    2fa3:	74 4a                	je     2fef <_Z3addii+0xc0f>
    2fa5:	49 8d 7e 30          	lea    0x30(%r14),%rdi
    2fa9:	e8 52 0b 00 00       	callq  3b00 <_ZNSt10unique_ptrI10PRTreeNodeIdLi6EESt14default_deleteIS1_EED1Ev>
    2fae:	49 8d 7e 28          	lea    0x28(%r14),%rdi
    2fb2:	e8 49 0b 00 00       	callq  3b00 <_ZNSt10unique_ptrI10PRTreeNodeIdLi6EESt14default_deleteIS1_EED1Ev>
    2fb7:	49 8b 5e 20          	mov    0x20(%r14),%rbx
    2fbb:	48 85 db             	test   %rbx,%rbx
    2fbe:	74 22                	je     2fe2 <_Z3addii+0xc02>
    2fc0:	48 8b 7b 28          	mov    0x28(%rbx),%rdi
    2fc4:	48 85 ff             	test   %rdi,%rdi
    2fc7:	74 0c                	je     2fd5 <_Z3addii+0xbf5>
    2fc9:	48 8b 73 38          	mov    0x38(%rbx),%rsi
    2fcd:	48 29 fe             	sub    %rdi,%rsi
    2fd0:	e8 3b f1 ff ff       	callq  2110 <_ZdlPvm@plt>
    2fd5:	be 40 00 00 00       	mov    $0x40,%esi
    2fda:	48 89 df             	mov    %rbx,%rdi
    2fdd:	e8 2e f1 ff ff       	callq  2110 <_ZdlPvm@plt>
    2fe2:	be 38 00 00 00       	mov    $0x38,%esi
    2fe7:	4c 89 f7             	mov    %r14,%rdi
    2fea:	e8 21 f1 ff ff       	callq  2110 <_ZdlPvm@plt>
    2fef:	4d 8b 74 24 20       	mov    0x20(%r12),%r14
    2ff4:	4d 85 f6             	test   %r14,%r14
    2ff7:	74 22                	je     301b <_Z3addii+0xc3b>
    2ff9:	49 8b 7e 28          	mov    0x28(%r14),%rdi
    2ffd:	48 85 ff             	test   %rdi,%rdi
    3000:	74 0c                	je     300e <_Z3addii+0xc2e>
    3002:	49 8b 76 38          	mov    0x38(%r14),%rsi
    3006:	48 29 fe             	sub    %rdi,%rsi
    3009:	e8 02 f1 ff ff       	callq  2110 <_ZdlPvm@plt>
    300e:	be 40 00 00 00       	mov    $0x40,%esi
    3013:	4c 89 f7             	mov    %r14,%rdi
    3016:	e8 f5 f0 ff ff       	callq  2110 <_ZdlPvm@plt>
    301b:	be 38 00 00 00       	mov    $0x38,%esi
    3020:	4c 89 e7             	mov    %r12,%rdi
    3023:	e8 e8 f0 ff ff       	callq  2110 <_ZdlPvm@plt>
    3028:	48 8b bd 50 d8 ff ff 	mov    -0x27b0(%rbp),%rdi
    302f:	48 85 ff             	test   %rdi,%rdi
    3032:	74 0f                	je     3043 <_Z3addii+0xc63>
    3034:	48 8b b5 60 d8 ff ff 	mov    -0x27a0(%rbp),%rsi
    303b:	48 29 fe             	sub    %rdi,%rsi
    303e:	e8 cd f0 ff ff       	callq  2110 <_ZdlPvm@plt>
    3043:	4c 89 ff             	mov    %r15,%rdi
    3046:	e8 95 f0 ff ff       	callq  20e0 <_ZNSt13random_device7_M_finiEv@plt>
    304b:	48 8b 45 c8          	mov    -0x38(%rbp),%rax
    304f:	64 48 2b 04 25 28 00 	sub    %fs:0x28,%rax
    3056:	00 00 
    3058:	0f 85 a7 00 00 00    	jne    3105 <_Z3addii+0xd25>
    305e:	48 81 c4 c0 27 00 00 	add    $0x27c0,%rsp
    3065:	44 89 e8             	mov    %r13d,%eax
    3068:	5b                   	pop    %rbx
    3069:	41 5a                	pop    %r10
    306b:	41 5c                	pop    %r12
    306d:	41 5d                	pop    %r13
    306f:	41 5e                	pop    %r14
    3071:	41 5f                	pop    %r15
    3073:	5d                   	pop    %rbp
    3074:	49 8d 62 f8          	lea    -0x8(%r10),%rsp
    3078:	c3                   	retq   
    3079:	0f 1f 80 00 00 00 00 	nopl   0x0(%rax)
    3080:	c5 fb 10 05 80 d2 00 	vmovsd 0xd280(%rip),%xmm0        # 10308 <_ZZNSt19_Sp_make_shared_tag5_S_tiEvE5__tag+0x108>
    3087:	00 
    3088:	e9 04 f9 ff ff       	jmpq   2991 <_Z3addii+0x5b1>
    308d:	0f 1f 00             	nopl   (%rax)
    3090:	48 83 c3 28          	add    $0x28,%rbx
    3094:	48 81 fb 40 9c 00 00 	cmp    $0x9c40,%rbx
    309b:	0f 85 5f fd ff ff    	jne    2e00 <_Z3addii+0xa20>
    30a1:	e9 ca fd ff ff       	jmpq   2e70 <_Z3addii+0xa90>
    30a6:	66 2e 0f 1f 84 00 00 	nopw   %cs:0x0(%rax,%rax,1)
    30ad:	00 00 00 
    30b0:	48 89 c2             	mov    %rax,%rdx
    30b3:	83 e0 01             	and    $0x1,%eax
    30b6:	c5 c1 57 ff          	vxorpd %xmm7,%xmm7,%xmm7
    30ba:	48 d1 ea             	shr    %rdx
    30bd:	48 09 c2             	or     %rax,%rdx
    30c0:	c4 e1 c3 2a c2       	vcvtsi2sd %rdx,%xmm7,%xmm0
    30c5:	c5 fb 58 c0          	vaddsd %xmm0,%xmm0,%xmm0
    30c9:	e9 6f fd ff ff       	jmpq   2e3d <_Z3addii+0xa5d>
    30ce:	4c 89 ef             	mov    %r13,%rdi
    30d1:	e8 6a f0 ff ff       	callq  2140 <_ZNKSt5ctypeIcE13_M_widen_initEv@plt>
    30d6:	49 8b 45 00          	mov    0x0(%r13),%rax
    30da:	48 8d 15 4f 00 00 00 	lea    0x4f(%rip),%rdx        # 3130 <_ZNKSt5ctypeIcE8do_widenEc>
    30e1:	be 0a 00 00 00       	mov    $0xa,%esi
    30e6:	48 8b 40 30          	mov    0x30(%rax),%rax
    30ea:	48 39 d0             	cmp    %rdx,%rax
    30ed:	0f 84 26 fe ff ff    	je     2f19 <_Z3addii+0xb39>
    30f3:	4c 89 ef             	mov    %r13,%rdi
    30f6:	ff d0                	callq  *%rax
    30f8:	0f be f0             	movsbl %al,%esi
    30fb:	e9 19 fe ff ff       	jmpq   2f19 <_Z3addii+0xb39>
    3100:	e8 4b f0 ff ff       	callq  2150 <_ZSt16__throw_bad_castv@plt>
    3105:	e8 16 f0 ff ff       	callq  2120 <__stack_chk_fail@plt>
    310a:	49 89 c5             	mov    %rax,%r13
    310d:	e9 fe f0 ff ff       	jmpq   2210 <_Z3addii.cold>
    3112:	48 89 c3             	mov    %rax,%rbx
    3115:	c5 f8 77             	vzeroupper 
    3118:	e9 40 f1 ff ff       	jmpq   225d <_Z3addii.cold+0x4d>
    311d:	48 89 c3             	mov    %rax,%rbx
    3120:	c5 f8 77             	vzeroupper 
    3123:	e9 1a f1 ff ff       	jmpq   2242 <_Z3addii.cold+0x32>
    3128:	48 89 c3             	mov    %rax,%rbx
    312b:	e9 07 f1 ff ff       	jmpq   2237 <_Z3addii.cold+0x27>

0000000000003130 <_ZNKSt5ctypeIcE8do_widenEc>:
    3130:	89 f0                	mov    %esi,%eax
    3132:	c3                   	retq   
    3133:	66 2e 0f 1f 84 00 00 	nopw   %cs:0x0(%rax,%rax,1)
    313a:	00 00 00 
    313d:	0f 1f 00             	nopl   (%rax)

0000000000003140 <_ZNSt23_Sp_counted_ptr_inplaceI16PseudoPRTreeNodeIdLi6EESaIS1_ELN9__gnu_cxx12_Lock_policyE2EED1Ev>:
    3140:	c3                   	retq   
    3141:	66 2e 0f 1f 84 00 00 	nopw   %cs:0x0(%rax,%rax,1)
    3148:	00 00 00 
    314b:	0f 1f 44 00 00       	nopl   0x0(%rax,%rax,1)

0000000000003150 <_ZNSt23_Sp_counted_ptr_inplaceI16PseudoPRTreeNodeIiLi6EESaIS1_ELN9__gnu_cxx12_Lock_policyE2EED1Ev>:
    3150:	c3                   	retq   
    3151:	66 2e 0f 1f 84 00 00 	nopw   %cs:0x0(%rax,%rax,1)
    3158:	00 00 00 
    315b:	0f 1f 44 00 00       	nopl   0x0(%rax,%rax,1)

0000000000003160 <_ZNSt23_Sp_counted_ptr_inplaceI16PseudoPRTreeNodeIiLi6EESaIS1_ELN9__gnu_cxx12_Lock_policyE2EED0Ev>:
    3160:	be 30 01 00 00       	mov    $0x130,%esi
    3165:	e9 a6 ef ff ff       	jmpq   2110 <_ZdlPvm@plt>
    316a:	66 0f 1f 44 00 00    	nopw   0x0(%rax,%rax,1)

0000000000003170 <_ZNSt23_Sp_counted_ptr_inplaceI16PseudoPRTreeNodeIdLi6EESaIS1_ELN9__gnu_cxx12_Lock_policyE2EED0Ev>:
    3170:	be 30 01 00 00       	mov    $0x130,%esi
    3175:	e9 96 ef ff ff       	jmpq   2110 <_ZdlPvm@plt>
    317a:	66 0f 1f 44 00 00    	nopw   0x0(%rax,%rax,1)

0000000000003180 <_ZNSt23_Sp_counted_ptr_inplaceI16PseudoPRTreeNodeIdLi6EESaIS1_ELN9__gnu_cxx12_Lock_policyE2EE10_M_destroyEv>:
    3180:	be 30 01 00 00       	mov    $0x130,%esi
    3185:	e9 86 ef ff ff       	jmpq   2110 <_ZdlPvm@plt>
    318a:	66 0f 1f 44 00 00    	nopw   0x0(%rax,%rax,1)

0000000000003190 <_ZNSt23_Sp_counted_ptr_inplaceI16PseudoPRTreeNodeIiLi6EESaIS1_ELN9__gnu_cxx12_Lock_policyE2EE10_M_destroyEv>:
    3190:	be 30 01 00 00       	mov    $0x130,%esi
    3195:	e9 76 ef ff ff       	jmpq   2110 <_ZdlPvm@plt>
    319a:	66 0f 1f 44 00 00    	nopw   0x0(%rax,%rax,1)

00000000000031a0 <_ZNSt23_Sp_counted_ptr_inplaceI16PseudoPRTreeNodeIiLi6EESaIS1_ELN9__gnu_cxx12_Lock_policyE2EE14_M_get_deleterERKSt9type_info>:
    31a0:	48 8d 05 59 d0 00 00 	lea    0xd059(%rip),%rax        # 10200 <_ZZNSt19_Sp_make_shared_tag5_S_tiEvE5__tag>
    31a7:	41 54                	push   %r12
    31a9:	4c 8d 67 10          	lea    0x10(%rdi),%r12
    31ad:	48 39 c6             	cmp    %rax,%rsi
    31b0:	74 25                	je     31d7 <_ZNSt23_Sp_counted_ptr_inplaceI16PseudoPRTreeNodeIiLi6EESaIS1_ELN9__gnu_cxx12_Lock_policyE2EE14_M_get_deleterERKSt9type_info+0x37>
    31b2:	48 8b 7e 08          	mov    0x8(%rsi),%rdi
    31b6:	48 8d 35 13 cf 00 00 	lea    0xcf13(%rip),%rsi        # 100d0 <_ZTSSt19_Sp_make_shared_tag>
    31bd:	48 39 f7             	cmp    %rsi,%rdi
    31c0:	74 15                	je     31d7 <_ZNSt23_Sp_counted_ptr_inplaceI16PseudoPRTreeNodeIiLi6EESaIS1_ELN9__gnu_cxx12_Lock_policyE2EE14_M_get_deleterERKSt9type_info+0x37>
    31c2:	80 3f 2a             	cmpb   $0x2a,(%rdi)
    31c5:	74 19                	je     31e0 <_ZNSt23_Sp_counted_ptr_inplaceI16PseudoPRTreeNodeIiLi6EESaIS1_ELN9__gnu_cxx12_Lock_policyE2EE14_M_get_deleterERKSt9type_info+0x40>
    31c7:	e8 a4 ef ff ff       	callq  2170 <strcmp@plt>
    31cc:	85 c0                	test   %eax,%eax
    31ce:	b8 00 00 00 00       	mov    $0x0,%eax
    31d3:	4c 0f 45 e0          	cmovne %rax,%r12
    31d7:	4c 89 e0             	mov    %r12,%rax
    31da:	41 5c                	pop    %r12
    31dc:	c3                   	retq   
    31dd:	0f 1f 00             	nopl   (%rax)
    31e0:	45 31 e4             	xor    %r12d,%r12d
    31e3:	4c 89 e0             	mov    %r12,%rax
    31e6:	41 5c                	pop    %r12
    31e8:	c3                   	retq   
    31e9:	0f 1f 80 00 00 00 00 	nopl   0x0(%rax)

00000000000031f0 <_ZNSt23_Sp_counted_ptr_inplaceI16PseudoPRTreeNodeIdLi6EESaIS1_ELN9__gnu_cxx12_Lock_policyE2EE14_M_get_deleterERKSt9type_info>:
    31f0:	48 8d 05 09 d0 00 00 	lea    0xd009(%rip),%rax        # 10200 <_ZZNSt19_Sp_make_shared_tag5_S_tiEvE5__tag>
    31f7:	41 54                	push   %r12
    31f9:	4c 8d 67 10          	lea    0x10(%rdi),%r12
    31fd:	48 39 c6             	cmp    %rax,%rsi
    3200:	74 25                	je     3227 <_ZNSt23_Sp_counted_ptr_inplaceI16PseudoPRTreeNodeIdLi6EESaIS1_ELN9__gnu_cxx12_Lock_policyE2EE14_M_get_deleterERKSt9type_info+0x37>
    3202:	48 8b 7e 08          	mov    0x8(%rsi),%rdi
    3206:	48 8d 35 c3 ce 00 00 	lea    0xcec3(%rip),%rsi        # 100d0 <_ZTSSt19_Sp_make_shared_tag>
    320d:	48 39 f7             	cmp    %rsi,%rdi
    3210:	74 15                	je     3227 <_ZNSt23_Sp_counted_ptr_inplaceI16PseudoPRTreeNodeIdLi6EESaIS1_ELN9__gnu_cxx12_Lock_policyE2EE14_M_get_deleterERKSt9type_info+0x37>
    3212:	80 3f 2a             	cmpb   $0x2a,(%rdi)
    3215:	74 19                	je     3230 <_ZNSt23_Sp_counted_ptr_inplaceI16PseudoPRTreeNodeIdLi6EESaIS1_ELN9__gnu_cxx12_Lock_policyE2EE14_M_get_deleterERKSt9type_info+0x40>
    3217:	e8 54 ef ff ff       	callq  2170 <strcmp@plt>
    321c:	85 c0                	test   %eax,%eax
    321e:	b8 00 00 00 00       	mov    $0x0,%eax
    3223:	4c 0f 45 e0          	cmovne %rax,%r12
    3227:	4c 89 e0             	mov    %r12,%rax
    322a:	41 5c                	pop    %r12
    322c:	c3                   	retq   
    322d:	0f 1f 00             	nopl   (%rax)
    3230:	45 31 e4             	xor    %r12d,%r12d
    3233:	4c 89 e0             	mov    %r12,%rax
    3236:	41 5c                	pop    %r12
    3238:	c3                   	retq   
    3239:	0f 1f 80 00 00 00 00 	nopl   0x0(%rax)

0000000000003240 <_ZNSt5dequeISt10shared_ptrI16PseudoPRTreeNodeIdLi6EEESaIS3_EE12emplace_backIJRS3_EEES7_DpOT_.isra.0>:
    3240:	55                   	push   %rbp
    3241:	48 89 e5             	mov    %rsp,%rbp
    3244:	41 57                	push   %r15
    3246:	41 56                	push   %r14
    3248:	41 55                	push   %r13
    324a:	41 54                	push   %r12
    324c:	49 89 f4             	mov    %rsi,%r12
    324f:	53                   	push   %rbx
    3250:	48 89 fb             	mov    %rdi,%rbx
    3253:	48 83 e4 e0          	and    $0xffffffffffffffe0,%rsp
    3257:	48 83 ec 20          	sub    $0x20,%rsp
    325b:	48 8b 4f 40          	mov    0x40(%rdi),%rcx
    325f:	48 8b 47 30          	mov    0x30(%rdi),%rax
    3263:	48 8d 51 f0          	lea    -0x10(%rcx),%rdx
    3267:	48 39 d0             	cmp    %rdx,%rax
    326a:	74 44                	je     32b0 <_ZNSt5dequeISt10shared_ptrI16PseudoPRTreeNodeIdLi6EEESaIS3_EE12emplace_backIJRS3_EEES7_DpOT_.isra.0+0x70>
    326c:	48 8b 16             	mov    (%rsi),%rdx
    326f:	48 89 10             	mov    %rdx,(%rax)
    3272:	48 8b 56 08          	mov    0x8(%rsi),%rdx
    3276:	48 89 50 08          	mov    %rdx,0x8(%rax)
    327a:	48 85 d2             	test   %rdx,%rdx
    327d:	74 11                	je     3290 <_ZNSt5dequeISt10shared_ptrI16PseudoPRTreeNodeIdLi6EEESaIS3_EE12emplace_backIJRS3_EEES7_DpOT_.isra.0+0x50>
    327f:	48 83 3d 41 fd 00 00 	cmpq   $0x0,0xfd41(%rip)        # 12fc8 <__pthread_key_create>
    3286:	00 
    3287:	0f 85 13 01 00 00    	jne    33a0 <_ZNSt5dequeISt10shared_ptrI16PseudoPRTreeNodeIdLi6EEESaIS3_EE12emplace_backIJRS3_EEES7_DpOT_.isra.0+0x160>
    328d:	ff 42 08             	incl   0x8(%rdx)
    3290:	48 83 c0 10          	add    $0x10,%rax
    3294:	48 89 43 30          	mov    %rax,0x30(%rbx)
    3298:	48 8d 65 d8          	lea    -0x28(%rbp),%rsp
    329c:	5b                   	pop    %rbx
    329d:	41 5c                	pop    %r12
    329f:	41 5d                	pop    %r13
    32a1:	41 5e                	pop    %r14
    32a3:	41 5f                	pop    %r15
    32a5:	5d                   	pop    %rbp
    32a6:	c3                   	retq   
    32a7:	66 0f 1f 84 00 00 00 	nopw   0x0(%rax,%rax,1)
    32ae:	00 00 
    32b0:	4c 8b 77 48          	mov    0x48(%rdi),%r14
    32b4:	48 8b 77 28          	mov    0x28(%rdi),%rsi
    32b8:	48 2b 47 38          	sub    0x38(%rdi),%rax
    32bc:	4d 89 f5             	mov    %r14,%r13
    32bf:	49 29 f5             	sub    %rsi,%r13
    32c2:	4c 89 e9             	mov    %r13,%rcx
    32c5:	48 c1 f8 04          	sar    $0x4,%rax
    32c9:	48 c1 f9 03          	sar    $0x3,%rcx
    32cd:	48 8d 51 ff          	lea    -0x1(%rcx),%rdx
    32d1:	48 c1 e2 05          	shl    $0x5,%rdx
    32d5:	48 01 c2             	add    %rax,%rdx
    32d8:	48 8b 47 20          	mov    0x20(%rdi),%rax
    32dc:	48 2b 47 10          	sub    0x10(%rdi),%rax
    32e0:	48 c1 f8 04          	sar    $0x4,%rax
    32e4:	48 01 d0             	add    %rdx,%rax
    32e7:	48 ba ff ff ff ff ff 	movabs $0x7ffffffffffffff,%rdx
    32ee:	ff ff 07 
    32f1:	48 39 d0             	cmp    %rdx,%rax
    32f4:	0f 84 e3 01 00 00    	je     34dd <_ZNSt5dequeISt10shared_ptrI16PseudoPRTreeNodeIdLi6EEESaIS3_EE12emplace_backIJRS3_EEES7_DpOT_.isra.0+0x29d>
    32fa:	48 8b 57 08          	mov    0x8(%rdi),%rdx
    32fe:	48 8b 3f             	mov    (%rdi),%rdi
    3301:	4c 89 f0             	mov    %r14,%rax
    3304:	48 29 f8             	sub    %rdi,%rax
    3307:	49 89 d0             	mov    %rdx,%r8
    330a:	48 c1 f8 03          	sar    $0x3,%rax
    330e:	49 29 c0             	sub    %rax,%r8
    3311:	49 83 f8 01          	cmp    $0x1,%r8
    3315:	0f 86 95 00 00 00    	jbe    33b0 <_ZNSt5dequeISt10shared_ptrI16PseudoPRTreeNodeIdLi6EEESaIS3_EE12emplace_backIJRS3_EEES7_DpOT_.isra.0+0x170>
    331b:	bf 00 02 00 00       	mov    $0x200,%edi
    3320:	e8 db ed ff ff       	callq  2100 <_Znwm@plt>
    3325:	49 89 46 08          	mov    %rax,0x8(%r14)
    3329:	49 8b 04 24          	mov    (%r12),%rax
    332d:	48 8b 53 30          	mov    0x30(%rbx),%rdx
    3331:	48 89 02             	mov    %rax,(%rdx)
    3334:	49 8b 44 24 08       	mov    0x8(%r12),%rax
    3339:	48 89 42 08          	mov    %rax,0x8(%rdx)
    333d:	48 85 c0             	test   %rax,%rax
    3340:	74 11                	je     3353 <_ZNSt5dequeISt10shared_ptrI16PseudoPRTreeNodeIdLi6EEESaIS3_EE12emplace_backIJRS3_EEES7_DpOT_.isra.0+0x113>
    3342:	48 83 3d 7e fc 00 00 	cmpq   $0x0,0xfc7e(%rip)        # 12fc8 <__pthread_key_create>
    3349:	00 
    334a:	0f 85 60 01 00 00    	jne    34b0 <_ZNSt5dequeISt10shared_ptrI16PseudoPRTreeNodeIdLi6EEESaIS3_EE12emplace_backIJRS3_EEES7_DpOT_.isra.0+0x270>
    3350:	ff 40 08             	incl   0x8(%rax)
    3353:	48 8b 53 48          	mov    0x48(%rbx),%rdx
    3357:	48 8b 42 08          	mov    0x8(%rdx),%rax
    335b:	48 83 c2 08          	add    $0x8,%rdx
    335f:	48 8d 88 00 02 00 00 	lea    0x200(%rax),%rcx
    3366:	c4 e1 f9 6e d0       	vmovq  %rax,%xmm2
    336b:	c4 e1 f9 6e c1       	vmovq  %rcx,%xmm0
    3370:	c4 e3 f9 22 ca 01    	vpinsrq $0x1,%rdx,%xmm0,%xmm1
    3376:	c5 e9 6c c2          	vpunpcklqdq %xmm2,%xmm2,%xmm0
    337a:	c4 e3 7d 38 c1 01    	vinserti128 $0x1,%xmm1,%ymm0,%ymm0
    3380:	c5 fe 7f 43 30       	vmovdqu %ymm0,0x30(%rbx)
    3385:	c5 f8 77             	vzeroupper 
    3388:	48 8d 65 d8          	lea    -0x28(%rbp),%rsp
    338c:	5b                   	pop    %rbx
    338d:	41 5c                	pop    %r12
    338f:	41 5d                	pop    %r13
    3391:	41 5e                	pop    %r14
    3393:	41 5f                	pop    %r15
    3395:	5d                   	pop    %rbp
    3396:	c3                   	retq   
    3397:	66 0f 1f 84 00 00 00 	nopw   0x0(%rax,%rax,1)
    339e:	00 00 
    33a0:	f0 ff 42 08          	lock incl 0x8(%rdx)
    33a4:	48 8b 47 30          	mov    0x30(%rdi),%rax
    33a8:	e9 e3 fe ff ff       	jmpq   3290 <_ZNSt5dequeISt10shared_ptrI16PseudoPRTreeNodeIdLi6EEESaIS3_EE12emplace_backIJRS3_EEES7_DpOT_.isra.0+0x50>
    33ad:	0f 1f 00             	nopl   (%rax)
    33b0:	4c 8d 79 02          	lea    0x2(%rcx),%r15
    33b4:	4b 8d 04 3f          	lea    (%r15,%r15,1),%rax
    33b8:	48 39 c2             	cmp    %rax,%rdx
    33bb:	0f 87 bf 00 00 00    	ja     3480 <_ZNSt5dequeISt10shared_ptrI16PseudoPRTreeNodeIdLi6EEESaIS3_EE12emplace_backIJRS3_EEES7_DpOT_.isra.0+0x240>
    33c1:	48 85 d2             	test   %rdx,%rdx
    33c4:	b8 01 00 00 00       	mov    $0x1,%eax
    33c9:	48 0f 45 c2          	cmovne %rdx,%rax
    33cd:	4c 8d 74 02 02       	lea    0x2(%rdx,%rax,1),%r14
    33d2:	48 b8 ff ff ff ff ff 	movabs $0xfffffffffffffff,%rax
    33d9:	ff ff 0f 
    33dc:	49 39 c6             	cmp    %rax,%r14
    33df:	0f 87 04 01 00 00    	ja     34e9 <_ZNSt5dequeISt10shared_ptrI16PseudoPRTreeNodeIdLi6EEESaIS3_EE12emplace_backIJRS3_EEES7_DpOT_.isra.0+0x2a9>
    33e5:	4a 8d 3c f5 00 00 00 	lea    0x0(,%r14,8),%rdi
    33ec:	00 
    33ed:	e8 0e ed ff ff       	callq  2100 <_Znwm@plt>
    33f2:	48 89 c6             	mov    %rax,%rsi
    33f5:	48 89 44 24 18       	mov    %rax,0x18(%rsp)
    33fa:	4c 89 f0             	mov    %r14,%rax
    33fd:	4c 29 f8             	sub    %r15,%rax
    3400:	48 d1 e8             	shr    %rax
    3403:	4c 8d 3c c6          	lea    (%rsi,%rax,8),%r15
    3407:	48 8b 43 48          	mov    0x48(%rbx),%rax
    340b:	48 8b 73 28          	mov    0x28(%rbx),%rsi
    340f:	48 8d 50 08          	lea    0x8(%rax),%rdx
    3413:	48 39 f2             	cmp    %rsi,%rdx
    3416:	74 0b                	je     3423 <_ZNSt5dequeISt10shared_ptrI16PseudoPRTreeNodeIdLi6EEESaIS3_EE12emplace_backIJRS3_EEES7_DpOT_.isra.0+0x1e3>
    3418:	48 29 f2             	sub    %rsi,%rdx
    341b:	4c 89 ff             	mov    %r15,%rdi
    341e:	e8 8d ed ff ff       	callq  21b0 <memmove@plt>
    3423:	48 8b 43 08          	mov    0x8(%rbx),%rax
    3427:	48 8b 3b             	mov    (%rbx),%rdi
    342a:	48 8d 34 c5 00 00 00 	lea    0x0(,%rax,8),%rsi
    3431:	00 
    3432:	e8 d9 ec ff ff       	callq  2110 <_ZdlPvm@plt>
    3437:	48 8b 44 24 18       	mov    0x18(%rsp),%rax
    343c:	4c 89 73 08          	mov    %r14,0x8(%rbx)
    3440:	48 89 03             	mov    %rax,(%rbx)
    3443:	c4 c1 7a 7e 1f       	vmovq  (%r15),%xmm3
    3448:	4f 8d 34 2f          	lea    (%r15,%r13,1),%r14
    344c:	4c 89 7b 28          	mov    %r15,0x28(%rbx)
    3450:	49 8b 07             	mov    (%r15),%rax
    3453:	4c 89 73 48          	mov    %r14,0x48(%rbx)
    3457:	48 05 00 02 00 00    	add    $0x200,%rax
    345d:	c4 e3 e1 22 c0 01    	vpinsrq $0x1,%rax,%xmm3,%xmm0
    3463:	c5 fa 7f 43 18       	vmovdqu %xmm0,0x18(%rbx)
    3468:	49 8b 06             	mov    (%r14),%rax
    346b:	48 89 43 38          	mov    %rax,0x38(%rbx)
    346f:	48 05 00 02 00 00    	add    $0x200,%rax
    3475:	48 89 43 40          	mov    %rax,0x40(%rbx)
    3479:	e9 9d fe ff ff       	jmpq   331b <_ZNSt5dequeISt10shared_ptrI16PseudoPRTreeNodeIdLi6EEESaIS3_EE12emplace_backIJRS3_EEES7_DpOT_.isra.0+0xdb>
    347e:	66 90                	xchg   %ax,%ax
    3480:	4c 29 fa             	sub    %r15,%rdx
    3483:	49 83 c6 08          	add    $0x8,%r14
    3487:	48 d1 ea             	shr    %rdx
    348a:	4c 8d 3c d7          	lea    (%rdi,%rdx,8),%r15
    348e:	4c 89 f2             	mov    %r14,%rdx
    3491:	48 29 f2             	sub    %rsi,%rdx
    3494:	4c 39 fe             	cmp    %r15,%rsi
    3497:	76 27                	jbe    34c0 <_ZNSt5dequeISt10shared_ptrI16PseudoPRTreeNodeIdLi6EEESaIS3_EE12emplace_backIJRS3_EEES7_DpOT_.isra.0+0x280>
    3499:	49 39 f6             	cmp    %rsi,%r14
    349c:	74 a5                	je     3443 <_ZNSt5dequeISt10shared_ptrI16PseudoPRTreeNodeIdLi6EEESaIS3_EE12emplace_backIJRS3_EEES7_DpOT_.isra.0+0x203>
    349e:	4c 89 ff             	mov    %r15,%rdi
    34a1:	e8 0a ed ff ff       	callq  21b0 <memmove@plt>
    34a6:	eb 9b                	jmp    3443 <_ZNSt5dequeISt10shared_ptrI16PseudoPRTreeNodeIdLi6EEESaIS3_EE12emplace_backIJRS3_EEES7_DpOT_.isra.0+0x203>
    34a8:	0f 1f 84 00 00 00 00 	nopl   0x0(%rax,%rax,1)
    34af:	00 
    34b0:	f0 ff 40 08          	lock incl 0x8(%rax)
    34b4:	e9 9a fe ff ff       	jmpq   3353 <_ZNSt5dequeISt10shared_ptrI16PseudoPRTreeNodeIdLi6EEESaIS3_EE12emplace_backIJRS3_EEES7_DpOT_.isra.0+0x113>
    34b9:	0f 1f 80 00 00 00 00 	nopl   0x0(%rax)
    34c0:	49 39 f6             	cmp    %rsi,%r14
    34c3:	0f 84 7a ff ff ff    	je     3443 <_ZNSt5dequeISt10shared_ptrI16PseudoPRTreeNodeIdLi6EEESaIS3_EE12emplace_backIJRS3_EEES7_DpOT_.isra.0+0x203>
    34c9:	49 8d 7d 08          	lea    0x8(%r13),%rdi
    34cd:	48 29 d7             	sub    %rdx,%rdi
    34d0:	4c 01 ff             	add    %r15,%rdi
    34d3:	e8 d8 ec ff ff       	callq  21b0 <memmove@plt>
    34d8:	e9 66 ff ff ff       	jmpq   3443 <_ZNSt5dequeISt10shared_ptrI16PseudoPRTreeNodeIdLi6EEESaIS3_EE12emplace_backIJRS3_EEES7_DpOT_.isra.0+0x203>
    34dd:	48 8d 3d 24 cb 00 00 	lea    0xcb24(%rip),%rdi        # 10008 <_IO_stdin_used+0x8>
    34e4:	e8 a7 eb ff ff       	callq  2090 <_ZSt20__throw_length_errorPKc@plt>
    34e9:	e8 62 eb ff ff       	callq  2050 <_ZSt17__throw_bad_allocv@plt>
    34ee:	66 90                	xchg   %ax,%ax

00000000000034f0 <_ZNSt5dequeISt10shared_ptrI16PseudoPRTreeNodeIiLi6EEESaIS3_EE12emplace_backIJRS3_EEES7_DpOT_.isra.0>:
    34f0:	55                   	push   %rbp
    34f1:	48 89 e5             	mov    %rsp,%rbp
    34f4:	41 57                	push   %r15
    34f6:	41 56                	push   %r14
    34f8:	41 55                	push   %r13
    34fa:	41 54                	push   %r12
    34fc:	49 89 f4             	mov    %rsi,%r12
    34ff:	53                   	push   %rbx
    3500:	48 89 fb             	mov    %rdi,%rbx
    3503:	48 83 e4 e0          	and    $0xffffffffffffffe0,%rsp
    3507:	48 83 ec 20          	sub    $0x20,%rsp
    350b:	48 8b 4f 40          	mov    0x40(%rdi),%rcx
    350f:	48 8b 47 30          	mov    0x30(%rdi),%rax
    3513:	48 8d 51 f0          	lea    -0x10(%rcx),%rdx
    3517:	48 39 d0             	cmp    %rdx,%rax
    351a:	74 44                	je     3560 <_ZNSt5dequeISt10shared_ptrI16PseudoPRTreeNodeIiLi6EEESaIS3_EE12emplace_backIJRS3_EEES7_DpOT_.isra.0+0x70>
    351c:	48 8b 16             	mov    (%rsi),%rdx
    351f:	48 89 10             	mov    %rdx,(%rax)
    3522:	48 8b 56 08          	mov    0x8(%rsi),%rdx
    3526:	48 89 50 08          	mov    %rdx,0x8(%rax)
    352a:	48 85 d2             	test   %rdx,%rdx
    352d:	74 11                	je     3540 <_ZNSt5dequeISt10shared_ptrI16PseudoPRTreeNodeIiLi6EEESaIS3_EE12emplace_backIJRS3_EEES7_DpOT_.isra.0+0x50>
    352f:	48 83 3d 91 fa 00 00 	cmpq   $0x0,0xfa91(%rip)        # 12fc8 <__pthread_key_create>
    3536:	00 
    3537:	0f 85 13 01 00 00    	jne    3650 <_ZNSt5dequeISt10shared_ptrI16PseudoPRTreeNodeIiLi6EEESaIS3_EE12emplace_backIJRS3_EEES7_DpOT_.isra.0+0x160>
    353d:	ff 42 08             	incl   0x8(%rdx)
    3540:	48 83 c0 10          	add    $0x10,%rax
    3544:	48 89 43 30          	mov    %rax,0x30(%rbx)
    3548:	48 8d 65 d8          	lea    -0x28(%rbp),%rsp
    354c:	5b                   	pop    %rbx
    354d:	41 5c                	pop    %r12
    354f:	41 5d                	pop    %r13
    3551:	41 5e                	pop    %r14
    3553:	41 5f                	pop    %r15
    3555:	5d                   	pop    %rbp
    3556:	c3                   	retq   
    3557:	66 0f 1f 84 00 00 00 	nopw   0x0(%rax,%rax,1)
    355e:	00 00 
    3560:	4c 8b 77 48          	mov    0x48(%rdi),%r14
    3564:	48 8b 77 28          	mov    0x28(%rdi),%rsi
    3568:	48 2b 47 38          	sub    0x38(%rdi),%rax
    356c:	4d 89 f5             	mov    %r14,%r13
    356f:	49 29 f5             	sub    %rsi,%r13
    3572:	4c 89 e9             	mov    %r13,%rcx
    3575:	48 c1 f8 04          	sar    $0x4,%rax
    3579:	48 c1 f9 03          	sar    $0x3,%rcx
    357d:	48 8d 51 ff          	lea    -0x1(%rcx),%rdx
    3581:	48 c1 e2 05          	shl    $0x5,%rdx
    3585:	48 01 c2             	add    %rax,%rdx
    3588:	48 8b 47 20          	mov    0x20(%rdi),%rax
    358c:	48 2b 47 10          	sub    0x10(%rdi),%rax
    3590:	48 c1 f8 04          	sar    $0x4,%rax
    3594:	48 01 d0             	add    %rdx,%rax
    3597:	48 ba ff ff ff ff ff 	movabs $0x7ffffffffffffff,%rdx
    359e:	ff ff 07 
    35a1:	48 39 d0             	cmp    %rdx,%rax
    35a4:	0f 84 e3 01 00 00    	je     378d <_ZNSt5dequeISt10shared_ptrI16PseudoPRTreeNodeIiLi6EEESaIS3_EE12emplace_backIJRS3_EEES7_DpOT_.isra.0+0x29d>
    35aa:	48 8b 57 08          	mov    0x8(%rdi),%rdx
    35ae:	48 8b 3f             	mov    (%rdi),%rdi
    35b1:	4c 89 f0             	mov    %r14,%rax
    35b4:	48 29 f8             	sub    %rdi,%rax
    35b7:	49 89 d0             	mov    %rdx,%r8
    35ba:	48 c1 f8 03          	sar    $0x3,%rax
    35be:	49 29 c0             	sub    %rax,%r8
    35c1:	49 83 f8 01          	cmp    $0x1,%r8
    35c5:	0f 86 95 00 00 00    	jbe    3660 <_ZNSt5dequeISt10shared_ptrI16PseudoPRTreeNodeIiLi6EEESaIS3_EE12emplace_backIJRS3_EEES7_DpOT_.isra.0+0x170>
    35cb:	bf 00 02 00 00       	mov    $0x200,%edi
    35d0:	e8 2b eb ff ff       	callq  2100 <_Znwm@plt>
    35d5:	49 89 46 08          	mov    %rax,0x8(%r14)
    35d9:	49 8b 04 24          	mov    (%r12),%rax
    35dd:	48 8b 53 30          	mov    0x30(%rbx),%rdx
    35e1:	48 89 02             	mov    %rax,(%rdx)
    35e4:	49 8b 44 24 08       	mov    0x8(%r12),%rax
    35e9:	48 89 42 08          	mov    %rax,0x8(%rdx)
    35ed:	48 85 c0             	test   %rax,%rax
    35f0:	74 11                	je     3603 <_ZNSt5dequeISt10shared_ptrI16PseudoPRTreeNodeIiLi6EEESaIS3_EE12emplace_backIJRS3_EEES7_DpOT_.isra.0+0x113>
    35f2:	48 83 3d ce f9 00 00 	cmpq   $0x0,0xf9ce(%rip)        # 12fc8 <__pthread_key_create>
    35f9:	00 
    35fa:	0f 85 60 01 00 00    	jne    3760 <_ZNSt5dequeISt10shared_ptrI16PseudoPRTreeNodeIiLi6EEESaIS3_EE12emplace_backIJRS3_EEES7_DpOT_.isra.0+0x270>
    3600:	ff 40 08             	incl   0x8(%rax)
    3603:	48 8b 53 48          	mov    0x48(%rbx),%rdx
    3607:	48 8b 42 08          	mov    0x8(%rdx),%rax
    360b:	48 83 c2 08          	add    $0x8,%rdx
    360f:	48 8d 88 00 02 00 00 	lea    0x200(%rax),%rcx
    3616:	c4 e1 f9 6e d0       	vmovq  %rax,%xmm2
    361b:	c4 e1 f9 6e c1       	vmovq  %rcx,%xmm0
    3620:	c4 e3 f9 22 ca 01    	vpinsrq $0x1,%rdx,%xmm0,%xmm1
    3626:	c5 e9 6c c2          	vpunpcklqdq %xmm2,%xmm2,%xmm0
    362a:	c4 e3 7d 38 c1 01    	vinserti128 $0x1,%xmm1,%ymm0,%ymm0
    3630:	c5 fe 7f 43 30       	vmovdqu %ymm0,0x30(%rbx)
    3635:	c5 f8 77             	vzeroupper 
    3638:	48 8d 65 d8          	lea    -0x28(%rbp),%rsp
    363c:	5b                   	pop    %rbx
    363d:	41 5c                	pop    %r12
    363f:	41 5d                	pop    %r13
    3641:	41 5e                	pop    %r14
    3643:	41 5f                	pop    %r15
    3645:	5d                   	pop    %rbp
    3646:	c3                   	retq   
    3647:	66 0f 1f 84 00 00 00 	nopw   0x0(%rax,%rax,1)
    364e:	00 00 
    3650:	f0 ff 42 08          	lock incl 0x8(%rdx)
    3654:	48 8b 47 30          	mov    0x30(%rdi),%rax
    3658:	e9 e3 fe ff ff       	jmpq   3540 <_ZNSt5dequeISt10shared_ptrI16PseudoPRTreeNodeIiLi6EEESaIS3_EE12emplace_backIJRS3_EEES7_DpOT_.isra.0+0x50>
    365d:	0f 1f 00             	nopl   (%rax)
    3660:	4c 8d 79 02          	lea    0x2(%rcx),%r15
    3664:	4b 8d 04 3f          	lea    (%r15,%r15,1),%rax
    3668:	48 39 c2             	cmp    %rax,%rdx
    366b:	0f 87 bf 00 00 00    	ja     3730 <_ZNSt5dequeISt10shared_ptrI16PseudoPRTreeNodeIiLi6EEESaIS3_EE12emplace_backIJRS3_EEES7_DpOT_.isra.0+0x240>
    3671:	48 85 d2             	test   %rdx,%rdx
    3674:	b8 01 00 00 00       	mov    $0x1,%eax
    3679:	48 0f 45 c2          	cmovne %rdx,%rax
    367d:	4c 8d 74 02 02       	lea    0x2(%rdx,%rax,1),%r14
    3682:	48 b8 ff ff ff ff ff 	movabs $0xfffffffffffffff,%rax
    3689:	ff ff 0f 
    368c:	49 39 c6             	cmp    %rax,%r14
    368f:	0f 87 04 01 00 00    	ja     3799 <_ZNSt5dequeISt10shared_ptrI16PseudoPRTreeNodeIiLi6EEESaIS3_EE12emplace_backIJRS3_EEES7_DpOT_.isra.0+0x2a9>
    3695:	4a 8d 3c f5 00 00 00 	lea    0x0(,%r14,8),%rdi
    369c:	00 
    369d:	e8 5e ea ff ff       	callq  2100 <_Znwm@plt>
    36a2:	48 89 c6             	mov    %rax,%rsi
    36a5:	48 89 44 24 18       	mov    %rax,0x18(%rsp)
    36aa:	4c 89 f0             	mov    %r14,%rax
    36ad:	4c 29 f8             	sub    %r15,%rax
    36b0:	48 d1 e8             	shr    %rax
    36b3:	4c 8d 3c c6          	lea    (%rsi,%rax,8),%r15
    36b7:	48 8b 43 48          	mov    0x48(%rbx),%rax
    36bb:	48 8b 73 28          	mov    0x28(%rbx),%rsi
    36bf:	48 8d 50 08          	lea    0x8(%rax),%rdx
    36c3:	48 39 f2             	cmp    %rsi,%rdx
    36c6:	74 0b                	je     36d3 <_ZNSt5dequeISt10shared_ptrI16PseudoPRTreeNodeIiLi6EEESaIS3_EE12emplace_backIJRS3_EEES7_DpOT_.isra.0+0x1e3>
    36c8:	48 29 f2             	sub    %rsi,%rdx
    36cb:	4c 89 ff             	mov    %r15,%rdi
    36ce:	e8 dd ea ff ff       	callq  21b0 <memmove@plt>
    36d3:	48 8b 43 08          	mov    0x8(%rbx),%rax
    36d7:	48 8b 3b             	mov    (%rbx),%rdi
    36da:	48 8d 34 c5 00 00 00 	lea    0x0(,%rax,8),%rsi
    36e1:	00 
    36e2:	e8 29 ea ff ff       	callq  2110 <_ZdlPvm@plt>
    36e7:	48 8b 44 24 18       	mov    0x18(%rsp),%rax
    36ec:	4c 89 73 08          	mov    %r14,0x8(%rbx)
    36f0:	48 89 03             	mov    %rax,(%rbx)
    36f3:	c4 c1 7a 7e 1f       	vmovq  (%r15),%xmm3
    36f8:	4f 8d 34 2f          	lea    (%r15,%r13,1),%r14
    36fc:	4c 89 7b 28          	mov    %r15,0x28(%rbx)
    3700:	49 8b 07             	mov    (%r15),%rax
    3703:	4c 89 73 48          	mov    %r14,0x48(%rbx)
    3707:	48 05 00 02 00 00    	add    $0x200,%rax
    370d:	c4 e3 e1 22 c0 01    	vpinsrq $0x1,%rax,%xmm3,%xmm0
    3713:	c5 fa 7f 43 18       	vmovdqu %xmm0,0x18(%rbx)
    3718:	49 8b 06             	mov    (%r14),%rax
    371b:	48 89 43 38          	mov    %rax,0x38(%rbx)
    371f:	48 05 00 02 00 00    	add    $0x200,%rax
    3725:	48 89 43 40          	mov    %rax,0x40(%rbx)
    3729:	e9 9d fe ff ff       	jmpq   35cb <_ZNSt5dequeISt10shared_ptrI16PseudoPRTreeNodeIiLi6EEESaIS3_EE12emplace_backIJRS3_EEES7_DpOT_.isra.0+0xdb>
    372e:	66 90                	xchg   %ax,%ax
    3730:	4c 29 fa             	sub    %r15,%rdx
    3733:	49 83 c6 08          	add    $0x8,%r14
    3737:	48 d1 ea             	shr    %rdx
    373a:	4c 8d 3c d7          	lea    (%rdi,%rdx,8),%r15
    373e:	4c 89 f2             	mov    %r14,%rdx
    3741:	48 29 f2             	sub    %rsi,%rdx
    3744:	4c 39 fe             	cmp    %r15,%rsi
    3747:	76 27                	jbe    3770 <_ZNSt5dequeISt10shared_ptrI16PseudoPRTreeNodeIiLi6EEESaIS3_EE12emplace_backIJRS3_EEES7_DpOT_.isra.0+0x280>
    3749:	49 39 f6             	cmp    %rsi,%r14
    374c:	74 a5                	je     36f3 <_ZNSt5dequeISt10shared_ptrI16PseudoPRTreeNodeIiLi6EEESaIS3_EE12emplace_backIJRS3_EEES7_DpOT_.isra.0+0x203>
    374e:	4c 89 ff             	mov    %r15,%rdi
    3751:	e8 5a ea ff ff       	callq  21b0 <memmove@plt>
    3756:	eb 9b                	jmp    36f3 <_ZNSt5dequeISt10shared_ptrI16PseudoPRTreeNodeIiLi6EEESaIS3_EE12emplace_backIJRS3_EEES7_DpOT_.isra.0+0x203>
    3758:	0f 1f 84 00 00 00 00 	nopl   0x0(%rax,%rax,1)
    375f:	00 
    3760:	f0 ff 40 08          	lock incl 0x8(%rax)
    3764:	e9 9a fe ff ff       	jmpq   3603 <_ZNSt5dequeISt10shared_ptrI16PseudoPRTreeNodeIiLi6EEESaIS3_EE12emplace_backIJRS3_EEES7_DpOT_.isra.0+0x113>
    3769:	0f 1f 80 00 00 00 00 	nopl   0x0(%rax)
    3770:	49 39 f6             	cmp    %rsi,%r14
    3773:	0f 84 7a ff ff ff    	je     36f3 <_ZNSt5dequeISt10shared_ptrI16PseudoPRTreeNodeIiLi6EEESaIS3_EE12emplace_backIJRS3_EEES7_DpOT_.isra.0+0x203>
    3779:	49 8d 7d 08          	lea    0x8(%r13),%rdi
    377d:	48 29 d7             	sub    %rdx,%rdi
    3780:	4c 01 ff             	add    %r15,%rdi
    3783:	e8 28 ea ff ff       	callq  21b0 <memmove@plt>
    3788:	e9 66 ff ff ff       	jmpq   36f3 <_ZNSt5dequeISt10shared_ptrI16PseudoPRTreeNodeIiLi6EEESaIS3_EE12emplace_backIJRS3_EEES7_DpOT_.isra.0+0x203>
    378d:	48 8d 3d 74 c8 00 00 	lea    0xc874(%rip),%rdi        # 10008 <_IO_stdin_used+0x8>
    3794:	e8 f7 e8 ff ff       	callq  2090 <_ZSt20__throw_length_errorPKc@plt>
    3799:	e8 b2 e8 ff ff       	callq  2050 <_ZSt17__throw_bad_allocv@plt>
    379e:	66 90                	xchg   %ax,%ax

00000000000037a0 <_ZNSt23_Sp_counted_ptr_inplaceI16PseudoPRTreeNodeIdLi6EESaIS1_ELN9__gnu_cxx12_Lock_policyE2EE10_M_disposeEv>:
    37a0:	41 54                	push   %r12
    37a2:	55                   	push   %rbp
    37a3:	48 89 fd             	mov    %rdi,%rbp
    37a6:	53                   	push   %rbx
    37a7:	4c 8b a7 28 01 00 00 	mov    0x128(%rdi),%r12
    37ae:	4d 85 e4             	test   %r12,%r12
    37b1:	74 22                	je     37d5 <_ZNSt23_Sp_counted_ptr_inplaceI16PseudoPRTreeNodeIdLi6EESaIS1_ELN9__gnu_cxx12_Lock_policyE2EE10_M_disposeEv+0x35>
    37b3:	48 8b 1d 0e f8 00 00 	mov    0xf80e(%rip),%rbx        # 12fc8 <__pthread_key_create>
    37ba:	48 85 db             	test   %rbx,%rbx
    37bd:	0f 85 0d 01 00 00    	jne    38d0 <_ZNSt23_Sp_counted_ptr_inplaceI16PseudoPRTreeNodeIdLi6EESaIS1_ELN9__gnu_cxx12_Lock_policyE2EE10_M_disposeEv+0x130>
    37c3:	41 8b 44 24 08       	mov    0x8(%r12),%eax
    37c8:	8d 50 ff             	lea    -0x1(%rax),%edx
    37cb:	41 89 54 24 08       	mov    %edx,0x8(%r12)
    37d0:	83 f8 01             	cmp    $0x1,%eax
    37d3:	74 7b                	je     3850 <_ZNSt23_Sp_counted_ptr_inplaceI16PseudoPRTreeNodeIdLi6EESaIS1_ELN9__gnu_cxx12_Lock_policyE2EE10_M_disposeEv+0xb0>
    37d5:	4c 8b a5 18 01 00 00 	mov    0x118(%rbp),%r12
    37dc:	4d 85 e4             	test   %r12,%r12
    37df:	74 26                	je     3807 <_ZNSt23_Sp_counted_ptr_inplaceI16PseudoPRTreeNodeIdLi6EESaIS1_ELN9__gnu_cxx12_Lock_policyE2EE10_M_disposeEv+0x67>
    37e1:	48 8b 1d e0 f7 00 00 	mov    0xf7e0(%rip),%rbx        # 12fc8 <__pthread_key_create>
    37e8:	48 85 db             	test   %rbx,%rbx
    37eb:	0f 85 ff 00 00 00    	jne    38f0 <_ZNSt23_Sp_counted_ptr_inplaceI16PseudoPRTreeNodeIdLi6EESaIS1_ELN9__gnu_cxx12_Lock_policyE2EE10_M_disposeEv+0x150>
    37f1:	41 8b 44 24 08       	mov    0x8(%r12),%eax
    37f6:	8d 50 ff             	lea    -0x1(%rax),%edx
    37f9:	41 89 54 24 08       	mov    %edx,0x8(%r12)
    37fe:	83 f8 01             	cmp    $0x1,%eax
    3801:	0f 84 89 00 00 00    	je     3890 <_ZNSt23_Sp_counted_ptr_inplaceI16PseudoPRTreeNodeIdLi6EESaIS1_ELN9__gnu_cxx12_Lock_policyE2EE10_M_disposeEv+0xf0>
    3807:	48 8d 9d d0 00 00 00 	lea    0xd0(%rbp),%rbx
    380e:	48 83 ed 30          	sub    $0x30,%rbp
    3812:	48 8b 7b 28          	mov    0x28(%rbx),%rdi
    3816:	48 85 ff             	test   %rdi,%rdi
    3819:	74 25                	je     3840 <_ZNSt23_Sp_counted_ptr_inplaceI16PseudoPRTreeNodeIdLi6EESaIS1_ELN9__gnu_cxx12_Lock_policyE2EE10_M_disposeEv+0xa0>
    381b:	48 8b 73 38          	mov    0x38(%rbx),%rsi
    381f:	48 83 eb 40          	sub    $0x40,%rbx
    3823:	48 29 fe             	sub    %rdi,%rsi
    3826:	e8 e5 e8 ff ff       	callq  2110 <_ZdlPvm@plt>
    382b:	48 39 dd             	cmp    %rbx,%rbp
    382e:	75 e2                	jne    3812 <_ZNSt23_Sp_counted_ptr_inplaceI16PseudoPRTreeNodeIdLi6EESaIS1_ELN9__gnu_cxx12_Lock_policyE2EE10_M_disposeEv+0x72>
    3830:	5b                   	pop    %rbx
    3831:	5d                   	pop    %rbp
    3832:	41 5c                	pop    %r12
    3834:	c3                   	retq   
    3835:	66 66 2e 0f 1f 84 00 	data16 nopw %cs:0x0(%rax,%rax,1)
    383c:	00 00 00 00 
    3840:	48 83 eb 40          	sub    $0x40,%rbx
    3844:	48 39 dd             	cmp    %rbx,%rbp
    3847:	75 c9                	jne    3812 <_ZNSt23_Sp_counted_ptr_inplaceI16PseudoPRTreeNodeIdLi6EESaIS1_ELN9__gnu_cxx12_Lock_policyE2EE10_M_disposeEv+0x72>
    3849:	5b                   	pop    %rbx
    384a:	5d                   	pop    %rbp
    384b:	41 5c                	pop    %r12
    384d:	c3                   	retq   
    384e:	66 90                	xchg   %ax,%ax
    3850:	49 8b 04 24          	mov    (%r12),%rax
    3854:	4c 89 e7             	mov    %r12,%rdi
    3857:	ff 50 10             	callq  *0x10(%rax)
    385a:	48 85 db             	test   %rbx,%rbx
    385d:	0f 85 ad 00 00 00    	jne    3910 <_ZNSt23_Sp_counted_ptr_inplaceI16PseudoPRTreeNodeIdLi6EESaIS1_ELN9__gnu_cxx12_Lock_policyE2EE10_M_disposeEv+0x170>
    3863:	41 8b 44 24 0c       	mov    0xc(%r12),%eax
    3868:	8d 50 ff             	lea    -0x1(%rax),%edx
    386b:	41 89 54 24 0c       	mov    %edx,0xc(%r12)
    3870:	83 f8 01             	cmp    $0x1,%eax
    3873:	0f 85 5c ff ff ff    	jne    37d5 <_ZNSt23_Sp_counted_ptr_inplaceI16PseudoPRTreeNodeIdLi6EESaIS1_ELN9__gnu_cxx12_Lock_policyE2EE10_M_disposeEv+0x35>
    3879:	49 8b 04 24          	mov    (%r12),%rax
    387d:	4c 89 e7             	mov    %r12,%rdi
    3880:	ff 50 18             	callq  *0x18(%rax)
    3883:	e9 4d ff ff ff       	jmpq   37d5 <_ZNSt23_Sp_counted_ptr_inplaceI16PseudoPRTreeNodeIdLi6EESaIS1_ELN9__gnu_cxx12_Lock_policyE2EE10_M_disposeEv+0x35>
    3888:	0f 1f 84 00 00 00 00 	nopl   0x0(%rax,%rax,1)
    388f:	00 
    3890:	49 8b 04 24          	mov    (%r12),%rax
    3894:	4c 89 e7             	mov    %r12,%rdi
    3897:	ff 50 10             	callq  *0x10(%rax)
    389a:	48 85 db             	test   %rbx,%rbx
    389d:	0f 85 8d 00 00 00    	jne    3930 <_ZNSt23_Sp_counted_ptr_inplaceI16PseudoPRTreeNodeIdLi6EESaIS1_ELN9__gnu_cxx12_Lock_policyE2EE10_M_disposeEv+0x190>
    38a3:	41 8b 44 24 0c       	mov    0xc(%r12),%eax
    38a8:	8d 50 ff             	lea    -0x1(%rax),%edx
    38ab:	41 89 54 24 0c       	mov    %edx,0xc(%r12)
    38b0:	83 f8 01             	cmp    $0x1,%eax
    38b3:	0f 85 4e ff ff ff    	jne    3807 <_ZNSt23_Sp_counted_ptr_inplaceI16PseudoPRTreeNodeIdLi6EESaIS1_ELN9__gnu_cxx12_Lock_policyE2EE10_M_disposeEv+0x67>
    38b9:	49 8b 04 24          	mov    (%r12),%rax
    38bd:	4c 89 e7             	mov    %r12,%rdi
    38c0:	ff 50 18             	callq  *0x18(%rax)
    38c3:	e9 3f ff ff ff       	jmpq   3807 <_ZNSt23_Sp_counted_ptr_inplaceI16PseudoPRTreeNodeIdLi6EESaIS1_ELN9__gnu_cxx12_Lock_policyE2EE10_M_disposeEv+0x67>
    38c8:	0f 1f 84 00 00 00 00 	nopl   0x0(%rax,%rax,1)
    38cf:	00 
    38d0:	b8 ff ff ff ff       	mov    $0xffffffff,%eax
    38d5:	f0 41 0f c1 44 24 08 	lock xadd %eax,0x8(%r12)
    38dc:	e9 ef fe ff ff       	jmpq   37d0 <_ZNSt23_Sp_counted_ptr_inplaceI16PseudoPRTreeNodeIdLi6EESaIS1_ELN9__gnu_cxx12_Lock_policyE2EE10_M_disposeEv+0x30>
    38e1:	66 66 2e 0f 1f 84 00 	data16 nopw %cs:0x0(%rax,%rax,1)
    38e8:	00 00 00 00 
    38ec:	0f 1f 40 00          	nopl   0x0(%rax)
    38f0:	b8 ff ff ff ff       	mov    $0xffffffff,%eax
    38f5:	f0 41 0f c1 44 24 08 	lock xadd %eax,0x8(%r12)
    38fc:	e9 fd fe ff ff       	jmpq   37fe <_ZNSt23_Sp_counted_ptr_inplaceI16PseudoPRTreeNodeIdLi6EESaIS1_ELN9__gnu_cxx12_Lock_policyE2EE10_M_disposeEv+0x5e>
    3901:	66 66 2e 0f 1f 84 00 	data16 nopw %cs:0x0(%rax,%rax,1)
    3908:	00 00 00 00 
    390c:	0f 1f 40 00          	nopl   0x0(%rax)
    3910:	b8 ff ff ff ff       	mov    $0xffffffff,%eax
    3915:	f0 41 0f c1 44 24 0c 	lock xadd %eax,0xc(%r12)
    391c:	e9 4f ff ff ff       	jmpq   3870 <_ZNSt23_Sp_counted_ptr_inplaceI16PseudoPRTreeNodeIdLi6EESaIS1_ELN9__gnu_cxx12_Lock_policyE2EE10_M_disposeEv+0xd0>
    3921:	66 66 2e 0f 1f 84 00 	data16 nopw %cs:0x0(%rax,%rax,1)
    3928:	00 00 00 00 
    392c:	0f 1f 40 00          	nopl   0x0(%rax)
    3930:	b8 ff ff ff ff       	mov    $0xffffffff,%eax
    3935:	f0 41 0f c1 44 24 0c 	lock xadd %eax,0xc(%r12)
    393c:	e9 6f ff ff ff       	jmpq   38b0 <_ZNSt23_Sp_counted_ptr_inplaceI16PseudoPRTreeNodeIdLi6EESaIS1_ELN9__gnu_cxx12_Lock_policyE2EE10_M_disposeEv+0x110>
    3941:	66 2e 0f 1f 84 00 00 	nopw   %cs:0x0(%rax,%rax,1)
    3948:	00 00 00 
    394b:	0f 1f 44 00 00       	nopl   0x0(%rax,%rax,1)

0000000000003950 <_ZNSt23_Sp_counted_ptr_inplaceI16PseudoPRTreeNodeIiLi6EESaIS1_ELN9__gnu_cxx12_Lock_policyE2EE10_M_disposeEv>:
    3950:	41 54                	push   %r12
    3952:	55                   	push   %rbp
    3953:	48 89 fd             	mov    %rdi,%rbp
    3956:	53                   	push   %rbx
    3957:	4c 8b a7 28 01 00 00 	mov    0x128(%rdi),%r12
    395e:	4d 85 e4             	test   %r12,%r12
    3961:	74 22                	je     3985 <_ZNSt23_Sp_counted_ptr_inplaceI16PseudoPRTreeNodeIiLi6EESaIS1_ELN9__gnu_cxx12_Lock_policyE2EE10_M_disposeEv+0x35>
    3963:	48 8b 1d 5e f6 00 00 	mov    0xf65e(%rip),%rbx        # 12fc8 <__pthread_key_create>
    396a:	48 85 db             	test   %rbx,%rbx
    396d:	0f 85 0d 01 00 00    	jne    3a80 <_ZNSt23_Sp_counted_ptr_inplaceI16PseudoPRTreeNodeIiLi6EESaIS1_ELN9__gnu_cxx12_Lock_policyE2EE10_M_disposeEv+0x130>
    3973:	41 8b 44 24 08       	mov    0x8(%r12),%eax
    3978:	8d 50 ff             	lea    -0x1(%rax),%edx
    397b:	41 89 54 24 08       	mov    %edx,0x8(%r12)
    3980:	83 f8 01             	cmp    $0x1,%eax
    3983:	74 7b                	je     3a00 <_ZNSt23_Sp_counted_ptr_inplaceI16PseudoPRTreeNodeIiLi6EESaIS1_ELN9__gnu_cxx12_Lock_policyE2EE10_M_disposeEv+0xb0>
    3985:	4c 8b a5 18 01 00 00 	mov    0x118(%rbp),%r12
    398c:	4d 85 e4             	test   %r12,%r12
    398f:	74 26                	je     39b7 <_ZNSt23_Sp_counted_ptr_inplaceI16PseudoPRTreeNodeIiLi6EESaIS1_ELN9__gnu_cxx12_Lock_policyE2EE10_M_disposeEv+0x67>
    3991:	48 8b 1d 30 f6 00 00 	mov    0xf630(%rip),%rbx        # 12fc8 <__pthread_key_create>
    3998:	48 85 db             	test   %rbx,%rbx
    399b:	0f 85 ff 00 00 00    	jne    3aa0 <_ZNSt23_Sp_counted_ptr_inplaceI16PseudoPRTreeNodeIiLi6EESaIS1_ELN9__gnu_cxx12_Lock_policyE2EE10_M_disposeEv+0x150>
    39a1:	41 8b 44 24 08       	mov    0x8(%r12),%eax
    39a6:	8d 50 ff             	lea    -0x1(%rax),%edx
    39a9:	41 89 54 24 08       	mov    %edx,0x8(%r12)
    39ae:	83 f8 01             	cmp    $0x1,%eax
    39b1:	0f 84 89 00 00 00    	je     3a40 <_ZNSt23_Sp_counted_ptr_inplaceI16PseudoPRTreeNodeIiLi6EESaIS1_ELN9__gnu_cxx12_Lock_policyE2EE10_M_disposeEv+0xf0>
    39b7:	48 8d 9d d0 00 00 00 	lea    0xd0(%rbp),%rbx
    39be:	48 83 ed 30          	sub    $0x30,%rbp
    39c2:	48 8b 7b 28          	mov    0x28(%rbx),%rdi
    39c6:	48 85 ff             	test   %rdi,%rdi
    39c9:	74 25                	je     39f0 <_ZNSt23_Sp_counted_ptr_inplaceI16PseudoPRTreeNodeIiLi6EESaIS1_ELN9__gnu_cxx12_Lock_policyE2EE10_M_disposeEv+0xa0>
    39cb:	48 8b 73 38          	mov    0x38(%rbx),%rsi
    39cf:	48 83 eb 40          	sub    $0x40,%rbx
    39d3:	48 29 fe             	sub    %rdi,%rsi
    39d6:	e8 35 e7 ff ff       	callq  2110 <_ZdlPvm@plt>
    39db:	48 39 dd             	cmp    %rbx,%rbp
    39de:	75 e2                	jne    39c2 <_ZNSt23_Sp_counted_ptr_inplaceI16PseudoPRTreeNodeIiLi6EESaIS1_ELN9__gnu_cxx12_Lock_policyE2EE10_M_disposeEv+0x72>
    39e0:	5b                   	pop    %rbx
    39e1:	5d                   	pop    %rbp
    39e2:	41 5c                	pop    %r12
    39e4:	c3                   	retq   
    39e5:	66 66 2e 0f 1f 84 00 	data16 nopw %cs:0x0(%rax,%rax,1)
    39ec:	00 00 00 00 
    39f0:	48 83 eb 40          	sub    $0x40,%rbx
    39f4:	48 39 dd             	cmp    %rbx,%rbp
    39f7:	75 c9                	jne    39c2 <_ZNSt23_Sp_counted_ptr_inplaceI16PseudoPRTreeNodeIiLi6EESaIS1_ELN9__gnu_cxx12_Lock_policyE2EE10_M_disposeEv+0x72>
    39f9:	5b                   	pop    %rbx
    39fa:	5d                   	pop    %rbp
    39fb:	41 5c                	pop    %r12
    39fd:	c3                   	retq   
    39fe:	66 90                	xchg   %ax,%ax
    3a00:	49 8b 04 24          	mov    (%r12),%rax
    3a04:	4c 89 e7             	mov    %r12,%rdi
    3a07:	ff 50 10             	callq  *0x10(%rax)
    3a0a:	48 85 db             	test   %rbx,%rbx
    3a0d:	0f 85 ad 00 00 00    	jne    3ac0 <_ZNSt23_Sp_counted_ptr_inplaceI16PseudoPRTreeNodeIiLi6EESaIS1_ELN9__gnu_cxx12_Lock_policyE2EE10_M_disposeEv+0x170>
    3a13:	41 8b 44 24 0c       	mov    0xc(%r12),%eax
    3a18:	8d 50 ff             	lea    -0x1(%rax),%edx
    3a1b:	41 89 54 24 0c       	mov    %edx,0xc(%r12)
    3a20:	83 f8 01             	cmp    $0x1,%eax
    3a23:	0f 85 5c ff ff ff    	jne    3985 <_ZNSt23_Sp_counted_ptr_inplaceI16PseudoPRTreeNodeIiLi6EESaIS1_ELN9__gnu_cxx12_Lock_policyE2EE10_M_disposeEv+0x35>
    3a29:	49 8b 04 24          	mov    (%r12),%rax
    3a2d:	4c 89 e7             	mov    %r12,%rdi
    3a30:	ff 50 18             	callq  *0x18(%rax)
    3a33:	e9 4d ff ff ff       	jmpq   3985 <_ZNSt23_Sp_counted_ptr_inplaceI16PseudoPRTreeNodeIiLi6EESaIS1_ELN9__gnu_cxx12_Lock_policyE2EE10_M_disposeEv+0x35>
    3a38:	0f 1f 84 00 00 00 00 	nopl   0x0(%rax,%rax,1)
    3a3f:	00 
    3a40:	49 8b 04 24          	mov    (%r12),%rax
    3a44:	4c 89 e7             	mov    %r12,%rdi
    3a47:	ff 50 10             	callq  *0x10(%rax)
    3a4a:	48 85 db             	test   %rbx,%rbx
    3a4d:	0f 85 8d 00 00 00    	jne    3ae0 <_ZNSt23_Sp_counted_ptr_inplaceI16PseudoPRTreeNodeIiLi6EESaIS1_ELN9__gnu_cxx12_Lock_policyE2EE10_M_disposeEv+0x190>
    3a53:	41 8b 44 24 0c       	mov    0xc(%r12),%eax
    3a58:	8d 50 ff             	lea    -0x1(%rax),%edx
    3a5b:	41 89 54 24 0c       	mov    %edx,0xc(%r12)
    3a60:	83 f8 01             	cmp    $0x1,%eax
    3a63:	0f 85 4e ff ff ff    	jne    39b7 <_ZNSt23_Sp_counted_ptr_inplaceI16PseudoPRTreeNodeIiLi6EESaIS1_ELN9__gnu_cxx12_Lock_policyE2EE10_M_disposeEv+0x67>
    3a69:	49 8b 04 24          	mov    (%r12),%rax
    3a6d:	4c 89 e7             	mov    %r12,%rdi
    3a70:	ff 50 18             	callq  *0x18(%rax)
    3a73:	e9 3f ff ff ff       	jmpq   39b7 <_ZNSt23_Sp_counted_ptr_inplaceI16PseudoPRTreeNodeIiLi6EESaIS1_ELN9__gnu_cxx12_Lock_policyE2EE10_M_disposeEv+0x67>
    3a78:	0f 1f 84 00 00 00 00 	nopl   0x0(%rax,%rax,1)
    3a7f:	00 
    3a80:	b8 ff ff ff ff       	mov    $0xffffffff,%eax
    3a85:	f0 41 0f c1 44 24 08 	lock xadd %eax,0x8(%r12)
    3a8c:	e9 ef fe ff ff       	jmpq   3980 <_ZNSt23_Sp_counted_ptr_inplaceI16PseudoPRTreeNodeIiLi6EESaIS1_ELN9__gnu_cxx12_Lock_policyE2EE10_M_disposeEv+0x30>
    3a91:	66 66 2e 0f 1f 84 00 	data16 nopw %cs:0x0(%rax,%rax,1)
    3a98:	00 00 00 00 
    3a9c:	0f 1f 40 00          	nopl   0x0(%rax)
    3aa0:	b8 ff ff ff ff       	mov    $0xffffffff,%eax
    3aa5:	f0 41 0f c1 44 24 08 	lock xadd %eax,0x8(%r12)
    3aac:	e9 fd fe ff ff       	jmpq   39ae <_ZNSt23_Sp_counted_ptr_inplaceI16PseudoPRTreeNodeIiLi6EESaIS1_ELN9__gnu_cxx12_Lock_policyE2EE10_M_disposeEv+0x5e>
    3ab1:	66 66 2e 0f 1f 84 00 	data16 nopw %cs:0x0(%rax,%rax,1)
    3ab8:	00 00 00 00 
    3abc:	0f 1f 40 00          	nopl   0x0(%rax)
    3ac0:	b8 ff ff ff ff       	mov    $0xffffffff,%eax
    3ac5:	f0 41 0f c1 44 24 0c 	lock xadd %eax,0xc(%r12)
    3acc:	e9 4f ff ff ff       	jmpq   3a20 <_ZNSt23_Sp_counted_ptr_inplaceI16PseudoPRTreeNodeIiLi6EESaIS1_ELN9__gnu_cxx12_Lock_policyE2EE10_M_disposeEv+0xd0>
    3ad1:	66 66 2e 0f 1f 84 00 	data16 nopw %cs:0x0(%rax,%rax,1)
    3ad8:	00 00 00 00 
    3adc:	0f 1f 40 00          	nopl   0x0(%rax)
    3ae0:	b8 ff ff ff ff       	mov    $0xffffffff,%eax
    3ae5:	f0 41 0f c1 44 24 0c 	lock xadd %eax,0xc(%r12)
    3aec:	e9 6f ff ff ff       	jmpq   3a60 <_ZNSt23_Sp_counted_ptr_inplaceI16PseudoPRTreeNodeIiLi6EESaIS1_ELN9__gnu_cxx12_Lock_policyE2EE10_M_disposeEv+0x110>
    3af1:	66 2e 0f 1f 84 00 00 	nopw   %cs:0x0(%rax,%rax,1)
    3af8:	00 00 00 
    3afb:	0f 1f 44 00 00       	nopl   0x0(%rax,%rax,1)

0000000000003b00 <_ZNSt10unique_ptrI10PRTreeNodeIdLi6EESt14default_deleteIS1_EED1Ev>:
    3b00:	41 57                	push   %r15
    3b02:	41 56                	push   %r14
    3b04:	41 55                	push   %r13
    3b06:	41 54                	push   %r12
    3b08:	55                   	push   %rbp
    3b09:	48 8b 2f             	mov    (%rdi),%rbp
    3b0c:	48 85 ed             	test   %rbp,%rbp
    3b0f:	0f 84 8b 04 00 00    	je     3fa0 <_ZNSt10unique_ptrI10PRTreeNodeIdLi6EESt14default_deleteIS1_EED1Ev+0x4a0>
    3b15:	4c 8b 65 30          	mov    0x30(%rbp),%r12
    3b19:	4d 85 e4             	test   %r12,%r12
    3b1c:	0f 84 11 02 00 00    	je     3d33 <_ZNSt10unique_ptrI10PRTreeNodeIdLi6EESt14default_deleteIS1_EED1Ev+0x233>
    3b22:	4d 8b 6c 24 30       	mov    0x30(%r12),%r13
    3b27:	4d 85 ed             	test   %r13,%r13
    3b2a:	0f 84 de 00 00 00    	je     3c0e <_ZNSt10unique_ptrI10PRTreeNodeIdLi6EESt14default_deleteIS1_EED1Ev+0x10e>
    3b30:	4d 8b 75 30          	mov    0x30(%r13),%r14
    3b34:	4d 85 f6             	test   %r14,%r14
    3b37:	74 4a                	je     3b83 <_ZNSt10unique_ptrI10PRTreeNodeIdLi6EESt14default_deleteIS1_EED1Ev+0x83>
    3b39:	49 8d 7e 30          	lea    0x30(%r14),%rdi
    3b3d:	e8 be ff ff ff       	callq  3b00 <_ZNSt10unique_ptrI10PRTreeNodeIdLi6EESt14default_deleteIS1_EED1Ev>
    3b42:	49 8d 7e 28          	lea    0x28(%r14),%rdi
    3b46:	e8 b5 ff ff ff       	callq  3b00 <_ZNSt10unique_ptrI10PRTreeNodeIdLi6EESt14default_deleteIS1_EED1Ev>
    3b4b:	4d 8b 7e 20          	mov    0x20(%r14),%r15
    3b4f:	4d 85 ff             	test   %r15,%r15
    3b52:	74 22                	je     3b76 <_ZNSt10unique_ptrI10PRTreeNodeIdLi6EESt14default_deleteIS1_EED1Ev+0x76>
    3b54:	49 8b 7f 28          	mov    0x28(%r15),%rdi
    3b58:	48 85 ff             	test   %rdi,%rdi
    3b5b:	74 0c                	je     3b69 <_ZNSt10unique_ptrI10PRTreeNodeIdLi6EESt14default_deleteIS1_EED1Ev+0x69>
    3b5d:	49 8b 77 38          	mov    0x38(%r15),%rsi
    3b61:	48 29 fe             	sub    %rdi,%rsi
    3b64:	e8 a7 e5 ff ff       	callq  2110 <_ZdlPvm@plt>
    3b69:	be 40 00 00 00       	mov    $0x40,%esi
    3b6e:	4c 89 ff             	mov    %r15,%rdi
    3b71:	e8 9a e5 ff ff       	callq  2110 <_ZdlPvm@plt>
    3b76:	be 38 00 00 00       	mov    $0x38,%esi
    3b7b:	4c 89 f7             	mov    %r14,%rdi
    3b7e:	e8 8d e5 ff ff       	callq  2110 <_ZdlPvm@plt>
    3b83:	4d 8b 75 28          	mov    0x28(%r13),%r14
    3b87:	4d 85 f6             	test   %r14,%r14
    3b8a:	74 4a                	je     3bd6 <_ZNSt10unique_ptrI10PRTreeNodeIdLi6EESt14default_deleteIS1_EED1Ev+0xd6>
    3b8c:	49 8d 7e 30          	lea    0x30(%r14),%rdi
    3b90:	e8 6b ff ff ff       	callq  3b00 <_ZNSt10unique_ptrI10PRTreeNodeIdLi6EESt14default_deleteIS1_EED1Ev>
    3b95:	49 8d 7e 28          	lea    0x28(%r14),%rdi
    3b99:	e8 62 ff ff ff       	callq  3b00 <_ZNSt10unique_ptrI10PRTreeNodeIdLi6EESt14default_deleteIS1_EED1Ev>
    3b9e:	4d 8b 7e 20          	mov    0x20(%r14),%r15
    3ba2:	4d 85 ff             	test   %r15,%r15
    3ba5:	74 22                	je     3bc9 <_ZNSt10unique_ptrI10PRTreeNodeIdLi6EESt14default_deleteIS1_EED1Ev+0xc9>
    3ba7:	49 8b 7f 28          	mov    0x28(%r15),%rdi
    3bab:	48 85 ff             	test   %rdi,%rdi
    3bae:	74 0c                	je     3bbc <_ZNSt10unique_ptrI10PRTreeNodeIdLi6EESt14default_deleteIS1_EED1Ev+0xbc>
    3bb0:	49 8b 77 38          	mov    0x38(%r15),%rsi
    3bb4:	48 29 fe             	sub    %rdi,%rsi
    3bb7:	e8 54 e5 ff ff       	callq  2110 <_ZdlPvm@plt>
    3bbc:	be 40 00 00 00       	mov    $0x40,%esi
    3bc1:	4c 89 ff             	mov    %r15,%rdi
    3bc4:	e8 47 e5 ff ff       	callq  2110 <_ZdlPvm@plt>
    3bc9:	be 38 00 00 00       	mov    $0x38,%esi
    3bce:	4c 89 f7             	mov    %r14,%rdi
    3bd1:	e8 3a e5 ff ff       	callq  2110 <_ZdlPvm@plt>
    3bd6:	4d 8b 75 20          	mov    0x20(%r13),%r14
    3bda:	4d 85 f6             	test   %r14,%r14
    3bdd:	74 22                	je     3c01 <_ZNSt10unique_ptrI10PRTreeNodeIdLi6EESt14default_deleteIS1_EED1Ev+0x101>
    3bdf:	49 8b 7e 28          	mov    0x28(%r14),%rdi
    3be3:	48 85 ff             	test   %rdi,%rdi
    3be6:	74 0c                	je     3bf4 <_ZNSt10unique_ptrI10PRTreeNodeIdLi6EESt14default_deleteIS1_EED1Ev+0xf4>
    3be8:	49 8b 76 38          	mov    0x38(%r14),%rsi
    3bec:	48 29 fe             	sub    %rdi,%rsi
    3bef:	e8 1c e5 ff ff       	callq  2110 <_ZdlPvm@plt>
    3bf4:	be 40 00 00 00       	mov    $0x40,%esi
    3bf9:	4c 89 f7             	mov    %r14,%rdi
    3bfc:	e8 0f e5 ff ff       	callq  2110 <_ZdlPvm@plt>
    3c01:	be 38 00 00 00       	mov    $0x38,%esi
    3c06:	4c 89 ef             	mov    %r13,%rdi
    3c09:	e8 02 e5 ff ff       	callq  2110 <_ZdlPvm@plt>
    3c0e:	4d 8b 6c 24 28       	mov    0x28(%r12),%r13
    3c13:	4d 85 ed             	test   %r13,%r13
    3c16:	0f 84 de 00 00 00    	je     3cfa <_ZNSt10unique_ptrI10PRTreeNodeIdLi6EESt14default_deleteIS1_EED1Ev+0x1fa>
    3c1c:	4d 8b 75 30          	mov    0x30(%r13),%r14
    3c20:	4d 85 f6             	test   %r14,%r14
    3c23:	74 4a                	je     3c6f <_ZNSt10unique_ptrI10PRTreeNodeIdLi6EESt14default_deleteIS1_EED1Ev+0x16f>
    3c25:	49 8d 7e 30          	lea    0x30(%r14),%rdi
    3c29:	e8 d2 fe ff ff       	callq  3b00 <_ZNSt10unique_ptrI10PRTreeNodeIdLi6EESt14default_deleteIS1_EED1Ev>
    3c2e:	49 8d 7e 28          	lea    0x28(%r14),%rdi
    3c32:	e8 c9 fe ff ff       	callq  3b00 <_ZNSt10unique_ptrI10PRTreeNodeIdLi6EESt14default_deleteIS1_EED1Ev>
    3c37:	4d 8b 7e 20          	mov    0x20(%r14),%r15
    3c3b:	4d 85 ff             	test   %r15,%r15
    3c3e:	74 22                	je     3c62 <_ZNSt10unique_ptrI10PRTreeNodeIdLi6EESt14default_deleteIS1_EED1Ev+0x162>
    3c40:	49 8b 7f 28          	mov    0x28(%r15),%rdi
    3c44:	48 85 ff             	test   %rdi,%rdi
    3c47:	74 0c                	je     3c55 <_ZNSt10unique_ptrI10PRTreeNodeIdLi6EESt14default_deleteIS1_EED1Ev+0x155>
    3c49:	49 8b 77 38          	mov    0x38(%r15),%rsi
    3c4d:	48 29 fe             	sub    %rdi,%rsi
    3c50:	e8 bb e4 ff ff       	callq  2110 <_ZdlPvm@plt>
    3c55:	be 40 00 00 00       	mov    $0x40,%esi
    3c5a:	4c 89 ff             	mov    %r15,%rdi
    3c5d:	e8 ae e4 ff ff       	callq  2110 <_ZdlPvm@plt>
    3c62:	be 38 00 00 00       	mov    $0x38,%esi
    3c67:	4c 89 f7             	mov    %r14,%rdi
    3c6a:	e8 a1 e4 ff ff       	callq  2110 <_ZdlPvm@plt>
    3c6f:	4d 8b 75 28          	mov    0x28(%r13),%r14
    3c73:	4d 85 f6             	test   %r14,%r14
    3c76:	74 4a                	je     3cc2 <_ZNSt10unique_ptrI10PRTreeNodeIdLi6EESt14default_deleteIS1_EED1Ev+0x1c2>
    3c78:	49 8d 7e 30          	lea    0x30(%r14),%rdi
    3c7c:	e8 7f fe ff ff       	callq  3b00 <_ZNSt10unique_ptrI10PRTreeNodeIdLi6EESt14default_deleteIS1_EED1Ev>
    3c81:	49 8d 7e 28          	lea    0x28(%r14),%rdi
    3c85:	e8 76 fe ff ff       	callq  3b00 <_ZNSt10unique_ptrI10PRTreeNodeIdLi6EESt14default_deleteIS1_EED1Ev>
    3c8a:	4d 8b 7e 20          	mov    0x20(%r14),%r15
    3c8e:	4d 85 ff             	test   %r15,%r15
    3c91:	74 22                	je     3cb5 <_ZNSt10unique_ptrI10PRTreeNodeIdLi6EESt14default_deleteIS1_EED1Ev+0x1b5>
    3c93:	49 8b 7f 28          	mov    0x28(%r15),%rdi
    3c97:	48 85 ff             	test   %rdi,%rdi
    3c9a:	74 0c                	je     3ca8 <_ZNSt10unique_ptrI10PRTreeNodeIdLi6EESt14default_deleteIS1_EED1Ev+0x1a8>
    3c9c:	49 8b 77 38          	mov    0x38(%r15),%rsi
    3ca0:	48 29 fe             	sub    %rdi,%rsi
    3ca3:	e8 68 e4 ff ff       	callq  2110 <_ZdlPvm@plt>
    3ca8:	be 40 00 00 00       	mov    $0x40,%esi
    3cad:	4c 89 ff             	mov    %r15,%rdi
    3cb0:	e8 5b e4 ff ff       	callq  2110 <_ZdlPvm@plt>
    3cb5:	be 38 00 00 00       	mov    $0x38,%esi
    3cba:	4c 89 f7             	mov    %r14,%rdi
    3cbd:	e8 4e e4 ff ff       	callq  2110 <_ZdlPvm@plt>
    3cc2:	4d 8b 75 20          	mov    0x20(%r13),%r14
    3cc6:	4d 85 f6             	test   %r14,%r14
    3cc9:	74 22                	je     3ced <_ZNSt10unique_ptrI10PRTreeNodeIdLi6EESt14default_deleteIS1_EED1Ev+0x1ed>
    3ccb:	49 8b 7e 28          	mov    0x28(%r14),%rdi
    3ccf:	48 85 ff             	test   %rdi,%rdi
    3cd2:	74 0c                	je     3ce0 <_ZNSt10unique_ptrI10PRTreeNodeIdLi6EESt14default_deleteIS1_EED1Ev+0x1e0>
    3cd4:	49 8b 76 38          	mov    0x38(%r14),%rsi
    3cd8:	48 29 fe             	sub    %rdi,%rsi
    3cdb:	e8 30 e4 ff ff       	callq  2110 <_ZdlPvm@plt>
    3ce0:	be 40 00 00 00       	mov    $0x40,%esi
    3ce5:	4c 89 f7             	mov    %r14,%rdi
    3ce8:	e8 23 e4 ff ff       	callq  2110 <_ZdlPvm@plt>
    3ced:	be 38 00 00 00       	mov    $0x38,%esi
    3cf2:	4c 89 ef             	mov    %r13,%rdi
    3cf5:	e8 16 e4 ff ff       	callq  2110 <_ZdlPvm@plt>
    3cfa:	4d 8b 6c 24 20       	mov    0x20(%r12),%r13
    3cff:	4d 85 ed             	test   %r13,%r13
    3d02:	74 22                	je     3d26 <_ZNSt10unique_ptrI10PRTreeNodeIdLi6EESt14default_deleteIS1_EED1Ev+0x226>
    3d04:	49 8b 7d 28          	mov    0x28(%r13),%rdi
    3d08:	48 85 ff             	test   %rdi,%rdi
    3d0b:	74 0c                	je     3d19 <_ZNSt10unique_ptrI10PRTreeNodeIdLi6EESt14default_deleteIS1_EED1Ev+0x219>
    3d0d:	49 8b 75 38          	mov    0x38(%r13),%rsi
    3d11:	48 29 fe             	sub    %rdi,%rsi
    3d14:	e8 f7 e3 ff ff       	callq  2110 <_ZdlPvm@plt>
    3d19:	be 40 00 00 00       	mov    $0x40,%esi
    3d1e:	4c 89 ef             	mov    %r13,%rdi
    3d21:	e8 ea e3 ff ff       	callq  2110 <_ZdlPvm@plt>
    3d26:	be 38 00 00 00       	mov    $0x38,%esi
    3d2b:	4c 89 e7             	mov    %r12,%rdi
    3d2e:	e8 dd e3 ff ff       	callq  2110 <_ZdlPvm@plt>
    3d33:	4c 8b 65 28          	mov    0x28(%rbp),%r12
    3d37:	4d 85 e4             	test   %r12,%r12
    3d3a:	0f 84 11 02 00 00    	je     3f51 <_ZNSt10unique_ptrI10PRTreeNodeIdLi6EESt14default_deleteIS1_EED1Ev+0x451>
    3d40:	4d 8b 6c 24 30       	mov    0x30(%r12),%r13
    3d45:	4d 85 ed             	test   %r13,%r13
    3d48:	0f 84 de 00 00 00    	je     3e2c <_ZNSt10unique_ptrI10PRTreeNodeIdLi6EESt14default_deleteIS1_EED1Ev+0x32c>
    3d4e:	4d 8b 75 30          	mov    0x30(%r13),%r14
    3d52:	4d 85 f6             	test   %r14,%r14
    3d55:	74 4a                	je     3da1 <_ZNSt10unique_ptrI10PRTreeNodeIdLi6EESt14default_deleteIS1_EED1Ev+0x2a1>
    3d57:	49 8d 7e 30          	lea    0x30(%r14),%rdi
    3d5b:	e8 a0 fd ff ff       	callq  3b00 <_ZNSt10unique_ptrI10PRTreeNodeIdLi6EESt14default_deleteIS1_EED1Ev>
    3d60:	49 8d 7e 28          	lea    0x28(%r14),%rdi
    3d64:	e8 97 fd ff ff       	callq  3b00 <_ZNSt10unique_ptrI10PRTreeNodeIdLi6EESt14default_deleteIS1_EED1Ev>
    3d69:	4d 8b 7e 20          	mov    0x20(%r14),%r15
    3d6d:	4d 85 ff             	test   %r15,%r15
    3d70:	74 22                	je     3d94 <_ZNSt10unique_ptrI10PRTreeNodeIdLi6EESt14default_deleteIS1_EED1Ev+0x294>
    3d72:	49 8b 7f 28          	mov    0x28(%r15),%rdi
    3d76:	48 85 ff             	test   %rdi,%rdi
    3d79:	74 0c                	je     3d87 <_ZNSt10unique_ptrI10PRTreeNodeIdLi6EESt14default_deleteIS1_EED1Ev+0x287>
    3d7b:	49 8b 77 38          	mov    0x38(%r15),%rsi
    3d7f:	48 29 fe             	sub    %rdi,%rsi
    3d82:	e8 89 e3 ff ff       	callq  2110 <_ZdlPvm@plt>
    3d87:	be 40 00 00 00       	mov    $0x40,%esi
    3d8c:	4c 89 ff             	mov    %r15,%rdi
    3d8f:	e8 7c e3 ff ff       	callq  2110 <_ZdlPvm@plt>
    3d94:	be 38 00 00 00       	mov    $0x38,%esi
    3d99:	4c 89 f7             	mov    %r14,%rdi
    3d9c:	e8 6f e3 ff ff       	callq  2110 <_ZdlPvm@plt>
    3da1:	4d 8b 75 28          	mov    0x28(%r13),%r14
    3da5:	4d 85 f6             	test   %r14,%r14
    3da8:	74 4a                	je     3df4 <_ZNSt10unique_ptrI10PRTreeNodeIdLi6EESt14default_deleteIS1_EED1Ev+0x2f4>
    3daa:	49 8d 7e 30          	lea    0x30(%r14),%rdi
    3dae:	e8 4d fd ff ff       	callq  3b00 <_ZNSt10unique_ptrI10PRTreeNodeIdLi6EESt14default_deleteIS1_EED1Ev>
    3db3:	49 8d 7e 28          	lea    0x28(%r14),%rdi
    3db7:	e8 44 fd ff ff       	callq  3b00 <_ZNSt10unique_ptrI10PRTreeNodeIdLi6EESt14default_deleteIS1_EED1Ev>
    3dbc:	4d 8b 7e 20          	mov    0x20(%r14),%r15
    3dc0:	4d 85 ff             	test   %r15,%r15
    3dc3:	74 22                	je     3de7 <_ZNSt10unique_ptrI10PRTreeNodeIdLi6EESt14default_deleteIS1_EED1Ev+0x2e7>
    3dc5:	49 8b 7f 28          	mov    0x28(%r15),%rdi
    3dc9:	48 85 ff             	test   %rdi,%rdi
    3dcc:	74 0c                	je     3dda <_ZNSt10unique_ptrI10PRTreeNodeIdLi6EESt14default_deleteIS1_EED1Ev+0x2da>
    3dce:	49 8b 77 38          	mov    0x38(%r15),%rsi
    3dd2:	48 29 fe             	sub    %rdi,%rsi
    3dd5:	e8 36 e3 ff ff       	callq  2110 <_ZdlPvm@plt>
    3dda:	be 40 00 00 00       	mov    $0x40,%esi
    3ddf:	4c 89 ff             	mov    %r15,%rdi
    3de2:	e8 29 e3 ff ff       	callq  2110 <_ZdlPvm@plt>
    3de7:	be 38 00 00 00       	mov    $0x38,%esi
    3dec:	4c 89 f7             	mov    %r14,%rdi
    3def:	e8 1c e3 ff ff       	callq  2110 <_ZdlPvm@plt>
    3df4:	4d 8b 75 20          	mov    0x20(%r13),%r14
    3df8:	4d 85 f6             	test   %r14,%r14
    3dfb:	74 22                	je     3e1f <_ZNSt10unique_ptrI10PRTreeNodeIdLi6EESt14default_deleteIS1_EED1Ev+0x31f>
    3dfd:	49 8b 7e 28          	mov    0x28(%r14),%rdi
    3e01:	48 85 ff             	test   %rdi,%rdi
    3e04:	74 0c                	je     3e12 <_ZNSt10unique_ptrI10PRTreeNodeIdLi6EESt14default_deleteIS1_EED1Ev+0x312>
    3e06:	49 8b 76 38          	mov    0x38(%r14),%rsi
    3e0a:	48 29 fe             	sub    %rdi,%rsi
    3e0d:	e8 fe e2 ff ff       	callq  2110 <_ZdlPvm@plt>
    3e12:	be 40 00 00 00       	mov    $0x40,%esi
    3e17:	4c 89 f7             	mov    %r14,%rdi
    3e1a:	e8 f1 e2 ff ff       	callq  2110 <_ZdlPvm@plt>
    3e1f:	be 38 00 00 00       	mov    $0x38,%esi
    3e24:	4c 89 ef             	mov    %r13,%rdi
    3e27:	e8 e4 e2 ff ff       	callq  2110 <_ZdlPvm@plt>
    3e2c:	4d 8b 6c 24 28       	mov    0x28(%r12),%r13
    3e31:	4d 85 ed             	test   %r13,%r13
    3e34:	0f 84 de 00 00 00    	je     3f18 <_ZNSt10unique_ptrI10PRTreeNodeIdLi6EESt14default_deleteIS1_EED1Ev+0x418>
    3e3a:	4d 8b 75 30          	mov    0x30(%r13),%r14
    3e3e:	4d 85 f6             	test   %r14,%r14
    3e41:	74 4a                	je     3e8d <_ZNSt10unique_ptrI10PRTreeNodeIdLi6EESt14default_deleteIS1_EED1Ev+0x38d>
    3e43:	49 8d 7e 30          	lea    0x30(%r14),%rdi
    3e47:	e8 b4 fc ff ff       	callq  3b00 <_ZNSt10unique_ptrI10PRTreeNodeIdLi6EESt14default_deleteIS1_EED1Ev>
    3e4c:	49 8d 7e 28          	lea    0x28(%r14),%rdi
    3e50:	e8 ab fc ff ff       	callq  3b00 <_ZNSt10unique_ptrI10PRTreeNodeIdLi6EESt14default_deleteIS1_EED1Ev>
    3e55:	4d 8b 7e 20          	mov    0x20(%r14),%r15
    3e59:	4d 85 ff             	test   %r15,%r15
    3e5c:	74 22                	je     3e80 <_ZNSt10unique_ptrI10PRTreeNodeIdLi6EESt14default_deleteIS1_EED1Ev+0x380>
    3e5e:	49 8b 7f 28          	mov    0x28(%r15),%rdi
    3e62:	48 85 ff             	test   %rdi,%rdi
    3e65:	74 0c                	je     3e73 <_ZNSt10unique_ptrI10PRTreeNodeIdLi6EESt14default_deleteIS1_EED1Ev+0x373>
    3e67:	49 8b 77 38          	mov    0x38(%r15),%rsi
    3e6b:	48 29 fe             	sub    %rdi,%rsi
    3e6e:	e8 9d e2 ff ff       	callq  2110 <_ZdlPvm@plt>
    3e73:	be 40 00 00 00       	mov    $0x40,%esi
    3e78:	4c 89 ff             	mov    %r15,%rdi
    3e7b:	e8 90 e2 ff ff       	callq  2110 <_ZdlPvm@plt>
    3e80:	be 38 00 00 00       	mov    $0x38,%esi
    3e85:	4c 89 f7             	mov    %r14,%rdi
    3e88:	e8 83 e2 ff ff       	callq  2110 <_ZdlPvm@plt>
    3e8d:	4d 8b 75 28          	mov    0x28(%r13),%r14
    3e91:	4d 85 f6             	test   %r14,%r14
    3e94:	74 4a                	je     3ee0 <_ZNSt10unique_ptrI10PRTreeNodeIdLi6EESt14default_deleteIS1_EED1Ev+0x3e0>
    3e96:	49 8d 7e 30          	lea    0x30(%r14),%rdi
    3e9a:	e8 61 fc ff ff       	callq  3b00 <_ZNSt10unique_ptrI10PRTreeNodeIdLi6EESt14default_deleteIS1_EED1Ev>
    3e9f:	49 8d 7e 28          	lea    0x28(%r14),%rdi
    3ea3:	e8 58 fc ff ff       	callq  3b00 <_ZNSt10unique_ptrI10PRTreeNodeIdLi6EESt14default_deleteIS1_EED1Ev>
    3ea8:	4d 8b 7e 20          	mov    0x20(%r14),%r15
    3eac:	4d 85 ff             	test   %r15,%r15
    3eaf:	74 22                	je     3ed3 <_ZNSt10unique_ptrI10PRTreeNodeIdLi6EESt14default_deleteIS1_EED1Ev+0x3d3>
    3eb1:	49 8b 7f 28          	mov    0x28(%r15),%rdi
    3eb5:	48 85 ff             	test   %rdi,%rdi
    3eb8:	74 0c                	je     3ec6 <_ZNSt10unique_ptrI10PRTreeNodeIdLi6EESt14default_deleteIS1_EED1Ev+0x3c6>
    3eba:	49 8b 77 38          	mov    0x38(%r15),%rsi
    3ebe:	48 29 fe             	sub    %rdi,%rsi
    3ec1:	e8 4a e2 ff ff       	callq  2110 <_ZdlPvm@plt>
    3ec6:	be 40 00 00 00       	mov    $0x40,%esi
    3ecb:	4c 89 ff             	mov    %r15,%rdi
    3ece:	e8 3d e2 ff ff       	callq  2110 <_ZdlPvm@plt>
    3ed3:	be 38 00 00 00       	mov    $0x38,%esi
    3ed8:	4c 89 f7             	mov    %r14,%rdi
    3edb:	e8 30 e2 ff ff       	callq  2110 <_ZdlPvm@plt>
    3ee0:	4d 8b 75 20          	mov    0x20(%r13),%r14
    3ee4:	4d 85 f6             	test   %r14,%r14
    3ee7:	74 22                	je     3f0b <_ZNSt10unique_ptrI10PRTreeNodeIdLi6EESt14default_deleteIS1_EED1Ev+0x40b>
    3ee9:	49 8b 7e 28          	mov    0x28(%r14),%rdi
    3eed:	48 85 ff             	test   %rdi,%rdi
    3ef0:	74 0c                	je     3efe <_ZNSt10unique_ptrI10PRTreeNodeIdLi6EESt14default_deleteIS1_EED1Ev+0x3fe>
    3ef2:	49 8b 76 38          	mov    0x38(%r14),%rsi
    3ef6:	48 29 fe             	sub    %rdi,%rsi
    3ef9:	e8 12 e2 ff ff       	callq  2110 <_ZdlPvm@plt>
    3efe:	be 40 00 00 00       	mov    $0x40,%esi
    3f03:	4c 89 f7             	mov    %r14,%rdi
    3f06:	e8 05 e2 ff ff       	callq  2110 <_ZdlPvm@plt>
    3f0b:	be 38 00 00 00       	mov    $0x38,%esi
    3f10:	4c 89 ef             	mov    %r13,%rdi
    3f13:	e8 f8 e1 ff ff       	callq  2110 <_ZdlPvm@plt>
    3f18:	4d 8b 6c 24 20       	mov    0x20(%r12),%r13
    3f1d:	4d 85 ed             	test   %r13,%r13
    3f20:	74 22                	je     3f44 <_ZNSt10unique_ptrI10PRTreeNodeIdLi6EESt14default_deleteIS1_EED1Ev+0x444>
    3f22:	49 8b 7d 28          	mov    0x28(%r13),%rdi
    3f26:	48 85 ff             	test   %rdi,%rdi
    3f29:	74 0c                	je     3f37 <_ZNSt10unique_ptrI10PRTreeNodeIdLi6EESt14default_deleteIS1_EED1Ev+0x437>
    3f2b:	49 8b 75 38          	mov    0x38(%r13),%rsi
    3f2f:	48 29 fe             	sub    %rdi,%rsi
    3f32:	e8 d9 e1 ff ff       	callq  2110 <_ZdlPvm@plt>
    3f37:	be 40 00 00 00       	mov    $0x40,%esi
    3f3c:	4c 89 ef             	mov    %r13,%rdi
    3f3f:	e8 cc e1 ff ff       	callq  2110 <_ZdlPvm@plt>
    3f44:	be 38 00 00 00       	mov    $0x38,%esi
    3f49:	4c 89 e7             	mov    %r12,%rdi
    3f4c:	e8 bf e1 ff ff       	callq  2110 <_ZdlPvm@plt>
    3f51:	4c 8b 65 20          	mov    0x20(%rbp),%r12
    3f55:	4d 85 e4             	test   %r12,%r12
    3f58:	74 24                	je     3f7e <_ZNSt10unique_ptrI10PRTreeNodeIdLi6EESt14default_deleteIS1_EED1Ev+0x47e>
    3f5a:	49 8b 7c 24 28       	mov    0x28(%r12),%rdi
    3f5f:	48 85 ff             	test   %rdi,%rdi
    3f62:	74 0d                	je     3f71 <_ZNSt10unique_ptrI10PRTreeNodeIdLi6EESt14default_deleteIS1_EED1Ev+0x471>
    3f64:	49 8b 74 24 38       	mov    0x38(%r12),%rsi
    3f69:	48 29 fe             	sub    %rdi,%rsi
    3f6c:	e8 9f e1 ff ff       	callq  2110 <_ZdlPvm@plt>
    3f71:	be 40 00 00 00       	mov    $0x40,%esi
    3f76:	4c 89 e7             	mov    %r12,%rdi
    3f79:	e8 92 e1 ff ff       	callq  2110 <_ZdlPvm@plt>
    3f7e:	48 89 ef             	mov    %rbp,%rdi
    3f81:	5d                   	pop    %rbp
    3f82:	41 5c                	pop    %r12
    3f84:	be 38 00 00 00       	mov    $0x38,%esi
    3f89:	41 5d                	pop    %r13
    3f8b:	41 5e                	pop    %r14
    3f8d:	41 5f                	pop    %r15
    3f8f:	e9 7c e1 ff ff       	jmpq   2110 <_ZdlPvm@plt>
    3f94:	66 66 2e 0f 1f 84 00 	data16 nopw %cs:0x0(%rax,%rax,1)
    3f9b:	00 00 00 00 
    3f9f:	90                   	nop
    3fa0:	5d                   	pop    %rbp
    3fa1:	41 5c                	pop    %r12
    3fa3:	41 5d                	pop    %r13
    3fa5:	41 5e                	pop    %r14
    3fa7:	41 5f                	pop    %r15
    3fa9:	c3                   	retq   
    3faa:	66 0f 1f 44 00 00    	nopw   0x0(%rax,%rax,1)

0000000000003fb0 <_ZNSt6vectorISt4pairId11BoundingBoxESaIS2_EE17_M_realloc_insertIJRdRS1_EEEvN9__gnu_cxx17__normal_iteratorIPS2_S4_EEDpOT_>:
    3fb0:	41 57                	push   %r15
    3fb2:	41 56                	push   %r14
    3fb4:	41 55                	push   %r13
    3fb6:	41 54                	push   %r12
    3fb8:	55                   	push   %rbp
    3fb9:	53                   	push   %rbx
    3fba:	48 89 f5             	mov    %rsi,%rbp
    3fbd:	48 be cd cc cc cc cc 	movabs $0xcccccccccccccccd,%rsi
    3fc4:	cc cc cc 
    3fc7:	48 83 ec 28          	sub    $0x28,%rsp
    3fcb:	4c 8b 77 08          	mov    0x8(%rdi),%r14
    3fcf:	4c 8b 2f             	mov    (%rdi),%r13
    3fd2:	48 89 fb             	mov    %rdi,%rbx
    3fd5:	48 bf 33 33 33 33 33 	movabs $0x333333333333333,%rdi
    3fdc:	33 33 03 
    3fdf:	4c 89 f0             	mov    %r14,%rax
    3fe2:	4c 29 e8             	sub    %r13,%rax
    3fe5:	48 c1 f8 03          	sar    $0x3,%rax
    3fe9:	48 0f af c6          	imul   %rsi,%rax
    3fed:	48 39 f8             	cmp    %rdi,%rax
    3ff0:	0f 84 a6 01 00 00    	je     419c <_ZNSt6vectorISt4pairId11BoundingBoxESaIS2_EE17_M_realloc_insertIJRdRS1_EEEvN9__gnu_cxx17__normal_iteratorIPS2_S4_EEDpOT_+0x1ec>
    3ff6:	48 85 c0             	test   %rax,%rax
    3ff9:	be 01 00 00 00       	mov    $0x1,%esi
    3ffe:	48 0f 45 f0          	cmovne %rax,%rsi
    4002:	45 31 c0             	xor    %r8d,%r8d
    4005:	48 01 f0             	add    %rsi,%rax
    4008:	48 89 ee             	mov    %rbp,%rsi
    400b:	41 0f 92 c0          	setb   %r8b
    400f:	4c 29 ee             	sub    %r13,%rsi
    4012:	4d 85 c0             	test   %r8,%r8
    4015:	0f 85 75 01 00 00    	jne    4190 <_ZNSt6vectorISt4pairId11BoundingBoxESaIS2_EE17_M_realloc_insertIJRdRS1_EEEvN9__gnu_cxx17__normal_iteratorIPS2_S4_EEDpOT_+0x1e0>
    401b:	48 85 c0             	test   %rax,%rax
    401e:	0f 85 1c 01 00 00    	jne    4140 <_ZNSt6vectorISt4pairId11BoundingBoxESaIS2_EE17_M_realloc_insertIJRdRS1_EEEvN9__gnu_cxx17__normal_iteratorIPS2_S4_EEDpOT_+0x190>
    4024:	41 bc 28 00 00 00    	mov    $0x28,%r12d
    402a:	48 c7 04 24 00 00 00 	movq   $0x0,(%rsp)
    4031:	00 
    4032:	45 31 ff             	xor    %r15d,%r15d
    4035:	c5 fb 10 02          	vmovsd (%rdx),%xmm0
    4039:	49 8d 04 37          	lea    (%r15,%rsi,1),%rax
    403d:	c5 fa 6f 19          	vmovdqu (%rcx),%xmm3
    4041:	c5 fa 6f 61 10       	vmovdqu 0x10(%rcx),%xmm4
    4046:	c5 fb 11 00          	vmovsd %xmm0,(%rax)
    404a:	c5 fa 7f 58 08       	vmovdqu %xmm3,0x8(%rax)
    404f:	c5 fa 7f 60 18       	vmovdqu %xmm4,0x18(%rax)
    4054:	4c 39 ed             	cmp    %r13,%rbp
    4057:	74 5e                	je     40b7 <_ZNSt6vectorISt4pairId11BoundingBoxESaIS2_EE17_M_realloc_insertIJRdRS1_EEEvN9__gnu_cxx17__normal_iteratorIPS2_S4_EEDpOT_+0x107>
    4059:	4c 89 fa             	mov    %r15,%rdx
    405c:	4c 89 e8             	mov    %r13,%rax
    405f:	90                   	nop
    4060:	c5 fa 6f 08          	vmovdqu (%rax),%xmm1
    4064:	48 83 c0 28          	add    $0x28,%rax
    4068:	48 83 c2 28          	add    $0x28,%rdx
    406c:	c5 fa 7f 4a d8       	vmovdqu %xmm1,-0x28(%rdx)
    4071:	c5 fa 6f 50 e8       	vmovdqu -0x18(%rax),%xmm2
    4076:	c5 fa 7f 52 e8       	vmovdqu %xmm2,-0x18(%rdx)
    407b:	48 8b 48 f8          	mov    -0x8(%rax),%rcx
    407f:	48 89 4a f8          	mov    %rcx,-0x8(%rdx)
    4083:	48 39 e8             	cmp    %rbp,%rax
    4086:	75 d8                	jne    4060 <_ZNSt6vectorISt4pairId11BoundingBoxESaIS2_EE17_M_realloc_insertIJRdRS1_EEEvN9__gnu_cxx17__normal_iteratorIPS2_S4_EEDpOT_+0xb0>
    4088:	48 8d 45 d8          	lea    -0x28(%rbp),%rax
    408c:	48 ba cd cc cc cc cc 	movabs $0xccccccccccccccd,%rdx
    4093:	cc cc 0c 
    4096:	4c 29 e8             	sub    %r13,%rax
    4099:	48 c1 e8 03          	shr    $0x3,%rax
    409d:	48 0f af c2          	imul   %rdx,%rax
    40a1:	48 ba ff ff ff ff ff 	movabs $0x1fffffffffffffff,%rdx
    40a8:	ff ff 1f 
    40ab:	48 21 d0             	and    %rdx,%rax
    40ae:	48 8d 44 80 0a       	lea    0xa(%rax,%rax,4),%rax
    40b3:	4d 8d 24 c7          	lea    (%r15,%rax,8),%r12
    40b7:	4c 39 f5             	cmp    %r14,%rbp
    40ba:	74 40                	je     40fc <_ZNSt6vectorISt4pairId11BoundingBoxESaIS2_EE17_M_realloc_insertIJRdRS1_EEEvN9__gnu_cxx17__normal_iteratorIPS2_S4_EEDpOT_+0x14c>
    40bc:	49 29 ee             	sub    %rbp,%r14
    40bf:	48 ba cd cc cc cc cc 	movabs $0xccccccccccccccd,%rdx
    40c6:	cc cc 0c 
    40c9:	4c 89 e7             	mov    %r12,%rdi
    40cc:	48 89 ee             	mov    %rbp,%rsi
    40cf:	49 8d 46 d8          	lea    -0x28(%r14),%rax
    40d3:	48 c1 e8 03          	shr    $0x3,%rax
    40d7:	48 0f af c2          	imul   %rdx,%rax
    40db:	48 ba ff ff ff ff ff 	movabs $0x1fffffffffffffff,%rdx
    40e2:	ff ff 1f 
    40e5:	48 21 d0             	and    %rdx,%rax
    40e8:	4c 8d 74 80 05       	lea    0x5(%rax,%rax,4),%r14
    40ed:	49 c1 e6 03          	shl    $0x3,%r14
    40f1:	4c 89 f2             	mov    %r14,%rdx
    40f4:	4d 01 f4             	add    %r14,%r12
    40f7:	e8 c4 df ff ff       	callq  20c0 <memcpy@plt>
    40fc:	4d 85 ed             	test   %r13,%r13
    40ff:	74 0f                	je     4110 <_ZNSt6vectorISt4pairId11BoundingBoxESaIS2_EE17_M_realloc_insertIJRdRS1_EEEvN9__gnu_cxx17__normal_iteratorIPS2_S4_EEDpOT_+0x160>
    4101:	48 8b 73 10          	mov    0x10(%rbx),%rsi
    4105:	4c 89 ef             	mov    %r13,%rdi
    4108:	4c 29 ee             	sub    %r13,%rsi
    410b:	e8 00 e0 ff ff       	callq  2110 <_ZdlPvm@plt>
    4110:	48 8b 04 24          	mov    (%rsp),%rax
    4114:	c4 c1 f9 6e ef       	vmovq  %r15,%xmm5
    4119:	c4 c3 d1 22 c4 01    	vpinsrq $0x1,%r12,%xmm5,%xmm0
    411f:	c5 fa 7f 03          	vmovdqu %xmm0,(%rbx)
    4123:	48 89 43 10          	mov    %rax,0x10(%rbx)
    4127:	48 83 c4 28          	add    $0x28,%rsp
    412b:	5b                   	pop    %rbx
    412c:	5d                   	pop    %rbp
    412d:	41 5c                	pop    %r12
    412f:	41 5d                	pop    %r13
    4131:	41 5e                	pop    %r14
    4133:	41 5f                	pop    %r15
    4135:	c3                   	retq   
    4136:	66 2e 0f 1f 84 00 00 	nopw   %cs:0x0(%rax,%rax,1)
    413d:	00 00 00 
    4140:	48 39 f8             	cmp    %rdi,%rax
    4143:	48 0f 47 c7          	cmova  %rdi,%rax
    4147:	4c 8d 24 80          	lea    (%rax,%rax,4),%r12
    414b:	49 c1 e4 03          	shl    $0x3,%r12
    414f:	4c 89 e7             	mov    %r12,%rdi
    4152:	48 89 4c 24 18       	mov    %rcx,0x18(%rsp)
    4157:	48 89 54 24 10       	mov    %rdx,0x10(%rsp)
    415c:	48 89 74 24 08       	mov    %rsi,0x8(%rsp)
    4161:	e8 9a df ff ff       	callq  2100 <_Znwm@plt>
    4166:	48 8b 74 24 08       	mov    0x8(%rsp),%rsi
    416b:	49 89 c7             	mov    %rax,%r15
    416e:	4c 01 e0             	add    %r12,%rax
    4171:	48 8b 54 24 10       	mov    0x10(%rsp),%rdx
    4176:	48 8b 4c 24 18       	mov    0x18(%rsp),%rcx
    417b:	48 89 04 24          	mov    %rax,(%rsp)
    417f:	4d 8d 67 28          	lea    0x28(%r15),%r12
    4183:	e9 ad fe ff ff       	jmpq   4035 <_ZNSt6vectorISt4pairId11BoundingBoxESaIS2_EE17_M_realloc_insertIJRdRS1_EEEvN9__gnu_cxx17__normal_iteratorIPS2_S4_EEDpOT_+0x85>
    4188:	0f 1f 84 00 00 00 00 	nopl   0x0(%rax,%rax,1)
    418f:	00 
    4190:	49 bc f8 ff ff ff ff 	movabs $0x7ffffffffffffff8,%r12
    4197:	ff ff 7f 
    419a:	eb b3                	jmp    414f <_ZNSt6vectorISt4pairId11BoundingBoxESaIS2_EE17_M_realloc_insertIJRdRS1_EEEvN9__gnu_cxx17__normal_iteratorIPS2_S4_EEDpOT_+0x19f>
    419c:	48 8d 3d 95 be 00 00 	lea    0xbe95(%rip),%rdi        # 10038 <_IO_stdin_used+0x38>
    41a3:	e8 e8 de ff ff       	callq  2090 <_ZSt20__throw_length_errorPKc@plt>
    41a8:	0f 1f 84 00 00 00 00 	nopl   0x0(%rax,%rax,1)
    41af:	00 

00000000000041b0 <_ZNSt6vectorI4LeafIiLi6EESaIS1_EED1Ev>:
    41b0:	41 54                	push   %r12
    41b2:	55                   	push   %rbp
    41b3:	49 89 fc             	mov    %rdi,%r12
    41b6:	53                   	push   %rbx
    41b7:	48 8b 5f 08          	mov    0x8(%rdi),%rbx
    41bb:	48 8b 2f             	mov    (%rdi),%rbp
    41be:	48 39 eb             	cmp    %rbp,%rbx
    41c1:	74 2f                	je     41f2 <_ZNSt6vectorI4LeafIiLi6EESaIS1_EED1Ev+0x42>
    41c3:	66 66 2e 0f 1f 84 00 	data16 nopw %cs:0x0(%rax,%rax,1)
    41ca:	00 00 00 00 
    41ce:	66 90                	xchg   %ax,%ax
    41d0:	48 8b 7d 28          	mov    0x28(%rbp),%rdi
    41d4:	48 85 ff             	test   %rdi,%rdi
    41d7:	74 37                	je     4210 <_ZNSt6vectorI4LeafIiLi6EESaIS1_EED1Ev+0x60>
    41d9:	48 8b 75 38          	mov    0x38(%rbp),%rsi
    41dd:	48 83 c5 40          	add    $0x40,%rbp
    41e1:	48 29 fe             	sub    %rdi,%rsi
    41e4:	e8 27 df ff ff       	callq  2110 <_ZdlPvm@plt>
    41e9:	48 39 eb             	cmp    %rbp,%rbx
    41ec:	75 e2                	jne    41d0 <_ZNSt6vectorI4LeafIiLi6EESaIS1_EED1Ev+0x20>
    41ee:	49 8b 2c 24          	mov    (%r12),%rbp
    41f2:	48 85 ed             	test   %rbp,%rbp
    41f5:	74 29                	je     4220 <_ZNSt6vectorI4LeafIiLi6EESaIS1_EED1Ev+0x70>
    41f7:	49 8b 74 24 10       	mov    0x10(%r12),%rsi
    41fc:	5b                   	pop    %rbx
    41fd:	48 89 ef             	mov    %rbp,%rdi
    4200:	48 29 ee             	sub    %rbp,%rsi
    4203:	5d                   	pop    %rbp
    4204:	41 5c                	pop    %r12
    4206:	e9 05 df ff ff       	jmpq   2110 <_ZdlPvm@plt>
    420b:	0f 1f 44 00 00       	nopl   0x0(%rax,%rax,1)
    4210:	48 83 c5 40          	add    $0x40,%rbp
    4214:	48 39 eb             	cmp    %rbp,%rbx
    4217:	75 b7                	jne    41d0 <_ZNSt6vectorI4LeafIiLi6EESaIS1_EED1Ev+0x20>
    4219:	eb d3                	jmp    41ee <_ZNSt6vectorI4LeafIiLi6EESaIS1_EED1Ev+0x3e>
    421b:	0f 1f 44 00 00       	nopl   0x0(%rax,%rax,1)
    4220:	5b                   	pop    %rbx
    4221:	5d                   	pop    %rbp
    4222:	41 5c                	pop    %r12
    4224:	c3                   	retq   
    4225:	66 2e 0f 1f 84 00 00 	nopw   %cs:0x0(%rax,%rax,1)
    422c:	00 00 00 
    422f:	90                   	nop

0000000000004230 <_ZNSt6vectorISt10unique_ptrI10PRTreeNodeIdLi6EESt14default_deleteIS2_EESaIS5_EED1Ev>:
    4230:	41 57                	push   %r15
    4232:	41 56                	push   %r14
    4234:	41 55                	push   %r13
    4236:	41 54                	push   %r12
    4238:	55                   	push   %rbp
    4239:	53                   	push   %rbx
    423a:	48 83 ec 28          	sub    $0x28,%rsp
    423e:	48 8b 5f 08          	mov    0x8(%rdi),%rbx
    4242:	48 8b 2f             	mov    (%rdi),%rbp
    4245:	48 89 7c 24 08       	mov    %rdi,0x8(%rsp)
    424a:	48 39 eb             	cmp    %rbp,%rbx
    424d:	0f 84 8a 0c 00 00    	je     4edd <_ZNSt6vectorISt10unique_ptrI10PRTreeNodeIdLi6EESt14default_deleteIS2_EESaIS5_EED1Ev+0xcad>
    4253:	66 66 2e 0f 1f 84 00 	data16 nopw %cs:0x0(%rax,%rax,1)
    425a:	00 00 00 00 
    425e:	66 90                	xchg   %ax,%ax
    4260:	4c 8b 65 00          	mov    0x0(%rbp),%r12
    4264:	4d 85 e4             	test   %r12,%r12
    4267:	0f 84 5b 0c 00 00    	je     4ec8 <_ZNSt6vectorISt10unique_ptrI10PRTreeNodeIdLi6EESt14default_deleteIS2_EESaIS5_EED1Ev+0xc98>
    426d:	4d 8b 6c 24 30       	mov    0x30(%r12),%r13
    4272:	4d 85 ed             	test   %r13,%r13
    4275:	0f 84 fe 05 00 00    	je     4879 <_ZNSt6vectorISt10unique_ptrI10PRTreeNodeIdLi6EESt14default_deleteIS2_EESaIS5_EED1Ev+0x649>
    427b:	4d 8b 7d 30          	mov    0x30(%r13),%r15
    427f:	4d 85 ff             	test   %r15,%r15
    4282:	0f 84 d6 02 00 00    	je     455e <_ZNSt6vectorISt10unique_ptrI10PRTreeNodeIdLi6EESt14default_deleteIS2_EESaIS5_EED1Ev+0x32e>
    4288:	4d 8b 77 30          	mov    0x30(%r15),%r14
    428c:	4d 85 f6             	test   %r14,%r14
    428f:	0f 84 42 01 00 00    	je     43d7 <_ZNSt6vectorISt10unique_ptrI10PRTreeNodeIdLi6EESt14default_deleteIS2_EESaIS5_EED1Ev+0x1a7>
    4295:	4d 8b 4e 30          	mov    0x30(%r14),%r9
    4299:	4d 85 c9             	test   %r9,%r9
    429c:	74 77                	je     4315 <_ZNSt6vectorISt10unique_ptrI10PRTreeNodeIdLi6EESt14default_deleteIS2_EESaIS5_EED1Ev+0xe5>
    429e:	49 8d 79 30          	lea    0x30(%r9),%rdi
    42a2:	4c 89 4c 24 10       	mov    %r9,0x10(%rsp)
    42a7:	e8 54 f8 ff ff       	callq  3b00 <_ZNSt10unique_ptrI10PRTreeNodeIdLi6EESt14default_deleteIS1_EED1Ev>
    42ac:	4c 8b 4c 24 10       	mov    0x10(%rsp),%r9
    42b1:	49 8d 79 28          	lea    0x28(%r9),%rdi
    42b5:	e8 46 f8 ff ff       	callq  3b00 <_ZNSt10unique_ptrI10PRTreeNodeIdLi6EESt14default_deleteIS1_EED1Ev>
    42ba:	4c 8b 4c 24 10       	mov    0x10(%rsp),%r9
    42bf:	4d 8b 51 20          	mov    0x20(%r9),%r10
    42c3:	4d 85 d2             	test   %r10,%r10
    42c6:	74 40                	je     4308 <_ZNSt6vectorISt10unique_ptrI10PRTreeNodeIdLi6EESt14default_deleteIS2_EESaIS5_EED1Ev+0xd8>
    42c8:	49 8b 7a 28          	mov    0x28(%r10),%rdi
    42cc:	48 85 ff             	test   %rdi,%rdi
    42cf:	74 20                	je     42f1 <_ZNSt6vectorISt10unique_ptrI10PRTreeNodeIdLi6EESt14default_deleteIS2_EESaIS5_EED1Ev+0xc1>
    42d1:	49 8b 72 38          	mov    0x38(%r10),%rsi
    42d5:	4c 89 4c 24 18       	mov    %r9,0x18(%rsp)
    42da:	4c 89 54 24 10       	mov    %r10,0x10(%rsp)
    42df:	48 29 fe             	sub    %rdi,%rsi
    42e2:	e8 29 de ff ff       	callq  2110 <_ZdlPvm@plt>
    42e7:	4c 8b 4c 24 18       	mov    0x18(%rsp),%r9
    42ec:	4c 8b 54 24 10       	mov    0x10(%rsp),%r10
    42f1:	be 40 00 00 00       	mov    $0x40,%esi
    42f6:	4c 89 d7             	mov    %r10,%rdi
    42f9:	4c 89 4c 24 10       	mov    %r9,0x10(%rsp)
    42fe:	e8 0d de ff ff       	callq  2110 <_ZdlPvm@plt>
    4303:	4c 8b 4c 24 10       	mov    0x10(%rsp),%r9
    4308:	be 38 00 00 00       	mov    $0x38,%esi
    430d:	4c 89 cf             	mov    %r9,%rdi
    4310:	e8 fb dd ff ff       	callq  2110 <_ZdlPvm@plt>
    4315:	4d 8b 4e 28          	mov    0x28(%r14),%r9
    4319:	4d 85 c9             	test   %r9,%r9
    431c:	74 77                	je     4395 <_ZNSt6vectorISt10unique_ptrI10PRTreeNodeIdLi6EESt14default_deleteIS2_EESaIS5_EED1Ev+0x165>
    431e:	49 8d 79 30          	lea    0x30(%r9),%rdi
    4322:	4c 89 4c 24 10       	mov    %r9,0x10(%rsp)
    4327:	e8 d4 f7 ff ff       	callq  3b00 <_ZNSt10unique_ptrI10PRTreeNodeIdLi6EESt14default_deleteIS1_EED1Ev>
    432c:	4c 8b 4c 24 10       	mov    0x10(%rsp),%r9
    4331:	49 8d 79 28          	lea    0x28(%r9),%rdi
    4335:	e8 c6 f7 ff ff       	callq  3b00 <_ZNSt10unique_ptrI10PRTreeNodeIdLi6EESt14default_deleteIS1_EED1Ev>
    433a:	4c 8b 4c 24 10       	mov    0x10(%rsp),%r9
    433f:	4d 8b 51 20          	mov    0x20(%r9),%r10
    4343:	4d 85 d2             	test   %r10,%r10
    4346:	74 40                	je     4388 <_ZNSt6vectorISt10unique_ptrI10PRTreeNodeIdLi6EESt14default_deleteIS2_EESaIS5_EED1Ev+0x158>
    4348:	49 8b 7a 28          	mov    0x28(%r10),%rdi
    434c:	48 85 ff             	test   %rdi,%rdi
    434f:	74 20                	je     4371 <_ZNSt6vectorISt10unique_ptrI10PRTreeNodeIdLi6EESt14default_deleteIS2_EESaIS5_EED1Ev+0x141>
    4351:	49 8b 72 38          	mov    0x38(%r10),%rsi
    4355:	4c 89 4c 24 18       	mov    %r9,0x18(%rsp)
    435a:	4c 89 54 24 10       	mov    %r10,0x10(%rsp)
    435f:	48 29 fe             	sub    %rdi,%rsi
    4362:	e8 a9 dd ff ff       	callq  2110 <_ZdlPvm@plt>
    4367:	4c 8b 4c 24 18       	mov    0x18(%rsp),%r9
    436c:	4c 8b 54 24 10       	mov    0x10(%rsp),%r10
    4371:	be 40 00 00 00       	mov    $0x40,%esi
    4376:	4c 89 d7             	mov    %r10,%rdi
    4379:	4c 89 4c 24 10       	mov    %r9,0x10(%rsp)
    437e:	e8 8d dd ff ff       	callq  2110 <_ZdlPvm@plt>
    4383:	4c 8b 4c 24 10       	mov    0x10(%rsp),%r9
    4388:	be 38 00 00 00       	mov    $0x38,%esi
    438d:	4c 89 cf             	mov    %r9,%rdi
    4390:	e8 7b dd ff ff       	callq  2110 <_ZdlPvm@plt>
    4395:	4d 8b 4e 20          	mov    0x20(%r14),%r9
    4399:	4d 85 c9             	test   %r9,%r9
    439c:	74 2c                	je     43ca <_ZNSt6vectorISt10unique_ptrI10PRTreeNodeIdLi6EESt14default_deleteIS2_EESaIS5_EED1Ev+0x19a>
    439e:	49 8b 79 28          	mov    0x28(%r9),%rdi
    43a2:	48 85 ff             	test   %rdi,%rdi
    43a5:	74 16                	je     43bd <_ZNSt6vectorISt10unique_ptrI10PRTreeNodeIdLi6EESt14default_deleteIS2_EESaIS5_EED1Ev+0x18d>
    43a7:	49 8b 71 38          	mov    0x38(%r9),%rsi
    43ab:	4c 89 4c 24 10       	mov    %r9,0x10(%rsp)
    43b0:	48 29 fe             	sub    %rdi,%rsi
    43b3:	e8 58 dd ff ff       	callq  2110 <_ZdlPvm@plt>
    43b8:	4c 8b 4c 24 10       	mov    0x10(%rsp),%r9
    43bd:	be 40 00 00 00       	mov    $0x40,%esi
    43c2:	4c 89 cf             	mov    %r9,%rdi
    43c5:	e8 46 dd ff ff       	callq  2110 <_ZdlPvm@plt>
    43ca:	be 38 00 00 00       	mov    $0x38,%esi
    43cf:	4c 89 f7             	mov    %r14,%rdi
    43d2:	e8 39 dd ff ff       	callq  2110 <_ZdlPvm@plt>
    43d7:	4d 8b 77 28          	mov    0x28(%r15),%r14
    43db:	4d 85 f6             	test   %r14,%r14
    43de:	0f 84 42 01 00 00    	je     4526 <_ZNSt6vectorISt10unique_ptrI10PRTreeNodeIdLi6EESt14default_deleteIS2_EESaIS5_EED1Ev+0x2f6>
    43e4:	4d 8b 4e 30          	mov    0x30(%r14),%r9
    43e8:	4d 85 c9             	test   %r9,%r9
    43eb:	74 77                	je     4464 <_ZNSt6vectorISt10unique_ptrI10PRTreeNodeIdLi6EESt14default_deleteIS2_EESaIS5_EED1Ev+0x234>
    43ed:	49 8d 79 30          	lea    0x30(%r9),%rdi
    43f1:	4c 89 4c 24 10       	mov    %r9,0x10(%rsp)
    43f6:	e8 05 f7 ff ff       	callq  3b00 <_ZNSt10unique_ptrI10PRTreeNodeIdLi6EESt14default_deleteIS1_EED1Ev>
    43fb:	4c 8b 4c 24 10       	mov    0x10(%rsp),%r9
    4400:	49 8d 79 28          	lea    0x28(%r9),%rdi
    4404:	e8 f7 f6 ff ff       	callq  3b00 <_ZNSt10unique_ptrI10PRTreeNodeIdLi6EESt14default_deleteIS1_EED1Ev>
    4409:	4c 8b 4c 24 10       	mov    0x10(%rsp),%r9
    440e:	4d 8b 51 20          	mov    0x20(%r9),%r10
    4412:	4d 85 d2             	test   %r10,%r10
    4415:	74 40                	je     4457 <_ZNSt6vectorISt10unique_ptrI10PRTreeNodeIdLi6EESt14default_deleteIS2_EESaIS5_EED1Ev+0x227>
    4417:	49 8b 7a 28          	mov    0x28(%r10),%rdi
    441b:	48 85 ff             	test   %rdi,%rdi
    441e:	74 20                	je     4440 <_ZNSt6vectorISt10unique_ptrI10PRTreeNodeIdLi6EESt14default_deleteIS2_EESaIS5_EED1Ev+0x210>
    4420:	49 8b 72 38          	mov    0x38(%r10),%rsi
    4424:	4c 89 4c 24 18       	mov    %r9,0x18(%rsp)
    4429:	4c 89 54 24 10       	mov    %r10,0x10(%rsp)
    442e:	48 29 fe             	sub    %rdi,%rsi
    4431:	e8 da dc ff ff       	callq  2110 <_ZdlPvm@plt>
    4436:	4c 8b 4c 24 18       	mov    0x18(%rsp),%r9
    443b:	4c 8b 54 24 10       	mov    0x10(%rsp),%r10
    4440:	be 40 00 00 00       	mov    $0x40,%esi
    4445:	4c 89 d7             	mov    %r10,%rdi
    4448:	4c 89 4c 24 10       	mov    %r9,0x10(%rsp)
    444d:	e8 be dc ff ff       	callq  2110 <_ZdlPvm@plt>
    4452:	4c 8b 4c 24 10       	mov    0x10(%rsp),%r9
    4457:	be 38 00 00 00       	mov    $0x38,%esi
    445c:	4c 89 cf             	mov    %r9,%rdi
    445f:	e8 ac dc ff ff       	callq  2110 <_ZdlPvm@plt>
    4464:	4d 8b 4e 28          	mov    0x28(%r14),%r9
    4468:	4d 85 c9             	test   %r9,%r9
    446b:	74 77                	je     44e4 <_ZNSt6vectorISt10unique_ptrI10PRTreeNodeIdLi6EESt14default_deleteIS2_EESaIS5_EED1Ev+0x2b4>
    446d:	49 8d 79 30          	lea    0x30(%r9),%rdi
    4471:	4c 89 4c 24 10       	mov    %r9,0x10(%rsp)
    4476:	e8 85 f6 ff ff       	callq  3b00 <_ZNSt10unique_ptrI10PRTreeNodeIdLi6EESt14default_deleteIS1_EED1Ev>
    447b:	4c 8b 4c 24 10       	mov    0x10(%rsp),%r9
    4480:	49 8d 79 28          	lea    0x28(%r9),%rdi
    4484:	e8 77 f6 ff ff       	callq  3b00 <_ZNSt10unique_ptrI10PRTreeNodeIdLi6EESt14default_deleteIS1_EED1Ev>
    4489:	4c 8b 4c 24 10       	mov    0x10(%rsp),%r9
    448e:	4d 8b 51 20          	mov    0x20(%r9),%r10
    4492:	4d 85 d2             	test   %r10,%r10
    4495:	74 40                	je     44d7 <_ZNSt6vectorISt10unique_ptrI10PRTreeNodeIdLi6EESt14default_deleteIS2_EESaIS5_EED1Ev+0x2a7>
    4497:	49 8b 7a 28          	mov    0x28(%r10),%rdi
    449b:	48 85 ff             	test   %rdi,%rdi
    449e:	74 20                	je     44c0 <_ZNSt6vectorISt10unique_ptrI10PRTreeNodeIdLi6EESt14default_deleteIS2_EESaIS5_EED1Ev+0x290>
    44a0:	49 8b 72 38          	mov    0x38(%r10),%rsi
    44a4:	4c 89 4c 24 18       	mov    %r9,0x18(%rsp)
    44a9:	4c 89 54 24 10       	mov    %r10,0x10(%rsp)
    44ae:	48 29 fe             	sub    %rdi,%rsi
    44b1:	e8 5a dc ff ff       	callq  2110 <_ZdlPvm@plt>
    44b6:	4c 8b 4c 24 18       	mov    0x18(%rsp),%r9
    44bb:	4c 8b 54 24 10       	mov    0x10(%rsp),%r10
    44c0:	be 40 00 00 00       	mov    $0x40,%esi
    44c5:	4c 89 d7             	mov    %r10,%rdi
    44c8:	4c 89 4c 24 10       	mov    %r9,0x10(%rsp)
    44cd:	e8 3e dc ff ff       	callq  2110 <_ZdlPvm@plt>
    44d2:	4c 8b 4c 24 10       	mov    0x10(%rsp),%r9
    44d7:	be 38 00 00 00       	mov    $0x38,%esi
    44dc:	4c 89 cf             	mov    %r9,%rdi
    44df:	e8 2c dc ff ff       	callq  2110 <_ZdlPvm@plt>
    44e4:	4d 8b 4e 20          	mov    0x20(%r14),%r9
    44e8:	4d 85 c9             	test   %r9,%r9
    44eb:	74 2c                	je     4519 <_ZNSt6vectorISt10unique_ptrI10PRTreeNodeIdLi6EESt14default_deleteIS2_EESaIS5_EED1Ev+0x2e9>
    44ed:	49 8b 79 28          	mov    0x28(%r9),%rdi
    44f1:	48 85 ff             	test   %rdi,%rdi
    44f4:	74 16                	je     450c <_ZNSt6vectorISt10unique_ptrI10PRTreeNodeIdLi6EESt14default_deleteIS2_EESaIS5_EED1Ev+0x2dc>
    44f6:	49 8b 71 38          	mov    0x38(%r9),%rsi
    44fa:	4c 89 4c 24 10       	mov    %r9,0x10(%rsp)
    44ff:	48 29 fe             	sub    %rdi,%rsi
    4502:	e8 09 dc ff ff       	callq  2110 <_ZdlPvm@plt>
    4507:	4c 8b 4c 24 10       	mov    0x10(%rsp),%r9
    450c:	be 40 00 00 00       	mov    $0x40,%esi
    4511:	4c 89 cf             	mov    %r9,%rdi
    4514:	e8 f7 db ff ff       	callq  2110 <_ZdlPvm@plt>
    4519:	be 38 00 00 00       	mov    $0x38,%esi
    451e:	4c 89 f7             	mov    %r14,%rdi
    4521:	e8 ea db ff ff       	callq  2110 <_ZdlPvm@plt>
    4526:	4d 8b 77 20          	mov    0x20(%r15),%r14
    452a:	4d 85 f6             	test   %r14,%r14
    452d:	74 22                	je     4551 <_ZNSt6vectorISt10unique_ptrI10PRTreeNodeIdLi6EESt14default_deleteIS2_EESaIS5_EED1Ev+0x321>
    452f:	49 8b 7e 28          	mov    0x28(%r14),%rdi
    4533:	48 85 ff             	test   %rdi,%rdi
    4536:	74 0c                	je     4544 <_ZNSt6vectorISt10unique_ptrI10PRTreeNodeIdLi6EESt14default_deleteIS2_EESaIS5_EED1Ev+0x314>
    4538:	49 8b 76 38          	mov    0x38(%r14),%rsi
    453c:	48 29 fe             	sub    %rdi,%rsi
    453f:	e8 cc db ff ff       	callq  2110 <_ZdlPvm@plt>
    4544:	be 40 00 00 00       	mov    $0x40,%esi
    4549:	4c 89 f7             	mov    %r14,%rdi
    454c:	e8 bf db ff ff       	callq  2110 <_ZdlPvm@plt>
    4551:	be 38 00 00 00       	mov    $0x38,%esi
    4556:	4c 89 ff             	mov    %r15,%rdi
    4559:	e8 b2 db ff ff       	callq  2110 <_ZdlPvm@plt>
    455e:	4d 8b 7d 28          	mov    0x28(%r13),%r15
    4562:	4d 85 ff             	test   %r15,%r15
    4565:	0f 84 d6 02 00 00    	je     4841 <_ZNSt6vectorISt10unique_ptrI10PRTreeNodeIdLi6EESt14default_deleteIS2_EESaIS5_EED1Ev+0x611>
    456b:	4d 8b 77 30          	mov    0x30(%r15),%r14
    456f:	4d 85 f6             	test   %r14,%r14
    4572:	0f 84 42 01 00 00    	je     46ba <_ZNSt6vectorISt10unique_ptrI10PRTreeNodeIdLi6EESt14default_deleteIS2_EESaIS5_EED1Ev+0x48a>
    4578:	4d 8b 4e 30          	mov    0x30(%r14),%r9
    457c:	4d 85 c9             	test   %r9,%r9
    457f:	74 77                	je     45f8 <_ZNSt6vectorISt10unique_ptrI10PRTreeNodeIdLi6EESt14default_deleteIS2_EESaIS5_EED1Ev+0x3c8>
    4581:	49 8d 79 30          	lea    0x30(%r9),%rdi
    4585:	4c 89 4c 24 10       	mov    %r9,0x10(%rsp)
    458a:	e8 71 f5 ff ff       	callq  3b00 <_ZNSt10unique_ptrI10PRTreeNodeIdLi6EESt14default_deleteIS1_EED1Ev>
    458f:	4c 8b 4c 24 10       	mov    0x10(%rsp),%r9
    4594:	49 8d 79 28          	lea    0x28(%r9),%rdi
    4598:	e8 63 f5 ff ff       	callq  3b00 <_ZNSt10unique_ptrI10PRTreeNodeIdLi6EESt14default_deleteIS1_EED1Ev>
    459d:	4c 8b 4c 24 10       	mov    0x10(%rsp),%r9
    45a2:	4d 8b 51 20          	mov    0x20(%r9),%r10
    45a6:	4d 85 d2             	test   %r10,%r10
    45a9:	74 40                	je     45eb <_ZNSt6vectorISt10unique_ptrI10PRTreeNodeIdLi6EESt14default_deleteIS2_EESaIS5_EED1Ev+0x3bb>
    45ab:	49 8b 7a 28          	mov    0x28(%r10),%rdi
    45af:	48 85 ff             	test   %rdi,%rdi
    45b2:	74 20                	je     45d4 <_ZNSt6vectorISt10unique_ptrI10PRTreeNodeIdLi6EESt14default_deleteIS2_EESaIS5_EED1Ev+0x3a4>
    45b4:	49 8b 72 38          	mov    0x38(%r10),%rsi
    45b8:	4c 89 4c 24 18       	mov    %r9,0x18(%rsp)
    45bd:	4c 89 54 24 10       	mov    %r10,0x10(%rsp)
    45c2:	48 29 fe             	sub    %rdi,%rsi
    45c5:	e8 46 db ff ff       	callq  2110 <_ZdlPvm@plt>
    45ca:	4c 8b 4c 24 18       	mov    0x18(%rsp),%r9
    45cf:	4c 8b 54 24 10       	mov    0x10(%rsp),%r10
    45d4:	be 40 00 00 00       	mov    $0x40,%esi
    45d9:	4c 89 d7             	mov    %r10,%rdi
    45dc:	4c 89 4c 24 10       	mov    %r9,0x10(%rsp)
    45e1:	e8 2a db ff ff       	callq  2110 <_ZdlPvm@plt>
    45e6:	4c 8b 4c 24 10       	mov    0x10(%rsp),%r9
    45eb:	be 38 00 00 00       	mov    $0x38,%esi
    45f0:	4c 89 cf             	mov    %r9,%rdi
    45f3:	e8 18 db ff ff       	callq  2110 <_ZdlPvm@plt>
    45f8:	4d 8b 4e 28          	mov    0x28(%r14),%r9
    45fc:	4d 85 c9             	test   %r9,%r9
    45ff:	74 77                	je     4678 <_ZNSt6vectorISt10unique_ptrI10PRTreeNodeIdLi6EESt14default_deleteIS2_EESaIS5_EED1Ev+0x448>
    4601:	49 8d 79 30          	lea    0x30(%r9),%rdi
    4605:	4c 89 4c 24 10       	mov    %r9,0x10(%rsp)
    460a:	e8 f1 f4 ff ff       	callq  3b00 <_ZNSt10unique_ptrI10PRTreeNodeIdLi6EESt14default_deleteIS1_EED1Ev>
    460f:	4c 8b 4c 24 10       	mov    0x10(%rsp),%r9
    4614:	49 8d 79 28          	lea    0x28(%r9),%rdi
    4618:	e8 e3 f4 ff ff       	callq  3b00 <_ZNSt10unique_ptrI10PRTreeNodeIdLi6EESt14default_deleteIS1_EED1Ev>
    461d:	4c 8b 4c 24 10       	mov    0x10(%rsp),%r9
    4622:	4d 8b 51 20          	mov    0x20(%r9),%r10
    4626:	4d 85 d2             	test   %r10,%r10
    4629:	74 40                	je     466b <_ZNSt6vectorISt10unique_ptrI10PRTreeNodeIdLi6EESt14default_deleteIS2_EESaIS5_EED1Ev+0x43b>
    462b:	49 8b 7a 28          	mov    0x28(%r10),%rdi
    462f:	48 85 ff             	test   %rdi,%rdi
    4632:	74 20                	je     4654 <_ZNSt6vectorISt10unique_ptrI10PRTreeNodeIdLi6EESt14default_deleteIS2_EESaIS5_EED1Ev+0x424>
    4634:	49 8b 72 38          	mov    0x38(%r10),%rsi
    4638:	4c 89 4c 24 18       	mov    %r9,0x18(%rsp)
    463d:	4c 89 54 24 10       	mov    %r10,0x10(%rsp)
    4642:	48 29 fe             	sub    %rdi,%rsi
    4645:	e8 c6 da ff ff       	callq  2110 <_ZdlPvm@plt>
    464a:	4c 8b 4c 24 18       	mov    0x18(%rsp),%r9
    464f:	4c 8b 54 24 10       	mov    0x10(%rsp),%r10
    4654:	be 40 00 00 00       	mov    $0x40,%esi
    4659:	4c 89 d7             	mov    %r10,%rdi
    465c:	4c 89 4c 24 10       	mov    %r9,0x10(%rsp)
    4661:	e8 aa da ff ff       	callq  2110 <_ZdlPvm@plt>
    4666:	4c 8b 4c 24 10       	mov    0x10(%rsp),%r9
    466b:	be 38 00 00 00       	mov    $0x38,%esi
    4670:	4c 89 cf             	mov    %r9,%rdi
    4673:	e8 98 da ff ff       	callq  2110 <_ZdlPvm@plt>
    4678:	4d 8b 4e 20          	mov    0x20(%r14),%r9
    467c:	4d 85 c9             	test   %r9,%r9
    467f:	74 2c                	je     46ad <_ZNSt6vectorISt10unique_ptrI10PRTreeNodeIdLi6EESt14default_deleteIS2_EESaIS5_EED1Ev+0x47d>
    4681:	49 8b 79 28          	mov    0x28(%r9),%rdi
    4685:	48 85 ff             	test   %rdi,%rdi
    4688:	74 16                	je     46a0 <_ZNSt6vectorISt10unique_ptrI10PRTreeNodeIdLi6EESt14default_deleteIS2_EESaIS5_EED1Ev+0x470>
    468a:	49 8b 71 38          	mov    0x38(%r9),%rsi
    468e:	4c 89 4c 24 10       	mov    %r9,0x10(%rsp)
    4693:	48 29 fe             	sub    %rdi,%rsi
    4696:	e8 75 da ff ff       	callq  2110 <_ZdlPvm@plt>
    469b:	4c 8b 4c 24 10       	mov    0x10(%rsp),%r9
    46a0:	be 40 00 00 00       	mov    $0x40,%esi
    46a5:	4c 89 cf             	mov    %r9,%rdi
    46a8:	e8 63 da ff ff       	callq  2110 <_ZdlPvm@plt>
    46ad:	be 38 00 00 00       	mov    $0x38,%esi
    46b2:	4c 89 f7             	mov    %r14,%rdi
    46b5:	e8 56 da ff ff       	callq  2110 <_ZdlPvm@plt>
    46ba:	4d 8b 77 28          	mov    0x28(%r15),%r14
    46be:	4d 85 f6             	test   %r14,%r14
    46c1:	0f 84 42 01 00 00    	je     4809 <_ZNSt6vectorISt10unique_ptrI10PRTreeNodeIdLi6EESt14default_deleteIS2_EESaIS5_EED1Ev+0x5d9>
    46c7:	4d 8b 4e 30          	mov    0x30(%r14),%r9
    46cb:	4d 85 c9             	test   %r9,%r9
    46ce:	74 77                	je     4747 <_ZNSt6vectorISt10unique_ptrI10PRTreeNodeIdLi6EESt14default_deleteIS2_EESaIS5_EED1Ev+0x517>
    46d0:	49 8d 79 30          	lea    0x30(%r9),%rdi
    46d4:	4c 89 4c 24 10       	mov    %r9,0x10(%rsp)
    46d9:	e8 22 f4 ff ff       	callq  3b00 <_ZNSt10unique_ptrI10PRTreeNodeIdLi6EESt14default_deleteIS1_EED1Ev>
    46de:	4c 8b 4c 24 10       	mov    0x10(%rsp),%r9
    46e3:	49 8d 79 28          	lea    0x28(%r9),%rdi
    46e7:	e8 14 f4 ff ff       	callq  3b00 <_ZNSt10unique_ptrI10PRTreeNodeIdLi6EESt14default_deleteIS1_EED1Ev>
    46ec:	4c 8b 4c 24 10       	mov    0x10(%rsp),%r9
    46f1:	4d 8b 51 20          	mov    0x20(%r9),%r10
    46f5:	4d 85 d2             	test   %r10,%r10
    46f8:	74 40                	je     473a <_ZNSt6vectorISt10unique_ptrI10PRTreeNodeIdLi6EESt14default_deleteIS2_EESaIS5_EED1Ev+0x50a>
    46fa:	49 8b 7a 28          	mov    0x28(%r10),%rdi
    46fe:	48 85 ff             	test   %rdi,%rdi
    4701:	74 20                	je     4723 <_ZNSt6vectorISt10unique_ptrI10PRTreeNodeIdLi6EESt14default_deleteIS2_EESaIS5_EED1Ev+0x4f3>
    4703:	49 8b 72 38          	mov    0x38(%r10),%rsi
    4707:	4c 89 4c 24 18       	mov    %r9,0x18(%rsp)
    470c:	4c 89 54 24 10       	mov    %r10,0x10(%rsp)
    4711:	48 29 fe             	sub    %rdi,%rsi
    4714:	e8 f7 d9 ff ff       	callq  2110 <_ZdlPvm@plt>
    4719:	4c 8b 4c 24 18       	mov    0x18(%rsp),%r9
    471e:	4c 8b 54 24 10       	mov    0x10(%rsp),%r10
    4723:	be 40 00 00 00       	mov    $0x40,%esi
    4728:	4c 89 d7             	mov    %r10,%rdi
    472b:	4c 89 4c 24 10       	mov    %r9,0x10(%rsp)
    4730:	e8 db d9 ff ff       	callq  2110 <_ZdlPvm@plt>
    4735:	4c 8b 4c 24 10       	mov    0x10(%rsp),%r9
    473a:	be 38 00 00 00       	mov    $0x38,%esi
    473f:	4c 89 cf             	mov    %r9,%rdi
    4742:	e8 c9 d9 ff ff       	callq  2110 <_ZdlPvm@plt>
    4747:	4d 8b 4e 28          	mov    0x28(%r14),%r9
    474b:	4d 85 c9             	test   %r9,%r9
    474e:	74 77                	je     47c7 <_ZNSt6vectorISt10unique_ptrI10PRTreeNodeIdLi6EESt14default_deleteIS2_EESaIS5_EED1Ev+0x597>
    4750:	49 8d 79 30          	lea    0x30(%r9),%rdi
    4754:	4c 89 4c 24 10       	mov    %r9,0x10(%rsp)
    4759:	e8 a2 f3 ff ff       	callq  3b00 <_ZNSt10unique_ptrI10PRTreeNodeIdLi6EESt14default_deleteIS1_EED1Ev>
    475e:	4c 8b 4c 24 10       	mov    0x10(%rsp),%r9
    4763:	49 8d 79 28          	lea    0x28(%r9),%rdi
    4767:	e8 94 f3 ff ff       	callq  3b00 <_ZNSt10unique_ptrI10PRTreeNodeIdLi6EESt14default_deleteIS1_EED1Ev>
    476c:	4c 8b 4c 24 10       	mov    0x10(%rsp),%r9
    4771:	4d 8b 51 20          	mov    0x20(%r9),%r10
    4775:	4d 85 d2             	test   %r10,%r10
    4778:	74 40                	je     47ba <_ZNSt6vectorISt10unique_ptrI10PRTreeNodeIdLi6EESt14default_deleteIS2_EESaIS5_EED1Ev+0x58a>
    477a:	49 8b 7a 28          	mov    0x28(%r10),%rdi
    477e:	48 85 ff             	test   %rdi,%rdi
    4781:	74 20                	je     47a3 <_ZNSt6vectorISt10unique_ptrI10PRTreeNodeIdLi6EESt14default_deleteIS2_EESaIS5_EED1Ev+0x573>
    4783:	49 8b 72 38          	mov    0x38(%r10),%rsi
    4787:	4c 89 4c 24 18       	mov    %r9,0x18(%rsp)
    478c:	4c 89 54 24 10       	mov    %r10,0x10(%rsp)
    4791:	48 29 fe             	sub    %rdi,%rsi
    4794:	e8 77 d9 ff ff       	callq  2110 <_ZdlPvm@plt>
    4799:	4c 8b 4c 24 18       	mov    0x18(%rsp),%r9
    479e:	4c 8b 54 24 10       	mov    0x10(%rsp),%r10
    47a3:	be 40 00 00 00       	mov    $0x40,%esi
    47a8:	4c 89 d7             	mov    %r10,%rdi
    47ab:	4c 89 4c 24 10       	mov    %r9,0x10(%rsp)
    47b0:	e8 5b d9 ff ff       	callq  2110 <_ZdlPvm@plt>
    47b5:	4c 8b 4c 24 10       	mov    0x10(%rsp),%r9
    47ba:	be 38 00 00 00       	mov    $0x38,%esi
    47bf:	4c 89 cf             	mov    %r9,%rdi
    47c2:	e8 49 d9 ff ff       	callq  2110 <_ZdlPvm@plt>
    47c7:	4d 8b 4e 20          	mov    0x20(%r14),%r9
    47cb:	4d 85 c9             	test   %r9,%r9
    47ce:	74 2c                	je     47fc <_ZNSt6vectorISt10unique_ptrI10PRTreeNodeIdLi6EESt14default_deleteIS2_EESaIS5_EED1Ev+0x5cc>
    47d0:	49 8b 79 28          	mov    0x28(%r9),%rdi
    47d4:	48 85 ff             	test   %rdi,%rdi
    47d7:	74 16                	je     47ef <_ZNSt6vectorISt10unique_ptrI10PRTreeNodeIdLi6EESt14default_deleteIS2_EESaIS5_EED1Ev+0x5bf>
    47d9:	49 8b 71 38          	mov    0x38(%r9),%rsi
    47dd:	4c 89 4c 24 10       	mov    %r9,0x10(%rsp)
    47e2:	48 29 fe             	sub    %rdi,%rsi
    47e5:	e8 26 d9 ff ff       	callq  2110 <_ZdlPvm@plt>
    47ea:	4c 8b 4c 24 10       	mov    0x10(%rsp),%r9
    47ef:	be 40 00 00 00       	mov    $0x40,%esi
    47f4:	4c 89 cf             	mov    %r9,%rdi
    47f7:	e8 14 d9 ff ff       	callq  2110 <_ZdlPvm@plt>
    47fc:	be 38 00 00 00       	mov    $0x38,%esi
    4801:	4c 89 f7             	mov    %r14,%rdi
    4804:	e8 07 d9 ff ff       	callq  2110 <_ZdlPvm@plt>
    4809:	4d 8b 77 20          	mov    0x20(%r15),%r14
    480d:	4d 85 f6             	test   %r14,%r14
    4810:	74 22                	je     4834 <_ZNSt6vectorISt10unique_ptrI10PRTreeNodeIdLi6EESt14default_deleteIS2_EESaIS5_EED1Ev+0x604>
    4812:	49 8b 7e 28          	mov    0x28(%r14),%rdi
    4816:	48 85 ff             	test   %rdi,%rdi
    4819:	74 0c                	je     4827 <_ZNSt6vectorISt10unique_ptrI10PRTreeNodeIdLi6EESt14default_deleteIS2_EESaIS5_EED1Ev+0x5f7>
    481b:	49 8b 76 38          	mov    0x38(%r14),%rsi
    481f:	48 29 fe             	sub    %rdi,%rsi
    4822:	e8 e9 d8 ff ff       	callq  2110 <_ZdlPvm@plt>
    4827:	be 40 00 00 00       	mov    $0x40,%esi
    482c:	4c 89 f7             	mov    %r14,%rdi
    482f:	e8 dc d8 ff ff       	callq  2110 <_ZdlPvm@plt>
    4834:	be 38 00 00 00       	mov    $0x38,%esi
    4839:	4c 89 ff             	mov    %r15,%rdi
    483c:	e8 cf d8 ff ff       	callq  2110 <_ZdlPvm@plt>
    4841:	4d 8b 7d 20          	mov    0x20(%r13),%r15
    4845:	4d 85 ff             	test   %r15,%r15
    4848:	74 22                	je     486c <_ZNSt6vectorISt10unique_ptrI10PRTreeNodeIdLi6EESt14default_deleteIS2_EESaIS5_EED1Ev+0x63c>
    484a:	49 8b 7f 28          	mov    0x28(%r15),%rdi
    484e:	48 85 ff             	test   %rdi,%rdi
    4851:	74 0c                	je     485f <_ZNSt6vectorISt10unique_ptrI10PRTreeNodeIdLi6EESt14default_deleteIS2_EESaIS5_EED1Ev+0x62f>
    4853:	49 8b 77 38          	mov    0x38(%r15),%rsi
    4857:	48 29 fe             	sub    %rdi,%rsi
    485a:	e8 b1 d8 ff ff       	callq  2110 <_ZdlPvm@plt>
    485f:	be 40 00 00 00       	mov    $0x40,%esi
    4864:	4c 89 ff             	mov    %r15,%rdi
    4867:	e8 a4 d8 ff ff       	callq  2110 <_ZdlPvm@plt>
    486c:	be 38 00 00 00       	mov    $0x38,%esi
    4871:	4c 89 ef             	mov    %r13,%rdi
    4874:	e8 97 d8 ff ff       	callq  2110 <_ZdlPvm@plt>
    4879:	4d 8b 6c 24 28       	mov    0x28(%r12),%r13
    487e:	4d 85 ed             	test   %r13,%r13
    4881:	0f 84 08 06 00 00    	je     4e8f <_ZNSt6vectorISt10unique_ptrI10PRTreeNodeIdLi6EESt14default_deleteIS2_EESaIS5_EED1Ev+0xc5f>
    4887:	4d 8b 7d 30          	mov    0x30(%r13),%r15
    488b:	4d 85 ff             	test   %r15,%r15
    488e:	0f 84 d6 02 00 00    	je     4b6a <_ZNSt6vectorISt10unique_ptrI10PRTreeNodeIdLi6EESt14default_deleteIS2_EESaIS5_EED1Ev+0x93a>
    4894:	4d 8b 77 30          	mov    0x30(%r15),%r14
    4898:	4d 85 f6             	test   %r14,%r14
    489b:	0f 84 42 01 00 00    	je     49e3 <_ZNSt6vectorISt10unique_ptrI10PRTreeNodeIdLi6EESt14default_deleteIS2_EESaIS5_EED1Ev+0x7b3>
    48a1:	4d 8b 4e 30          	mov    0x30(%r14),%r9
    48a5:	4d 85 c9             	test   %r9,%r9
    48a8:	74 77                	je     4921 <_ZNSt6vectorISt10unique_ptrI10PRTreeNodeIdLi6EESt14default_deleteIS2_EESaIS5_EED1Ev+0x6f1>
    48aa:	49 8d 79 30          	lea    0x30(%r9),%rdi
    48ae:	4c 89 4c 24 10       	mov    %r9,0x10(%rsp)
    48b3:	e8 48 f2 ff ff       	callq  3b00 <_ZNSt10unique_ptrI10PRTreeNodeIdLi6EESt14default_deleteIS1_EED1Ev>
    48b8:	4c 8b 4c 24 10       	mov    0x10(%rsp),%r9
    48bd:	49 8d 79 28          	lea    0x28(%r9),%rdi
    48c1:	e8 3a f2 ff ff       	callq  3b00 <_ZNSt10unique_ptrI10PRTreeNodeIdLi6EESt14default_deleteIS1_EED1Ev>
    48c6:	4c 8b 4c 24 10       	mov    0x10(%rsp),%r9
    48cb:	4d 8b 51 20          	mov    0x20(%r9),%r10
    48cf:	4d 85 d2             	test   %r10,%r10
    48d2:	74 40                	je     4914 <_ZNSt6vectorISt10unique_ptrI10PRTreeNodeIdLi6EESt14default_deleteIS2_EESaIS5_EED1Ev+0x6e4>
    48d4:	49 8b 7a 28          	mov    0x28(%r10),%rdi
    48d8:	48 85 ff             	test   %rdi,%rdi
    48db:	74 20                	je     48fd <_ZNSt6vectorISt10unique_ptrI10PRTreeNodeIdLi6EESt14default_deleteIS2_EESaIS5_EED1Ev+0x6cd>
    48dd:	49 8b 72 38          	mov    0x38(%r10),%rsi
    48e1:	4c 89 4c 24 18       	mov    %r9,0x18(%rsp)
    48e6:	4c 89 54 24 10       	mov    %r10,0x10(%rsp)
    48eb:	48 29 fe             	sub    %rdi,%rsi
    48ee:	e8 1d d8 ff ff       	callq  2110 <_ZdlPvm@plt>
    48f3:	4c 8b 4c 24 18       	mov    0x18(%rsp),%r9
    48f8:	4c 8b 54 24 10       	mov    0x10(%rsp),%r10
    48fd:	be 40 00 00 00       	mov    $0x40,%esi
    4902:	4c 89 d7             	mov    %r10,%rdi
    4905:	4c 89 4c 24 10       	mov    %r9,0x10(%rsp)
    490a:	e8 01 d8 ff ff       	callq  2110 <_ZdlPvm@plt>
    490f:	4c 8b 4c 24 10       	mov    0x10(%rsp),%r9
    4914:	be 38 00 00 00       	mov    $0x38,%esi
    4919:	4c 89 cf             	mov    %r9,%rdi
    491c:	e8 ef d7 ff ff       	callq  2110 <_ZdlPvm@plt>
    4921:	4d 8b 4e 28          	mov    0x28(%r14),%r9
    4925:	4d 85 c9             	test   %r9,%r9
    4928:	74 77                	je     49a1 <_ZNSt6vectorISt10unique_ptrI10PRTreeNodeIdLi6EESt14default_deleteIS2_EESaIS5_EED1Ev+0x771>
    492a:	49 8d 79 30          	lea    0x30(%r9),%rdi
    492e:	4c 89 4c 24 10       	mov    %r9,0x10(%rsp)
    4933:	e8 c8 f1 ff ff       	callq  3b00 <_ZNSt10unique_ptrI10PRTreeNodeIdLi6EESt14default_deleteIS1_EED1Ev>
    4938:	4c 8b 4c 24 10       	mov    0x10(%rsp),%r9
    493d:	49 8d 79 28          	lea    0x28(%r9),%rdi
    4941:	e8 ba f1 ff ff       	callq  3b00 <_ZNSt10unique_ptrI10PRTreeNodeIdLi6EESt14default_deleteIS1_EED1Ev>
    4946:	4c 8b 4c 24 10       	mov    0x10(%rsp),%r9
    494b:	4d 8b 51 20          	mov    0x20(%r9),%r10
    494f:	4d 85 d2             	test   %r10,%r10
    4952:	74 40                	je     4994 <_ZNSt6vectorISt10unique_ptrI10PRTreeNodeIdLi6EESt14default_deleteIS2_EESaIS5_EED1Ev+0x764>
    4954:	49 8b 7a 28          	mov    0x28(%r10),%rdi
    4958:	48 85 ff             	test   %rdi,%rdi
    495b:	74 20                	je     497d <_ZNSt6vectorISt10unique_ptrI10PRTreeNodeIdLi6EESt14default_deleteIS2_EESaIS5_EED1Ev+0x74d>
    495d:	49 8b 72 38          	mov    0x38(%r10),%rsi
    4961:	4c 89 4c 24 18       	mov    %r9,0x18(%rsp)
    4966:	4c 89 54 24 10       	mov    %r10,0x10(%rsp)
    496b:	48 29 fe             	sub    %rdi,%rsi
    496e:	e8 9d d7 ff ff       	callq  2110 <_ZdlPvm@plt>
    4973:	4c 8b 4c 24 18       	mov    0x18(%rsp),%r9
    4978:	4c 8b 54 24 10       	mov    0x10(%rsp),%r10
    497d:	be 40 00 00 00       	mov    $0x40,%esi
    4982:	4c 89 d7             	mov    %r10,%rdi
    4985:	4c 89 4c 24 10       	mov    %r9,0x10(%rsp)
    498a:	e8 81 d7 ff ff       	callq  2110 <_ZdlPvm@plt>
    498f:	4c 8b 4c 24 10       	mov    0x10(%rsp),%r9
    4994:	be 38 00 00 00       	mov    $0x38,%esi
    4999:	4c 89 cf             	mov    %r9,%rdi
    499c:	e8 6f d7 ff ff       	callq  2110 <_ZdlPvm@plt>
    49a1:	4d 8b 4e 20          	mov    0x20(%r14),%r9
    49a5:	4d 85 c9             	test   %r9,%r9
    49a8:	74 2c                	je     49d6 <_ZNSt6vectorISt10unique_ptrI10PRTreeNodeIdLi6EESt14default_deleteIS2_EESaIS5_EED1Ev+0x7a6>
    49aa:	49 8b 79 28          	mov    0x28(%r9),%rdi
    49ae:	48 85 ff             	test   %rdi,%rdi
    49b1:	74 16                	je     49c9 <_ZNSt6vectorISt10unique_ptrI10PRTreeNodeIdLi6EESt14default_deleteIS2_EESaIS5_EED1Ev+0x799>
    49b3:	49 8b 71 38          	mov    0x38(%r9),%rsi
    49b7:	4c 89 4c 24 10       	mov    %r9,0x10(%rsp)
    49bc:	48 29 fe             	sub    %rdi,%rsi
    49bf:	e8 4c d7 ff ff       	callq  2110 <_ZdlPvm@plt>
    49c4:	4c 8b 4c 24 10       	mov    0x10(%rsp),%r9
    49c9:	be 40 00 00 00       	mov    $0x40,%esi
    49ce:	4c 89 cf             	mov    %r9,%rdi
    49d1:	e8 3a d7 ff ff       	callq  2110 <_ZdlPvm@plt>
    49d6:	be 38 00 00 00       	mov    $0x38,%esi
    49db:	4c 89 f7             	mov    %r14,%rdi
    49de:	e8 2d d7 ff ff       	callq  2110 <_ZdlPvm@plt>
    49e3:	4d 8b 77 28          	mov    0x28(%r15),%r14
    49e7:	4d 85 f6             	test   %r14,%r14
    49ea:	0f 84 42 01 00 00    	je     4b32 <_ZNSt6vectorISt10unique_ptrI10PRTreeNodeIdLi6EESt14default_deleteIS2_EESaIS5_EED1Ev+0x902>
    49f0:	4d 8b 4e 30          	mov    0x30(%r14),%r9
    49f4:	4d 85 c9             	test   %r9,%r9
    49f7:	74 77                	je     4a70 <_ZNSt6vectorISt10unique_ptrI10PRTreeNodeIdLi6EESt14default_deleteIS2_EESaIS5_EED1Ev+0x840>
    49f9:	49 8d 79 30          	lea    0x30(%r9),%rdi
    49fd:	4c 89 4c 24 10       	mov    %r9,0x10(%rsp)
    4a02:	e8 f9 f0 ff ff       	callq  3b00 <_ZNSt10unique_ptrI10PRTreeNodeIdLi6EESt14default_deleteIS1_EED1Ev>
    4a07:	4c 8b 4c 24 10       	mov    0x10(%rsp),%r9
    4a0c:	49 8d 79 28          	lea    0x28(%r9),%rdi
    4a10:	e8 eb f0 ff ff       	callq  3b00 <_ZNSt10unique_ptrI10PRTreeNodeIdLi6EESt14default_deleteIS1_EED1Ev>
    4a15:	4c 8b 4c 24 10       	mov    0x10(%rsp),%r9
    4a1a:	4d 8b 51 20          	mov    0x20(%r9),%r10
    4a1e:	4d 85 d2             	test   %r10,%r10
    4a21:	74 40                	je     4a63 <_ZNSt6vectorISt10unique_ptrI10PRTreeNodeIdLi6EESt14default_deleteIS2_EESaIS5_EED1Ev+0x833>
    4a23:	49 8b 7a 28          	mov    0x28(%r10),%rdi
    4a27:	48 85 ff             	test   %rdi,%rdi
    4a2a:	74 20                	je     4a4c <_ZNSt6vectorISt10unique_ptrI10PRTreeNodeIdLi6EESt14default_deleteIS2_EESaIS5_EED1Ev+0x81c>
    4a2c:	49 8b 72 38          	mov    0x38(%r10),%rsi
    4a30:	4c 89 4c 24 18       	mov    %r9,0x18(%rsp)
    4a35:	4c 89 54 24 10       	mov    %r10,0x10(%rsp)
    4a3a:	48 29 fe             	sub    %rdi,%rsi
    4a3d:	e8 ce d6 ff ff       	callq  2110 <_ZdlPvm@plt>
    4a42:	4c 8b 4c 24 18       	mov    0x18(%rsp),%r9
    4a47:	4c 8b 54 24 10       	mov    0x10(%rsp),%r10
    4a4c:	be 40 00 00 00       	mov    $0x40,%esi
    4a51:	4c 89 d7             	mov    %r10,%rdi
    4a54:	4c 89 4c 24 10       	mov    %r9,0x10(%rsp)
    4a59:	e8 b2 d6 ff ff       	callq  2110 <_ZdlPvm@plt>
    4a5e:	4c 8b 4c 24 10       	mov    0x10(%rsp),%r9
    4a63:	be 38 00 00 00       	mov    $0x38,%esi
    4a68:	4c 89 cf             	mov    %r9,%rdi
    4a6b:	e8 a0 d6 ff ff       	callq  2110 <_ZdlPvm@plt>
    4a70:	4d 8b 4e 28          	mov    0x28(%r14),%r9
    4a74:	4d 85 c9             	test   %r9,%r9
    4a77:	74 77                	je     4af0 <_ZNSt6vectorISt10unique_ptrI10PRTreeNodeIdLi6EESt14default_deleteIS2_EESaIS5_EED1Ev+0x8c0>
    4a79:	49 8d 79 30          	lea    0x30(%r9),%rdi
    4a7d:	4c 89 4c 24 10       	mov    %r9,0x10(%rsp)
    4a82:	e8 79 f0 ff ff       	callq  3b00 <_ZNSt10unique_ptrI10PRTreeNodeIdLi6EESt14default_deleteIS1_EED1Ev>
    4a87:	4c 8b 4c 24 10       	mov    0x10(%rsp),%r9
    4a8c:	49 8d 79 28          	lea    0x28(%r9),%rdi
    4a90:	e8 6b f0 ff ff       	callq  3b00 <_ZNSt10unique_ptrI10PRTreeNodeIdLi6EESt14default_deleteIS1_EED1Ev>
    4a95:	4c 8b 4c 24 10       	mov    0x10(%rsp),%r9
    4a9a:	4d 8b 51 20          	mov    0x20(%r9),%r10
    4a9e:	4d 85 d2             	test   %r10,%r10
    4aa1:	74 40                	je     4ae3 <_ZNSt6vectorISt10unique_ptrI10PRTreeNodeIdLi6EESt14default_deleteIS2_EESaIS5_EED1Ev+0x8b3>
    4aa3:	49 8b 7a 28          	mov    0x28(%r10),%rdi
    4aa7:	48 85 ff             	test   %rdi,%rdi
    4aaa:	74 20                	je     4acc <_ZNSt6vectorISt10unique_ptrI10PRTreeNodeIdLi6EESt14default_deleteIS2_EESaIS5_EED1Ev+0x89c>
    4aac:	49 8b 72 38          	mov    0x38(%r10),%rsi
    4ab0:	4c 89 4c 24 18       	mov    %r9,0x18(%rsp)
    4ab5:	4c 89 54 24 10       	mov    %r10,0x10(%rsp)
    4aba:	48 29 fe             	sub    %rdi,%rsi
    4abd:	e8 4e d6 ff ff       	callq  2110 <_ZdlPvm@plt>
    4ac2:	4c 8b 4c 24 18       	mov    0x18(%rsp),%r9
    4ac7:	4c 8b 54 24 10       	mov    0x10(%rsp),%r10
    4acc:	be 40 00 00 00       	mov    $0x40,%esi
    4ad1:	4c 89 d7             	mov    %r10,%rdi
    4ad4:	4c 89 4c 24 10       	mov    %r9,0x10(%rsp)
    4ad9:	e8 32 d6 ff ff       	callq  2110 <_ZdlPvm@plt>
    4ade:	4c 8b 4c 24 10       	mov    0x10(%rsp),%r9
    4ae3:	be 38 00 00 00       	mov    $0x38,%esi
    4ae8:	4c 89 cf             	mov    %r9,%rdi
    4aeb:	e8 20 d6 ff ff       	callq  2110 <_ZdlPvm@plt>
    4af0:	4d 8b 4e 20          	mov    0x20(%r14),%r9
    4af4:	4d 85 c9             	test   %r9,%r9
    4af7:	74 2c                	je     4b25 <_ZNSt6vectorISt10unique_ptrI10PRTreeNodeIdLi6EESt14default_deleteIS2_EESaIS5_EED1Ev+0x8f5>
    4af9:	49 8b 79 28          	mov    0x28(%r9),%rdi
    4afd:	48 85 ff             	test   %rdi,%rdi
    4b00:	74 16                	je     4b18 <_ZNSt6vectorISt10unique_ptrI10PRTreeNodeIdLi6EESt14default_deleteIS2_EESaIS5_EED1Ev+0x8e8>
    4b02:	49 8b 71 38          	mov    0x38(%r9),%rsi
    4b06:	4c 89 4c 24 10       	mov    %r9,0x10(%rsp)
    4b0b:	48 29 fe             	sub    %rdi,%rsi
    4b0e:	e8 fd d5 ff ff       	callq  2110 <_ZdlPvm@plt>
    4b13:	4c 8b 4c 24 10       	mov    0x10(%rsp),%r9
    4b18:	be 40 00 00 00       	mov    $0x40,%esi
    4b1d:	4c 89 cf             	mov    %r9,%rdi
    4b20:	e8 eb d5 ff ff       	callq  2110 <_ZdlPvm@plt>
    4b25:	be 38 00 00 00       	mov    $0x38,%esi
    4b2a:	4c 89 f7             	mov    %r14,%rdi
    4b2d:	e8 de d5 ff ff       	callq  2110 <_ZdlPvm@plt>
    4b32:	4d 8b 77 20          	mov    0x20(%r15),%r14
    4b36:	4d 85 f6             	test   %r14,%r14
    4b39:	74 22                	je     4b5d <_ZNSt6vectorISt10unique_ptrI10PRTreeNodeIdLi6EESt14default_deleteIS2_EESaIS5_EED1Ev+0x92d>
    4b3b:	49 8b 7e 28          	mov    0x28(%r14),%rdi
    4b3f:	48 85 ff             	test   %rdi,%rdi
    4b42:	74 0c                	je     4b50 <_ZNSt6vectorISt10unique_ptrI10PRTreeNodeIdLi6EESt14default_deleteIS2_EESaIS5_EED1Ev+0x920>
    4b44:	49 8b 76 38          	mov    0x38(%r14),%rsi
    4b48:	48 29 fe             	sub    %rdi,%rsi
    4b4b:	e8 c0 d5 ff ff       	callq  2110 <_ZdlPvm@plt>
    4b50:	be 40 00 00 00       	mov    $0x40,%esi
    4b55:	4c 89 f7             	mov    %r14,%rdi
    4b58:	e8 b3 d5 ff ff       	callq  2110 <_ZdlPvm@plt>
    4b5d:	be 38 00 00 00       	mov    $0x38,%esi
    4b62:	4c 89 ff             	mov    %r15,%rdi
    4b65:	e8 a6 d5 ff ff       	callq  2110 <_ZdlPvm@plt>
    4b6a:	4d 8b 7d 28          	mov    0x28(%r13),%r15
    4b6e:	4d 85 ff             	test   %r15,%r15
    4b71:	0f 84 e0 02 00 00    	je     4e57 <_ZNSt6vectorISt10unique_ptrI10PRTreeNodeIdLi6EESt14default_deleteIS2_EESaIS5_EED1Ev+0xc27>
    4b77:	4d 8b 77 30          	mov    0x30(%r15),%r14
    4b7b:	4d 85 f6             	test   %r14,%r14
    4b7e:	0f 84 42 01 00 00    	je     4cc6 <_ZNSt6vectorISt10unique_ptrI10PRTreeNodeIdLi6EESt14default_deleteIS2_EESaIS5_EED1Ev+0xa96>
    4b84:	4d 8b 4e 30          	mov    0x30(%r14),%r9
    4b88:	4d 85 c9             	test   %r9,%r9
    4b8b:	74 77                	je     4c04 <_ZNSt6vectorISt10unique_ptrI10PRTreeNodeIdLi6EESt14default_deleteIS2_EESaIS5_EED1Ev+0x9d4>
    4b8d:	49 8d 79 30          	lea    0x30(%r9),%rdi
    4b91:	4c 89 4c 24 10       	mov    %r9,0x10(%rsp)
    4b96:	e8 65 ef ff ff       	callq  3b00 <_ZNSt10unique_ptrI10PRTreeNodeIdLi6EESt14default_deleteIS1_EED1Ev>
    4b9b:	4c 8b 4c 24 10       	mov    0x10(%rsp),%r9
    4ba0:	49 8d 79 28          	lea    0x28(%r9),%rdi
    4ba4:	e8 57 ef ff ff       	callq  3b00 <_ZNSt10unique_ptrI10PRTreeNodeIdLi6EESt14default_deleteIS1_EED1Ev>
    4ba9:	4c 8b 4c 24 10       	mov    0x10(%rsp),%r9
    4bae:	4d 8b 51 20          	mov    0x20(%r9),%r10
    4bb2:	4d 85 d2             	test   %r10,%r10
    4bb5:	74 40                	je     4bf7 <_ZNSt6vectorISt10unique_ptrI10PRTreeNodeIdLi6EESt14default_deleteIS2_EESaIS5_EED1Ev+0x9c7>
    4bb7:	49 8b 7a 28          	mov    0x28(%r10),%rdi
    4bbb:	48 85 ff             	test   %rdi,%rdi
    4bbe:	74 20                	je     4be0 <_ZNSt6vectorISt10unique_ptrI10PRTreeNodeIdLi6EESt14default_deleteIS2_EESaIS5_EED1Ev+0x9b0>
    4bc0:	49 8b 72 38          	mov    0x38(%r10),%rsi
    4bc4:	4c 89 4c 24 18       	mov    %r9,0x18(%rsp)
    4bc9:	4c 89 54 24 10       	mov    %r10,0x10(%rsp)
    4bce:	48 29 fe             	sub    %rdi,%rsi
    4bd1:	e8 3a d5 ff ff       	callq  2110 <_ZdlPvm@plt>
    4bd6:	4c 8b 4c 24 18       	mov    0x18(%rsp),%r9
    4bdb:	4c 8b 54 24 10       	mov    0x10(%rsp),%r10
    4be0:	be 40 00 00 00       	mov    $0x40,%esi
    4be5:	4c 89 d7             	mov    %r10,%rdi
    4be8:	4c 89 4c 24 10       	mov    %r9,0x10(%rsp)
    4bed:	e8 1e d5 ff ff       	callq  2110 <_ZdlPvm@plt>
    4bf2:	4c 8b 4c 24 10       	mov    0x10(%rsp),%r9
    4bf7:	be 38 00 00 00       	mov    $0x38,%esi
    4bfc:	4c 89 cf             	mov    %r9,%rdi
    4bff:	e8 0c d5 ff ff       	callq  2110 <_ZdlPvm@plt>
    4c04:	4d 8b 4e 28          	mov    0x28(%r14),%r9
    4c08:	4d 85 c9             	test   %r9,%r9
    4c0b:	74 77                	je     4c84 <_ZNSt6vectorISt10unique_ptrI10PRTreeNodeIdLi6EESt14default_deleteIS2_EESaIS5_EED1Ev+0xa54>
    4c0d:	49 8d 79 30          	lea    0x30(%r9),%rdi
    4c11:	4c 89 4c 24 10       	mov    %r9,0x10(%rsp)
    4c16:	e8 e5 ee ff ff       	callq  3b00 <_ZNSt10unique_ptrI10PRTreeNodeIdLi6EESt14default_deleteIS1_EED1Ev>
    4c1b:	4c 8b 4c 24 10       	mov    0x10(%rsp),%r9
    4c20:	49 8d 79 28          	lea    0x28(%r9),%rdi
    4c24:	e8 d7 ee ff ff       	callq  3b00 <_ZNSt10unique_ptrI10PRTreeNodeIdLi6EESt14default_deleteIS1_EED1Ev>
    4c29:	4c 8b 4c 24 10       	mov    0x10(%rsp),%r9
    4c2e:	4d 8b 51 20          	mov    0x20(%r9),%r10
    4c32:	4d 85 d2             	test   %r10,%r10
    4c35:	74 40                	je     4c77 <_ZNSt6vectorISt10unique_ptrI10PRTreeNodeIdLi6EESt14default_deleteIS2_EESaIS5_EED1Ev+0xa47>
    4c37:	49 8b 7a 28          	mov    0x28(%r10),%rdi
    4c3b:	48 85 ff             	test   %rdi,%rdi
    4c3e:	74 20                	je     4c60 <_ZNSt6vectorISt10unique_ptrI10PRTreeNodeIdLi6EESt14default_deleteIS2_EESaIS5_EED1Ev+0xa30>
    4c40:	49 8b 72 38          	mov    0x38(%r10),%rsi
    4c44:	4c 89 4c 24 18       	mov    %r9,0x18(%rsp)
    4c49:	4c 89 54 24 10       	mov    %r10,0x10(%rsp)
    4c4e:	48 29 fe             	sub    %rdi,%rsi
    4c51:	e8 ba d4 ff ff       	callq  2110 <_ZdlPvm@plt>
    4c56:	4c 8b 4c 24 18       	mov    0x18(%rsp),%r9
    4c5b:	4c 8b 54 24 10       	mov    0x10(%rsp),%r10
    4c60:	be 40 00 00 00       	mov    $0x40,%esi
    4c65:	4c 89 d7             	mov    %r10,%rdi
    4c68:	4c 89 4c 24 10       	mov    %r9,0x10(%rsp)
    4c6d:	e8 9e d4 ff ff       	callq  2110 <_ZdlPvm@plt>
    4c72:	4c 8b 4c 24 10       	mov    0x10(%rsp),%r9
    4c77:	be 38 00 00 00       	mov    $0x38,%esi
    4c7c:	4c 89 cf             	mov    %r9,%rdi
    4c7f:	e8 8c d4 ff ff       	callq  2110 <_ZdlPvm@plt>
    4c84:	4d 8b 4e 20          	mov    0x20(%r14),%r9
    4c88:	4d 85 c9             	test   %r9,%r9
    4c8b:	74 2c                	je     4cb9 <_ZNSt6vectorISt10unique_ptrI10PRTreeNodeIdLi6EESt14default_deleteIS2_EESaIS5_EED1Ev+0xa89>
    4c8d:	49 8b 79 28          	mov    0x28(%r9),%rdi
    4c91:	48 85 ff             	test   %rdi,%rdi
    4c94:	74 16                	je     4cac <_ZNSt6vectorISt10unique_ptrI10PRTreeNodeIdLi6EESt14default_deleteIS2_EESaIS5_EED1Ev+0xa7c>
    4c96:	49 8b 71 38          	mov    0x38(%r9),%rsi
    4c9a:	4c 89 4c 24 10       	mov    %r9,0x10(%rsp)
    4c9f:	48 29 fe             	sub    %rdi,%rsi
    4ca2:	e8 69 d4 ff ff       	callq  2110 <_ZdlPvm@plt>
    4ca7:	4c 8b 4c 24 10       	mov    0x10(%rsp),%r9
    4cac:	be 40 00 00 00       	mov    $0x40,%esi
    4cb1:	4c 89 cf             	mov    %r9,%rdi
    4cb4:	e8 57 d4 ff ff       	callq  2110 <_ZdlPvm@plt>
    4cb9:	be 38 00 00 00       	mov    $0x38,%esi
    4cbe:	4c 89 f7             	mov    %r14,%rdi
    4cc1:	e8 4a d4 ff ff       	callq  2110 <_ZdlPvm@plt>
    4cc6:	4d 8b 77 28          	mov    0x28(%r15),%r14
    4cca:	4d 85 f6             	test   %r14,%r14
    4ccd:	0f 84 42 01 00 00    	je     4e15 <_ZNSt6vectorISt10unique_ptrI10PRTreeNodeIdLi6EESt14default_deleteIS2_EESaIS5_EED1Ev+0xbe5>
    4cd3:	4d 8b 4e 30          	mov    0x30(%r14),%r9
    4cd7:	4d 85 c9             	test   %r9,%r9
    4cda:	74 77                	je     4d53 <_ZNSt6vectorISt10unique_ptrI10PRTreeNodeIdLi6EESt14default_deleteIS2_EESaIS5_EED1Ev+0xb23>
    4cdc:	49 8d 79 30          	lea    0x30(%r9),%rdi
    4ce0:	4c 89 4c 24 10       	mov    %r9,0x10(%rsp)
    4ce5:	e8 16 ee ff ff       	callq  3b00 <_ZNSt10unique_ptrI10PRTreeNodeIdLi6EESt14default_deleteIS1_EED1Ev>
    4cea:	4c 8b 4c 24 10       	mov    0x10(%rsp),%r9
    4cef:	49 8d 79 28          	lea    0x28(%r9),%rdi
    4cf3:	e8 08 ee ff ff       	callq  3b00 <_ZNSt10unique_ptrI10PRTreeNodeIdLi6EESt14default_deleteIS1_EED1Ev>
    4cf8:	4c 8b 4c 24 10       	mov    0x10(%rsp),%r9
    4cfd:	4d 8b 51 20          	mov    0x20(%r9),%r10
    4d01:	4d 85 d2             	test   %r10,%r10
    4d04:	74 40                	je     4d46 <_ZNSt6vectorISt10unique_ptrI10PRTreeNodeIdLi6EESt14default_deleteIS2_EESaIS5_EED1Ev+0xb16>
    4d06:	49 8b 7a 28          	mov    0x28(%r10),%rdi
    4d0a:	48 85 ff             	test   %rdi,%rdi
    4d0d:	74 20                	je     4d2f <_ZNSt6vectorISt10unique_ptrI10PRTreeNodeIdLi6EESt14default_deleteIS2_EESaIS5_EED1Ev+0xaff>
    4d0f:	49 8b 72 38          	mov    0x38(%r10),%rsi
    4d13:	4c 89 4c 24 18       	mov    %r9,0x18(%rsp)
    4d18:	4c 89 54 24 10       	mov    %r10,0x10(%rsp)
    4d1d:	48 29 fe             	sub    %rdi,%rsi
    4d20:	e8 eb d3 ff ff       	callq  2110 <_ZdlPvm@plt>
    4d25:	4c 8b 4c 24 18       	mov    0x18(%rsp),%r9
    4d2a:	4c 8b 54 24 10       	mov    0x10(%rsp),%r10
    4d2f:	be 40 00 00 00       	mov    $0x40,%esi
    4d34:	4c 89 d7             	mov    %r10,%rdi
    4d37:	4c 89 4c 24 10       	mov    %r9,0x10(%rsp)
    4d3c:	e8 cf d3 ff ff       	callq  2110 <_ZdlPvm@plt>
    4d41:	4c 8b 4c 24 10       	mov    0x10(%rsp),%r9
    4d46:	be 38 00 00 00       	mov    $0x38,%esi
    4d4b:	4c 89 cf             	mov    %r9,%rdi
    4d4e:	e8 bd d3 ff ff       	callq  2110 <_ZdlPvm@plt>
    4d53:	4d 8b 4e 28          	mov    0x28(%r14),%r9
    4d57:	4d 85 c9             	test   %r9,%r9
    4d5a:	74 77                	je     4dd3 <_ZNSt6vectorISt10unique_ptrI10PRTreeNodeIdLi6EESt14default_deleteIS2_EESaIS5_EED1Ev+0xba3>
    4d5c:	49 8d 79 30          	lea    0x30(%r9),%rdi
    4d60:	4c 89 4c 24 10       	mov    %r9,0x10(%rsp)
    4d65:	e8 96 ed ff ff       	callq  3b00 <_ZNSt10unique_ptrI10PRTreeNodeIdLi6EESt14default_deleteIS1_EED1Ev>
    4d6a:	4c 8b 4c 24 10       	mov    0x10(%rsp),%r9
    4d6f:	49 8d 79 28          	lea    0x28(%r9),%rdi
    4d73:	e8 88 ed ff ff       	callq  3b00 <_ZNSt10unique_ptrI10PRTreeNodeIdLi6EESt14default_deleteIS1_EED1Ev>
    4d78:	4c 8b 4c 24 10       	mov    0x10(%rsp),%r9
    4d7d:	4d 8b 51 20          	mov    0x20(%r9),%r10
    4d81:	4d 85 d2             	test   %r10,%r10
    4d84:	74 40                	je     4dc6 <_ZNSt6vectorISt10unique_ptrI10PRTreeNodeIdLi6EESt14default_deleteIS2_EESaIS5_EED1Ev+0xb96>
    4d86:	49 8b 7a 28          	mov    0x28(%r10),%rdi
    4d8a:	48 85 ff             	test   %rdi,%rdi
    4d8d:	74 20                	je     4daf <_ZNSt6vectorISt10unique_ptrI10PRTreeNodeIdLi6EESt14default_deleteIS2_EESaIS5_EED1Ev+0xb7f>
    4d8f:	49 8b 72 38          	mov    0x38(%r10),%rsi
    4d93:	4c 89 4c 24 18       	mov    %r9,0x18(%rsp)
    4d98:	4c 89 54 24 10       	mov    %r10,0x10(%rsp)
    4d9d:	48 29 fe             	sub    %rdi,%rsi
    4da0:	e8 6b d3 ff ff       	callq  2110 <_ZdlPvm@plt>
    4da5:	4c 8b 4c 24 18       	mov    0x18(%rsp),%r9
    4daa:	4c 8b 54 24 10       	mov    0x10(%rsp),%r10
    4daf:	be 40 00 00 00       	mov    $0x40,%esi
    4db4:	4c 89 d7             	mov    %r10,%rdi
    4db7:	4c 89 4c 24 10       	mov    %r9,0x10(%rsp)
    4dbc:	e8 4f d3 ff ff       	callq  2110 <_ZdlPvm@plt>
    4dc1:	4c 8b 4c 24 10       	mov    0x10(%rsp),%r9
    4dc6:	be 38 00 00 00       	mov    $0x38,%esi
    4dcb:	4c 89 cf             	mov    %r9,%rdi
    4dce:	e8 3d d3 ff ff       	callq  2110 <_ZdlPvm@plt>
    4dd3:	4d 8b 4e 20          	mov    0x20(%r14),%r9
    4dd7:	4d 85 c9             	test   %r9,%r9
    4dda:	74 2c                	je     4e08 <_ZNSt6vectorISt10unique_ptrI10PRTreeNodeIdLi6EESt14default_deleteIS2_EESaIS5_EED1Ev+0xbd8>
    4ddc:	49 8b 79 28          	mov    0x28(%r9),%rdi
    4de0:	48 85 ff             	test   %rdi,%rdi
    4de3:	74 16                	je     4dfb <_ZNSt6vectorISt10unique_ptrI10PRTreeNodeIdLi6EESt14default_deleteIS2_EESaIS5_EED1Ev+0xbcb>
    4de5:	49 8b 71 38          	mov    0x38(%r9),%rsi
    4de9:	4c 89 4c 24 10       	mov    %r9,0x10(%rsp)
    4dee:	48 29 fe             	sub    %rdi,%rsi
    4df1:	e8 1a d3 ff ff       	callq  2110 <_ZdlPvm@plt>
    4df6:	4c 8b 4c 24 10       	mov    0x10(%rsp),%r9
    4dfb:	be 40 00 00 00       	mov    $0x40,%esi
    4e00:	4c 89 cf             	mov    %r9,%rdi
    4e03:	e8 08 d3 ff ff       	callq  2110 <_ZdlPvm@plt>
    4e08:	be 38 00 00 00       	mov    $0x38,%esi
    4e0d:	4c 89 f7             	mov    %r14,%rdi
    4e10:	e8 fb d2 ff ff       	callq  2110 <_ZdlPvm@plt>
    4e15:	4d 8b 47 20          	mov    0x20(%r15),%r8
    4e19:	4d 85 c0             	test   %r8,%r8
    4e1c:	74 2c                	je     4e4a <_ZNSt6vectorISt10unique_ptrI10PRTreeNodeIdLi6EESt14default_deleteIS2_EESaIS5_EED1Ev+0xc1a>
    4e1e:	49 8b 78 28          	mov    0x28(%r8),%rdi
    4e22:	48 85 ff             	test   %rdi,%rdi
    4e25:	74 16                	je     4e3d <_ZNSt6vectorISt10unique_ptrI10PRTreeNodeIdLi6EESt14default_deleteIS2_EESaIS5_EED1Ev+0xc0d>
    4e27:	49 8b 70 38          	mov    0x38(%r8),%rsi
    4e2b:	4c 89 44 24 10       	mov    %r8,0x10(%rsp)
    4e30:	48 29 fe             	sub    %rdi,%rsi
    4e33:	e8 d8 d2 ff ff       	callq  2110 <_ZdlPvm@plt>
    4e38:	4c 8b 44 24 10       	mov    0x10(%rsp),%r8
    4e3d:	be 40 00 00 00       	mov    $0x40,%esi
    4e42:	4c 89 c7             	mov    %r8,%rdi
    4e45:	e8 c6 d2 ff ff       	callq  2110 <_ZdlPvm@plt>
    4e4a:	be 38 00 00 00       	mov    $0x38,%esi
    4e4f:	4c 89 ff             	mov    %r15,%rdi
    4e52:	e8 b9 d2 ff ff       	callq  2110 <_ZdlPvm@plt>
    4e57:	4d 8b 7d 20          	mov    0x20(%r13),%r15
    4e5b:	4d 85 ff             	test   %r15,%r15
    4e5e:	74 22                	je     4e82 <_ZNSt6vectorISt10unique_ptrI10PRTreeNodeIdLi6EESt14default_deleteIS2_EESaIS5_EED1Ev+0xc52>
    4e60:	49 8b 7f 28          	mov    0x28(%r15),%rdi
    4e64:	48 85 ff             	test   %rdi,%rdi
    4e67:	74 0c                	je     4e75 <_ZNSt6vectorISt10unique_ptrI10PRTreeNodeIdLi6EESt14default_deleteIS2_EESaIS5_EED1Ev+0xc45>
    4e69:	49 8b 77 38          	mov    0x38(%r15),%rsi
    4e6d:	48 29 fe             	sub    %rdi,%rsi
    4e70:	e8 9b d2 ff ff       	callq  2110 <_ZdlPvm@plt>
    4e75:	be 40 00 00 00       	mov    $0x40,%esi
    4e7a:	4c 89 ff             	mov    %r15,%rdi
    4e7d:	e8 8e d2 ff ff       	callq  2110 <_ZdlPvm@plt>
    4e82:	be 38 00 00 00       	mov    $0x38,%esi
    4e87:	4c 89 ef             	mov    %r13,%rdi
    4e8a:	e8 81 d2 ff ff       	callq  2110 <_ZdlPvm@plt>
    4e8f:	4d 8b 6c 24 20       	mov    0x20(%r12),%r13
    4e94:	4d 85 ed             	test   %r13,%r13
    4e97:	74 22                	je     4ebb <_ZNSt6vectorISt10unique_ptrI10PRTreeNodeIdLi6EESt14default_deleteIS2_EESaIS5_EED1Ev+0xc8b>
    4e99:	49 8b 7d 28          	mov    0x28(%r13),%rdi
    4e9d:	48 85 ff             	test   %rdi,%rdi
    4ea0:	74 0c                	je     4eae <_ZNSt6vectorISt10unique_ptrI10PRTreeNodeIdLi6EESt14default_deleteIS2_EESaIS5_EED1Ev+0xc7e>
    4ea2:	49 8b 75 38          	mov    0x38(%r13),%rsi
    4ea6:	48 29 fe             	sub    %rdi,%rsi
    4ea9:	e8 62 d2 ff ff       	callq  2110 <_ZdlPvm@plt>
    4eae:	be 40 00 00 00       	mov    $0x40,%esi
    4eb3:	4c 89 ef             	mov    %r13,%rdi
    4eb6:	e8 55 d2 ff ff       	callq  2110 <_ZdlPvm@plt>
    4ebb:	be 38 00 00 00       	mov    $0x38,%esi
    4ec0:	4c 89 e7             	mov    %r12,%rdi
    4ec3:	e8 48 d2 ff ff       	callq  2110 <_ZdlPvm@plt>
    4ec8:	48 83 c5 08          	add    $0x8,%rbp
    4ecc:	48 39 eb             	cmp    %rbp,%rbx
    4ecf:	0f 85 8b f3 ff ff    	jne    4260 <_ZNSt6vectorISt10unique_ptrI10PRTreeNodeIdLi6EESt14default_deleteIS2_EESaIS5_EED1Ev+0x30>
    4ed5:	48 8b 44 24 08       	mov    0x8(%rsp),%rax
    4eda:	48 8b 28             	mov    (%rax),%rbp
    4edd:	48 85 ed             	test   %rbp,%rbp
    4ee0:	74 2e                	je     4f10 <_ZNSt6vectorISt10unique_ptrI10PRTreeNodeIdLi6EESt14default_deleteIS2_EESaIS5_EED1Ev+0xce0>
    4ee2:	48 8b 44 24 08       	mov    0x8(%rsp),%rax
    4ee7:	48 89 ef             	mov    %rbp,%rdi
    4eea:	48 8b 70 10          	mov    0x10(%rax),%rsi
    4eee:	48 83 c4 28          	add    $0x28,%rsp
    4ef2:	5b                   	pop    %rbx
    4ef3:	48 29 ee             	sub    %rbp,%rsi
    4ef6:	5d                   	pop    %rbp
    4ef7:	41 5c                	pop    %r12
    4ef9:	41 5d                	pop    %r13
    4efb:	41 5e                	pop    %r14
    4efd:	41 5f                	pop    %r15
    4eff:	e9 0c d2 ff ff       	jmpq   2110 <_ZdlPvm@plt>
    4f04:	66 66 2e 0f 1f 84 00 	data16 nopw %cs:0x0(%rax,%rax,1)
    4f0b:	00 00 00 00 
    4f0f:	90                   	nop
    4f10:	48 83 c4 28          	add    $0x28,%rsp
    4f14:	5b                   	pop    %rbx
    4f15:	5d                   	pop    %rbp
    4f16:	41 5c                	pop    %r12
    4f18:	41 5d                	pop    %r13
    4f1a:	41 5e                	pop    %r14
    4f1c:	41 5f                	pop    %r15
    4f1e:	c3                   	retq   
    4f1f:	90                   	nop

0000000000004f20 <_ZNSt6vectorISt4pairId11BoundingBoxESaIS2_EEC1ERKS4_>:
    4f20:	41 54                	push   %r12
    4f22:	55                   	push   %rbp
    4f23:	c5 f9 ef c0          	vpxor  %xmm0,%xmm0,%xmm0
    4f27:	48 89 fd             	mov    %rdi,%rbp
    4f2a:	53                   	push   %rbx
    4f2b:	48 8b 5e 08          	mov    0x8(%rsi),%rbx
    4f2f:	49 89 f4             	mov    %rsi,%r12
    4f32:	48 2b 1e             	sub    (%rsi),%rbx
    4f35:	c5 fa 7f 07          	vmovdqu %xmm0,(%rdi)
    4f39:	48 c7 47 10 00 00 00 	movq   $0x0,0x10(%rdi)
    4f40:	00 
    4f41:	0f 84 a9 00 00 00    	je     4ff0 <_ZNSt6vectorISt4pairId11BoundingBoxESaIS2_EEC1ERKS4_+0xd0>
    4f47:	48 b8 f8 ff ff ff ff 	movabs $0x7ffffffffffffff8,%rax
    4f4e:	ff ff 7f 
    4f51:	48 39 c3             	cmp    %rax,%rbx
    4f54:	0f 87 9d 00 00 00    	ja     4ff7 <_ZNSt6vectorISt4pairId11BoundingBoxESaIS2_EEC1ERKS4_+0xd7>
    4f5a:	48 89 df             	mov    %rbx,%rdi
    4f5d:	e8 9e d1 ff ff       	callq  2100 <_Znwm@plt>
    4f62:	48 89 c7             	mov    %rax,%rdi
    4f65:	c4 e1 f9 6e df       	vmovq  %rdi,%xmm3
    4f6a:	48 01 fb             	add    %rdi,%rbx
    4f6d:	c5 e1 6c c3          	vpunpcklqdq %xmm3,%xmm3,%xmm0
    4f71:	48 89 5d 10          	mov    %rbx,0x10(%rbp)
    4f75:	c5 fa 7f 45 00       	vmovdqu %xmm0,0x0(%rbp)
    4f7a:	49 8b 4c 24 08       	mov    0x8(%r12),%rcx
    4f7f:	4d 8b 04 24          	mov    (%r12),%r8
    4f83:	49 39 c8             	cmp    %rcx,%r8
    4f86:	74 5f                	je     4fe7 <_ZNSt6vectorISt4pairId11BoundingBoxESaIS2_EEC1ERKS4_+0xc7>
    4f88:	4c 89 c0             	mov    %r8,%rax
    4f8b:	48 89 fa             	mov    %rdi,%rdx
    4f8e:	66 90                	xchg   %ax,%ax
    4f90:	c5 fa 6f 08          	vmovdqu (%rax),%xmm1
    4f94:	48 83 c0 28          	add    $0x28,%rax
    4f98:	48 83 c2 28          	add    $0x28,%rdx
    4f9c:	c5 fa 7f 4a d8       	vmovdqu %xmm1,-0x28(%rdx)
    4fa1:	c5 fa 6f 50 e8       	vmovdqu -0x18(%rax),%xmm2
    4fa6:	c5 fa 7f 52 e8       	vmovdqu %xmm2,-0x18(%rdx)
    4fab:	48 8b 70 f8          	mov    -0x8(%rax),%rsi
    4faf:	48 89 72 f8          	mov    %rsi,-0x8(%rdx)
    4fb3:	48 39 c1             	cmp    %rax,%rcx
    4fb6:	75 d8                	jne    4f90 <_ZNSt6vectorISt4pairId11BoundingBoxESaIS2_EEC1ERKS4_+0x70>
    4fb8:	48 8d 41 d8          	lea    -0x28(%rcx),%rax
    4fbc:	48 b9 cd cc cc cc cc 	movabs $0xccccccccccccccd,%rcx
    4fc3:	cc cc 0c 
    4fc6:	48 ba ff ff ff ff ff 	movabs $0x1fffffffffffffff,%rdx
    4fcd:	ff ff 1f 
    4fd0:	4c 29 c0             	sub    %r8,%rax
    4fd3:	48 c1 e8 03          	shr    $0x3,%rax
    4fd7:	48 0f af c1          	imul   %rcx,%rax
    4fdb:	48 21 d0             	and    %rdx,%rax
    4fde:	48 8d 44 80 05       	lea    0x5(%rax,%rax,4),%rax
    4fe3:	48 8d 3c c7          	lea    (%rdi,%rax,8),%rdi
    4fe7:	5b                   	pop    %rbx
    4fe8:	48 89 7d 08          	mov    %rdi,0x8(%rbp)
    4fec:	5d                   	pop    %rbp
    4fed:	41 5c                	pop    %r12
    4fef:	c3                   	retq   
    4ff0:	31 ff                	xor    %edi,%edi
    4ff2:	e9 6e ff ff ff       	jmpq   4f65 <_ZNSt6vectorISt4pairId11BoundingBoxESaIS2_EEC1ERKS4_+0x45>
    4ff7:	e8 54 d0 ff ff       	callq  2050 <_ZSt17__throw_bad_allocv@plt>
    4ffc:	0f 1f 40 00          	nopl   0x0(%rax)

0000000000005000 <_ZNSt6vectorI4LeafIdLi6EESaIS1_EED1Ev>:
    5000:	41 54                	push   %r12
    5002:	55                   	push   %rbp
    5003:	49 89 fc             	mov    %rdi,%r12
    5006:	53                   	push   %rbx
    5007:	48 8b 5f 08          	mov    0x8(%rdi),%rbx
    500b:	48 8b 2f             	mov    (%rdi),%rbp
    500e:	48 39 eb             	cmp    %rbp,%rbx
    5011:	74 2f                	je     5042 <_ZNSt6vectorI4LeafIdLi6EESaIS1_EED1Ev+0x42>
    5013:	66 66 2e 0f 1f 84 00 	data16 nopw %cs:0x0(%rax,%rax,1)
    501a:	00 00 00 00 
    501e:	66 90                	xchg   %ax,%ax
    5020:	48 8b 7d 28          	mov    0x28(%rbp),%rdi
    5024:	48 85 ff             	test   %rdi,%rdi
    5027:	74 37                	je     5060 <_ZNSt6vectorI4LeafIdLi6EESaIS1_EED1Ev+0x60>
    5029:	48 8b 75 38          	mov    0x38(%rbp),%rsi
    502d:	48 83 c5 40          	add    $0x40,%rbp
    5031:	48 29 fe             	sub    %rdi,%rsi
    5034:	e8 d7 d0 ff ff       	callq  2110 <_ZdlPvm@plt>
    5039:	48 39 eb             	cmp    %rbp,%rbx
    503c:	75 e2                	jne    5020 <_ZNSt6vectorI4LeafIdLi6EESaIS1_EED1Ev+0x20>
    503e:	49 8b 2c 24          	mov    (%r12),%rbp
    5042:	48 85 ed             	test   %rbp,%rbp
    5045:	74 29                	je     5070 <_ZNSt6vectorI4LeafIdLi6EESaIS1_EED1Ev+0x70>
    5047:	49 8b 74 24 10       	mov    0x10(%r12),%rsi
    504c:	5b                   	pop    %rbx
    504d:	48 89 ef             	mov    %rbp,%rdi
    5050:	48 29 ee             	sub    %rbp,%rsi
    5053:	5d                   	pop    %rbp
    5054:	41 5c                	pop    %r12
    5056:	e9 b5 d0 ff ff       	jmpq   2110 <_ZdlPvm@plt>
    505b:	0f 1f 44 00 00       	nopl   0x0(%rax,%rax,1)
    5060:	48 83 c5 40          	add    $0x40,%rbp
    5064:	48 39 eb             	cmp    %rbp,%rbx
    5067:	75 b7                	jne    5020 <_ZNSt6vectorI4LeafIdLi6EESaIS1_EED1Ev+0x20>
    5069:	eb d3                	jmp    503e <_ZNSt6vectorI4LeafIdLi6EESaIS1_EED1Ev+0x3e>
    506b:	0f 1f 44 00 00       	nopl   0x0(%rax,%rax,1)
    5070:	5b                   	pop    %rbx
    5071:	5d                   	pop    %rbp
    5072:	41 5c                	pop    %r12
    5074:	c3                   	retq   
    5075:	66 2e 0f 1f 84 00 00 	nopw   %cs:0x0(%rax,%rax,1)
    507c:	00 00 00 
    507f:	90                   	nop

0000000000005080 <_ZNSt5dequeISt10shared_ptrI16PseudoPRTreeNodeIdLi6EEESaIS3_EED1Ev>:
    5080:	41 57                	push   %r15
    5082:	41 56                	push   %r14
    5084:	41 55                	push   %r13
    5086:	41 54                	push   %r12
    5088:	55                   	push   %rbp
    5089:	53                   	push   %rbx
    508a:	48 83 ec 38          	sub    $0x38,%rsp
    508e:	48 8b 5f 30          	mov    0x30(%rdi),%rbx
    5092:	48 8b 47 28          	mov    0x28(%rdi),%rax
    5096:	48 8b 77 48          	mov    0x48(%rdi),%rsi
    509a:	4c 8b 67 38          	mov    0x38(%rdi),%r12
    509e:	48 89 7c 24 20       	mov    %rdi,0x20(%rsp)
    50a3:	48 8b 6f 10          	mov    0x10(%rdi),%rbp
    50a7:	48 89 5c 24 08       	mov    %rbx,0x8(%rsp)
    50ac:	48 8b 5f 20          	mov    0x20(%rdi),%rbx
    50b0:	48 89 44 24 28       	mov    %rax,0x28(%rsp)
    50b5:	48 89 34 24          	mov    %rsi,(%rsp)
    50b9:	48 89 5c 24 18       	mov    %rbx,0x18(%rsp)
    50be:	48 8d 58 08          	lea    0x8(%rax),%rbx
    50c2:	48 39 de             	cmp    %rbx,%rsi
    50c5:	0f 86 7f 00 00 00    	jbe    514a <_ZNSt5dequeISt10shared_ptrI16PseudoPRTreeNodeIdLi6EEESaIS3_EED1Ev+0xca>
    50cb:	0f 1f 44 00 00       	nopl   0x0(%rax,%rax,1)
    50d0:	48 83 3d f0 de 00 00 	cmpq   $0x0,0xdef0(%rip)        # 12fc8 <__pthread_key_create>
    50d7:	00 
    50d8:	4c 8b 33             	mov    (%rbx),%r14
    50db:	4d 8d be 00 02 00 00 	lea    0x200(%r14),%r15
    50e2:	74 15                	je     50f9 <_ZNSt5dequeISt10shared_ptrI16PseudoPRTreeNodeIdLi6EEESaIS3_EED1Ev+0x79>
    50e4:	e9 f4 01 00 00       	jmpq   52dd <_ZNSt5dequeISt10shared_ptrI16PseudoPRTreeNodeIdLi6EEESaIS3_EED1Ev+0x25d>
    50e9:	0f 1f 80 00 00 00 00 	nopl   0x0(%rax)
    50f0:	49 83 c6 10          	add    $0x10,%r14
    50f4:	4d 39 f7             	cmp    %r14,%r15
    50f7:	74 47                	je     5140 <_ZNSt5dequeISt10shared_ptrI16PseudoPRTreeNodeIdLi6EEESaIS3_EED1Ev+0xc0>
    50f9:	4d 8b 6e 08          	mov    0x8(%r14),%r13
    50fd:	4d 85 ed             	test   %r13,%r13
    5100:	74 ee                	je     50f0 <_ZNSt5dequeISt10shared_ptrI16PseudoPRTreeNodeIdLi6EEESaIS3_EED1Ev+0x70>
    5102:	41 8b 55 08          	mov    0x8(%r13),%edx
    5106:	8d 72 ff             	lea    -0x1(%rdx),%esi
    5109:	41 89 75 08          	mov    %esi,0x8(%r13)
    510d:	83 fa 01             	cmp    $0x1,%edx
    5110:	75 de                	jne    50f0 <_ZNSt5dequeISt10shared_ptrI16PseudoPRTreeNodeIdLi6EEESaIS3_EED1Ev+0x70>
    5112:	49 8b 55 00          	mov    0x0(%r13),%rdx
    5116:	4c 89 ef             	mov    %r13,%rdi
    5119:	ff 52 10             	callq  *0x10(%rdx)
    511c:	41 8b 55 0c          	mov    0xc(%r13),%edx
    5120:	8d 72 ff             	lea    -0x1(%rdx),%esi
    5123:	41 89 75 0c          	mov    %esi,0xc(%r13)
    5127:	83 fa 01             	cmp    $0x1,%edx
    512a:	75 c4                	jne    50f0 <_ZNSt5dequeISt10shared_ptrI16PseudoPRTreeNodeIdLi6EEESaIS3_EED1Ev+0x70>
    512c:	49 8b 55 00          	mov    0x0(%r13),%rdx
    5130:	49 83 c6 10          	add    $0x10,%r14
    5134:	4c 89 ef             	mov    %r13,%rdi
    5137:	ff 52 18             	callq  *0x18(%rdx)
    513a:	4d 39 f7             	cmp    %r14,%r15
    513d:	75 ba                	jne    50f9 <_ZNSt5dequeISt10shared_ptrI16PseudoPRTreeNodeIdLi6EEESaIS3_EED1Ev+0x79>
    513f:	90                   	nop
    5140:	48 83 c3 08          	add    $0x8,%rbx
    5144:	48 39 1c 24          	cmp    %rbx,(%rsp)
    5148:	77 86                	ja     50d0 <_ZNSt5dequeISt10shared_ptrI16PseudoPRTreeNodeIdLi6EEESaIS3_EED1Ev+0x50>
    514a:	48 8b 1c 24          	mov    (%rsp),%rbx
    514e:	48 39 5c 24 28       	cmp    %rbx,0x28(%rsp)
    5153:	0f 84 18 02 00 00    	je     5371 <_ZNSt5dequeISt10shared_ptrI16PseudoPRTreeNodeIdLi6EEESaIS3_EED1Ev+0x2f1>
    5159:	48 3b 6c 24 18       	cmp    0x18(%rsp),%rbp
    515e:	74 71                	je     51d1 <_ZNSt5dequeISt10shared_ptrI16PseudoPRTreeNodeIdLi6EEESaIS3_EED1Ev+0x151>
    5160:	48 83 3d 60 de 00 00 	cmpq   $0x0,0xde60(%rip)        # 12fc8 <__pthread_key_create>
    5167:	00 
    5168:	0f 85 b1 01 00 00    	jne    531f <_ZNSt5dequeISt10shared_ptrI16PseudoPRTreeNodeIdLi6EEESaIS3_EED1Ev+0x29f>
    516e:	4c 8b 75 08          	mov    0x8(%rbp),%r14
    5172:	4d 85 f6             	test   %r14,%r14
    5175:	75 1d                	jne    5194 <_ZNSt5dequeISt10shared_ptrI16PseudoPRTreeNodeIdLi6EEESaIS3_EED1Ev+0x114>
    5177:	66 0f 1f 84 00 00 00 	nopw   0x0(%rax,%rax,1)
    517e:	00 00 
    5180:	48 83 c5 10          	add    $0x10,%rbp
    5184:	48 39 6c 24 18       	cmp    %rbp,0x18(%rsp)
    5189:	74 46                	je     51d1 <_ZNSt5dequeISt10shared_ptrI16PseudoPRTreeNodeIdLi6EEESaIS3_EED1Ev+0x151>
    518b:	4c 8b 75 08          	mov    0x8(%rbp),%r14
    518f:	4d 85 f6             	test   %r14,%r14
    5192:	74 ec                	je     5180 <_ZNSt5dequeISt10shared_ptrI16PseudoPRTreeNodeIdLi6EEESaIS3_EED1Ev+0x100>
    5194:	41 8b 46 08          	mov    0x8(%r14),%eax
    5198:	8d 50 ff             	lea    -0x1(%rax),%edx
    519b:	41 89 56 08          	mov    %edx,0x8(%r14)
    519f:	83 f8 01             	cmp    $0x1,%eax
    51a2:	75 dc                	jne    5180 <_ZNSt5dequeISt10shared_ptrI16PseudoPRTreeNodeIdLi6EEESaIS3_EED1Ev+0x100>
    51a4:	49 8b 06             	mov    (%r14),%rax
    51a7:	4c 89 f7             	mov    %r14,%rdi
    51aa:	ff 50 10             	callq  *0x10(%rax)
    51ad:	41 8b 46 0c          	mov    0xc(%r14),%eax
    51b1:	8d 50 ff             	lea    -0x1(%rax),%edx
    51b4:	41 89 56 0c          	mov    %edx,0xc(%r14)
    51b8:	83 f8 01             	cmp    $0x1,%eax
    51bb:	75 c3                	jne    5180 <_ZNSt5dequeISt10shared_ptrI16PseudoPRTreeNodeIdLi6EEESaIS3_EED1Ev+0x100>
    51bd:	49 8b 06             	mov    (%r14),%rax
    51c0:	4c 89 f7             	mov    %r14,%rdi
    51c3:	48 83 c5 10          	add    $0x10,%rbp
    51c7:	ff 50 18             	callq  *0x18(%rax)
    51ca:	48 39 6c 24 18       	cmp    %rbp,0x18(%rsp)
    51cf:	75 ba                	jne    518b <_ZNSt5dequeISt10shared_ptrI16PseudoPRTreeNodeIdLi6EEESaIS3_EED1Ev+0x10b>
    51d1:	4c 39 64 24 08       	cmp    %r12,0x8(%rsp)
    51d6:	74 68                	je     5240 <_ZNSt5dequeISt10shared_ptrI16PseudoPRTreeNodeIdLi6EEESaIS3_EED1Ev+0x1c0>
    51d8:	48 83 3d e8 dd 00 00 	cmpq   $0x0,0xdde8(%rip)        # 12fc8 <__pthread_key_create>
    51df:	00 
    51e0:	0f 85 79 01 00 00    	jne    535f <_ZNSt5dequeISt10shared_ptrI16PseudoPRTreeNodeIdLi6EEESaIS3_EED1Ev+0x2df>
    51e6:	49 8b 6c 24 08       	mov    0x8(%r12),%rbp
    51eb:	48 85 ed             	test   %rbp,%rbp
    51ee:	75 15                	jne    5205 <_ZNSt5dequeISt10shared_ptrI16PseudoPRTreeNodeIdLi6EEESaIS3_EED1Ev+0x185>
    51f0:	49 83 c4 10          	add    $0x10,%r12
    51f4:	4c 39 64 24 08       	cmp    %r12,0x8(%rsp)
    51f9:	74 45                	je     5240 <_ZNSt5dequeISt10shared_ptrI16PseudoPRTreeNodeIdLi6EEESaIS3_EED1Ev+0x1c0>
    51fb:	49 8b 6c 24 08       	mov    0x8(%r12),%rbp
    5200:	48 85 ed             	test   %rbp,%rbp
    5203:	74 eb                	je     51f0 <_ZNSt5dequeISt10shared_ptrI16PseudoPRTreeNodeIdLi6EEESaIS3_EED1Ev+0x170>
    5205:	8b 45 08             	mov    0x8(%rbp),%eax
    5208:	8d 50 ff             	lea    -0x1(%rax),%edx
    520b:	89 55 08             	mov    %edx,0x8(%rbp)
    520e:	83 f8 01             	cmp    $0x1,%eax
    5211:	75 dd                	jne    51f0 <_ZNSt5dequeISt10shared_ptrI16PseudoPRTreeNodeIdLi6EEESaIS3_EED1Ev+0x170>
    5213:	48 8b 45 00          	mov    0x0(%rbp),%rax
    5217:	48 89 ef             	mov    %rbp,%rdi
    521a:	ff 50 10             	callq  *0x10(%rax)
    521d:	8b 45 0c             	mov    0xc(%rbp),%eax
    5220:	8d 50 ff             	lea    -0x1(%rax),%edx
    5223:	89 55 0c             	mov    %edx,0xc(%rbp)
    5226:	83 f8 01             	cmp    $0x1,%eax
    5229:	75 c5                	jne    51f0 <_ZNSt5dequeISt10shared_ptrI16PseudoPRTreeNodeIdLi6EEESaIS3_EED1Ev+0x170>
    522b:	48 8b 45 00          	mov    0x0(%rbp),%rax
    522f:	48 89 ef             	mov    %rbp,%rdi
    5232:	49 83 c4 10          	add    $0x10,%r12
    5236:	ff 50 18             	callq  *0x18(%rax)
    5239:	4c 39 64 24 08       	cmp    %r12,0x8(%rsp)
    523e:	75 bb                	jne    51fb <_ZNSt5dequeISt10shared_ptrI16PseudoPRTreeNodeIdLi6EEESaIS3_EED1Ev+0x17b>
    5240:	48 8b 44 24 20       	mov    0x20(%rsp),%rax
    5245:	48 8b 38             	mov    (%rax),%rdi
    5248:	48 85 ff             	test   %rdi,%rdi
    524b:	0f 84 e1 01 00 00    	je     5432 <_ZNSt5dequeISt10shared_ptrI16PseudoPRTreeNodeIdLi6EEESaIS3_EED1Ev+0x3b2>
    5251:	48 8b 58 48          	mov    0x48(%rax),%rbx
    5255:	48 89 1c 24          	mov    %rbx,(%rsp)
    5259:	48 8d 6b 08          	lea    0x8(%rbx),%rbp
    525d:	48 8b 58 28          	mov    0x28(%rax),%rbx
    5261:	48 39 dd             	cmp    %rbx,%rbp
    5264:	76 28                	jbe    528e <_ZNSt5dequeISt10shared_ptrI16PseudoPRTreeNodeIdLi6EEESaIS3_EED1Ev+0x20e>
    5266:	66 2e 0f 1f 84 00 00 	nopw   %cs:0x0(%rax,%rax,1)
    526d:	00 00 00 
    5270:	48 8b 3b             	mov    (%rbx),%rdi
    5273:	be 00 02 00 00       	mov    $0x200,%esi
    5278:	48 83 c3 08          	add    $0x8,%rbx
    527c:	e8 8f ce ff ff       	callq  2110 <_ZdlPvm@plt>
    5281:	48 39 dd             	cmp    %rbx,%rbp
    5284:	77 ea                	ja     5270 <_ZNSt5dequeISt10shared_ptrI16PseudoPRTreeNodeIdLi6EEESaIS3_EED1Ev+0x1f0>
    5286:	48 8b 44 24 20       	mov    0x20(%rsp),%rax
    528b:	48 8b 38             	mov    (%rax),%rdi
    528e:	48 8b 44 24 20       	mov    0x20(%rsp),%rax
    5293:	48 8b 70 08          	mov    0x8(%rax),%rsi
    5297:	48 83 c4 38          	add    $0x38,%rsp
    529b:	5b                   	pop    %rbx
    529c:	5d                   	pop    %rbp
    529d:	41 5c                	pop    %r12
    529f:	41 5d                	pop    %r13
    52a1:	41 5e                	pop    %r14
    52a3:	41 5f                	pop    %r15
    52a5:	48 c1 e6 03          	shl    $0x3,%rsi
    52a9:	e9 62 ce ff ff       	jmpq   2110 <_ZdlPvm@plt>
    52ae:	66 90                	xchg   %ax,%ax
    52b0:	48 8b 0f             	mov    (%rdi),%rcx
    52b3:	48 89 7c 24 10       	mov    %rdi,0x10(%rsp)
    52b8:	ff 51 10             	callq  *0x10(%rcx)
    52bb:	48 8b 7c 24 10       	mov    0x10(%rsp),%rdi
    52c0:	b9 ff ff ff ff       	mov    $0xffffffff,%ecx
    52c5:	f0 0f c1 4f 0c       	lock xadd %ecx,0xc(%rdi)
    52ca:	83 f9 01             	cmp    $0x1,%ecx
    52cd:	74 21                	je     52f0 <_ZNSt5dequeISt10shared_ptrI16PseudoPRTreeNodeIdLi6EEESaIS3_EED1Ev+0x270>
    52cf:	90                   	nop
    52d0:	49 83 c6 10          	add    $0x10,%r14
    52d4:	4d 39 f7             	cmp    %r14,%r15
    52d7:	0f 84 63 fe ff ff    	je     5140 <_ZNSt5dequeISt10shared_ptrI16PseudoPRTreeNodeIdLi6EEESaIS3_EED1Ev+0xc0>
    52dd:	49 8b 7e 08          	mov    0x8(%r14),%rdi
    52e1:	48 85 ff             	test   %rdi,%rdi
    52e4:	74 ea                	je     52d0 <_ZNSt5dequeISt10shared_ptrI16PseudoPRTreeNodeIdLi6EEESaIS3_EED1Ev+0x250>
    52e6:	f0 ff 4f 08          	lock decl 0x8(%rdi)
    52ea:	75 e4                	jne    52d0 <_ZNSt5dequeISt10shared_ptrI16PseudoPRTreeNodeIdLi6EEESaIS3_EED1Ev+0x250>
    52ec:	eb c2                	jmp    52b0 <_ZNSt5dequeISt10shared_ptrI16PseudoPRTreeNodeIdLi6EEESaIS3_EED1Ev+0x230>
    52ee:	66 90                	xchg   %ax,%ax
    52f0:	48 8b 0f             	mov    (%rdi),%rcx
    52f3:	ff 51 18             	callq  *0x18(%rcx)
    52f6:	eb d8                	jmp    52d0 <_ZNSt5dequeISt10shared_ptrI16PseudoPRTreeNodeIdLi6EEESaIS3_EED1Ev+0x250>
    52f8:	49 8b 06             	mov    (%r14),%rax
    52fb:	4c 89 f7             	mov    %r14,%rdi
    52fe:	ff 50 10             	callq  *0x10(%rax)
    5301:	f0 41 ff 4e 0c       	lock decl 0xc(%r14)
    5306:	0f 84 35 01 00 00    	je     5441 <_ZNSt5dequeISt10shared_ptrI16PseudoPRTreeNodeIdLi6EEESaIS3_EED1Ev+0x3c1>
    530c:	0f 1f 40 00          	nopl   0x0(%rax)
    5310:	48 83 c5 10          	add    $0x10,%rbp
    5314:	48 39 6c 24 18       	cmp    %rbp,0x18(%rsp)
    5319:	0f 84 b2 fe ff ff    	je     51d1 <_ZNSt5dequeISt10shared_ptrI16PseudoPRTreeNodeIdLi6EEESaIS3_EED1Ev+0x151>
    531f:	4c 8b 75 08          	mov    0x8(%rbp),%r14
    5323:	4d 85 f6             	test   %r14,%r14
    5326:	74 e8                	je     5310 <_ZNSt5dequeISt10shared_ptrI16PseudoPRTreeNodeIdLi6EEESaIS3_EED1Ev+0x290>
    5328:	f0 41 ff 4e 08       	lock decl 0x8(%r14)
    532d:	75 e1                	jne    5310 <_ZNSt5dequeISt10shared_ptrI16PseudoPRTreeNodeIdLi6EEESaIS3_EED1Ev+0x290>
    532f:	eb c7                	jmp    52f8 <_ZNSt5dequeISt10shared_ptrI16PseudoPRTreeNodeIdLi6EEESaIS3_EED1Ev+0x278>
    5331:	48 8b 45 00          	mov    0x0(%rbp),%rax
    5335:	48 89 ef             	mov    %rbp,%rdi
    5338:	ff 50 10             	callq  *0x10(%rax)
    533b:	f0 ff 4d 0c          	lock decl 0xc(%rbp)
    533f:	0f 84 0a 01 00 00    	je     544f <_ZNSt5dequeISt10shared_ptrI16PseudoPRTreeNodeIdLi6EEESaIS3_EED1Ev+0x3cf>
    5345:	66 66 2e 0f 1f 84 00 	data16 nopw %cs:0x0(%rax,%rax,1)
    534c:	00 00 00 00 
    5350:	49 83 c4 10          	add    $0x10,%r12
    5354:	4c 39 64 24 08       	cmp    %r12,0x8(%rsp)
    5359:	0f 84 e1 fe ff ff    	je     5240 <_ZNSt5dequeISt10shared_ptrI16PseudoPRTreeNodeIdLi6EEESaIS3_EED1Ev+0x1c0>
    535f:	49 8b 6c 24 08       	mov    0x8(%r12),%rbp
    5364:	48 85 ed             	test   %rbp,%rbp
    5367:	74 e7                	je     5350 <_ZNSt5dequeISt10shared_ptrI16PseudoPRTreeNodeIdLi6EEESaIS3_EED1Ev+0x2d0>
    5369:	f0 ff 4d 08          	lock decl 0x8(%rbp)
    536d:	75 e1                	jne    5350 <_ZNSt5dequeISt10shared_ptrI16PseudoPRTreeNodeIdLi6EEESaIS3_EED1Ev+0x2d0>
    536f:	eb c0                	jmp    5331 <_ZNSt5dequeISt10shared_ptrI16PseudoPRTreeNodeIdLi6EEESaIS3_EED1Ev+0x2b1>
    5371:	48 3b 6c 24 08       	cmp    0x8(%rsp),%rbp
    5376:	0f 84 c4 fe ff ff    	je     5240 <_ZNSt5dequeISt10shared_ptrI16PseudoPRTreeNodeIdLi6EEESaIS3_EED1Ev+0x1c0>
    537c:	48 83 3d 44 dc 00 00 	cmpq   $0x0,0xdc44(%rip)        # 12fc8 <__pthread_key_create>
    5383:	00 
    5384:	0f 85 95 00 00 00    	jne    541f <_ZNSt5dequeISt10shared_ptrI16PseudoPRTreeNodeIdLi6EEESaIS3_EED1Ev+0x39f>
    538a:	4c 8b 65 08          	mov    0x8(%rbp),%r12
    538e:	4d 85 e4             	test   %r12,%r12
    5391:	75 25                	jne    53b8 <_ZNSt5dequeISt10shared_ptrI16PseudoPRTreeNodeIdLi6EEESaIS3_EED1Ev+0x338>
    5393:	66 66 2e 0f 1f 84 00 	data16 nopw %cs:0x0(%rax,%rax,1)
    539a:	00 00 00 00 
    539e:	66 90                	xchg   %ax,%ax
    53a0:	48 83 c5 10          	add    $0x10,%rbp
    53a4:	48 39 6c 24 08       	cmp    %rbp,0x8(%rsp)
    53a9:	0f 84 91 fe ff ff    	je     5240 <_ZNSt5dequeISt10shared_ptrI16PseudoPRTreeNodeIdLi6EEESaIS3_EED1Ev+0x1c0>
    53af:	4c 8b 65 08          	mov    0x8(%rbp),%r12
    53b3:	4d 85 e4             	test   %r12,%r12
    53b6:	74 e8                	je     53a0 <_ZNSt5dequeISt10shared_ptrI16PseudoPRTreeNodeIdLi6EEESaIS3_EED1Ev+0x320>
    53b8:	41 8b 44 24 08       	mov    0x8(%r12),%eax
    53bd:	8d 50 ff             	lea    -0x1(%rax),%edx
    53c0:	41 89 54 24 08       	mov    %edx,0x8(%r12)
    53c5:	83 f8 01             	cmp    $0x1,%eax
    53c8:	75 d6                	jne    53a0 <_ZNSt5dequeISt10shared_ptrI16PseudoPRTreeNodeIdLi6EEESaIS3_EED1Ev+0x320>
    53ca:	49 8b 04 24          	mov    (%r12),%rax
    53ce:	4c 89 e7             	mov    %r12,%rdi
    53d1:	ff 50 10             	callq  *0x10(%rax)
    53d4:	41 8b 44 24 0c       	mov    0xc(%r12),%eax
    53d9:	8d 50 ff             	lea    -0x1(%rax),%edx
    53dc:	41 89 54 24 0c       	mov    %edx,0xc(%r12)
    53e1:	83 f8 01             	cmp    $0x1,%eax
    53e4:	75 ba                	jne    53a0 <_ZNSt5dequeISt10shared_ptrI16PseudoPRTreeNodeIdLi6EEESaIS3_EED1Ev+0x320>
    53e6:	49 8b 04 24          	mov    (%r12),%rax
    53ea:	4c 89 e7             	mov    %r12,%rdi
    53ed:	ff 50 18             	callq  *0x18(%rax)
    53f0:	eb ae                	jmp    53a0 <_ZNSt5dequeISt10shared_ptrI16PseudoPRTreeNodeIdLi6EEESaIS3_EED1Ev+0x320>
    53f2:	49 8b 04 24          	mov    (%r12),%rax
    53f6:	4c 89 e7             	mov    %r12,%rdi
    53f9:	ff 50 10             	callq  *0x10(%rax)
    53fc:	f0 41 ff 4c 24 0c    	lock decl 0xc(%r12)
    5402:	74 5a                	je     545e <_ZNSt5dequeISt10shared_ptrI16PseudoPRTreeNodeIdLi6EEESaIS3_EED1Ev+0x3de>
    5404:	66 66 2e 0f 1f 84 00 	data16 nopw %cs:0x0(%rax,%rax,1)
    540b:	00 00 00 00 
    540f:	90                   	nop
    5410:	48 83 c5 10          	add    $0x10,%rbp
    5414:	48 39 6c 24 08       	cmp    %rbp,0x8(%rsp)
    5419:	0f 84 21 fe ff ff    	je     5240 <_ZNSt5dequeISt10shared_ptrI16PseudoPRTreeNodeIdLi6EEESaIS3_EED1Ev+0x1c0>
    541f:	4c 8b 65 08          	mov    0x8(%rbp),%r12
    5423:	4d 85 e4             	test   %r12,%r12
    5426:	74 e8                	je     5410 <_ZNSt5dequeISt10shared_ptrI16PseudoPRTreeNodeIdLi6EEESaIS3_EED1Ev+0x390>
    5428:	f0 41 ff 4c 24 08    	lock decl 0x8(%r12)
    542e:	75 e0                	jne    5410 <_ZNSt5dequeISt10shared_ptrI16PseudoPRTreeNodeIdLi6EEESaIS3_EED1Ev+0x390>
    5430:	eb c0                	jmp    53f2 <_ZNSt5dequeISt10shared_ptrI16PseudoPRTreeNodeIdLi6EEESaIS3_EED1Ev+0x372>
    5432:	48 83 c4 38          	add    $0x38,%rsp
    5436:	5b                   	pop    %rbx
    5437:	5d                   	pop    %rbp
    5438:	41 5c                	pop    %r12
    543a:	41 5d                	pop    %r13
    543c:	41 5e                	pop    %r14
    543e:	41 5f                	pop    %r15
    5440:	c3                   	retq   
    5441:	49 8b 06             	mov    (%r14),%rax
    5444:	4c 89 f7             	mov    %r14,%rdi
    5447:	ff 50 18             	callq  *0x18(%rax)
    544a:	e9 c1 fe ff ff       	jmpq   5310 <_ZNSt5dequeISt10shared_ptrI16PseudoPRTreeNodeIdLi6EEESaIS3_EED1Ev+0x290>
    544f:	48 8b 45 00          	mov    0x0(%rbp),%rax
    5453:	48 89 ef             	mov    %rbp,%rdi
    5456:	ff 50 18             	callq  *0x18(%rax)
    5459:	e9 f2 fe ff ff       	jmpq   5350 <_ZNSt5dequeISt10shared_ptrI16PseudoPRTreeNodeIdLi6EEESaIS3_EED1Ev+0x2d0>
    545e:	49 8b 04 24          	mov    (%r12),%rax
    5462:	4c 89 e7             	mov    %r12,%rdi
    5465:	ff 50 18             	callq  *0x18(%rax)
    5468:	eb a6                	jmp    5410 <_ZNSt5dequeISt10shared_ptrI16PseudoPRTreeNodeIdLi6EEESaIS3_EED1Ev+0x390>
    546a:	66 0f 1f 44 00 00    	nopw   0x0(%rax,%rax,1)

0000000000005470 <_ZNSt5dequeISt10shared_ptrI16PseudoPRTreeNodeIiLi6EEESaIS3_EED1Ev>:
    5470:	41 57                	push   %r15
    5472:	41 56                	push   %r14
    5474:	41 55                	push   %r13
    5476:	41 54                	push   %r12
    5478:	55                   	push   %rbp
    5479:	53                   	push   %rbx
    547a:	48 83 ec 38          	sub    $0x38,%rsp
    547e:	48 8b 5f 30          	mov    0x30(%rdi),%rbx
    5482:	48 8b 47 28          	mov    0x28(%rdi),%rax
    5486:	48 8b 77 48          	mov    0x48(%rdi),%rsi
    548a:	4c 8b 67 38          	mov    0x38(%rdi),%r12
    548e:	48 89 7c 24 20       	mov    %rdi,0x20(%rsp)
    5493:	48 8b 6f 10          	mov    0x10(%rdi),%rbp
    5497:	48 89 5c 24 08       	mov    %rbx,0x8(%rsp)
    549c:	48 8b 5f 20          	mov    0x20(%rdi),%rbx
    54a0:	48 89 44 24 28       	mov    %rax,0x28(%rsp)
    54a5:	48 89 34 24          	mov    %rsi,(%rsp)
    54a9:	48 89 5c 24 18       	mov    %rbx,0x18(%rsp)
    54ae:	48 8d 58 08          	lea    0x8(%rax),%rbx
    54b2:	48 39 de             	cmp    %rbx,%rsi
    54b5:	0f 86 7f 00 00 00    	jbe    553a <_ZNSt5dequeISt10shared_ptrI16PseudoPRTreeNodeIiLi6EEESaIS3_EED1Ev+0xca>
    54bb:	0f 1f 44 00 00       	nopl   0x0(%rax,%rax,1)
    54c0:	48 83 3d 00 db 00 00 	cmpq   $0x0,0xdb00(%rip)        # 12fc8 <__pthread_key_create>
    54c7:	00 
    54c8:	4c 8b 33             	mov    (%rbx),%r14
    54cb:	4d 8d be 00 02 00 00 	lea    0x200(%r14),%r15
    54d2:	74 15                	je     54e9 <_ZNSt5dequeISt10shared_ptrI16PseudoPRTreeNodeIiLi6EEESaIS3_EED1Ev+0x79>
    54d4:	e9 f4 01 00 00       	jmpq   56cd <_ZNSt5dequeISt10shared_ptrI16PseudoPRTreeNodeIiLi6EEESaIS3_EED1Ev+0x25d>
    54d9:	0f 1f 80 00 00 00 00 	nopl   0x0(%rax)
    54e0:	49 83 c6 10          	add    $0x10,%r14
    54e4:	4d 39 f7             	cmp    %r14,%r15
    54e7:	74 47                	je     5530 <_ZNSt5dequeISt10shared_ptrI16PseudoPRTreeNodeIiLi6EEESaIS3_EED1Ev+0xc0>
    54e9:	4d 8b 6e 08          	mov    0x8(%r14),%r13
    54ed:	4d 85 ed             	test   %r13,%r13
    54f0:	74 ee                	je     54e0 <_ZNSt5dequeISt10shared_ptrI16PseudoPRTreeNodeIiLi6EEESaIS3_EED1Ev+0x70>
    54f2:	41 8b 55 08          	mov    0x8(%r13),%edx
    54f6:	8d 72 ff             	lea    -0x1(%rdx),%esi
    54f9:	41 89 75 08          	mov    %esi,0x8(%r13)
    54fd:	83 fa 01             	cmp    $0x1,%edx
    5500:	75 de                	jne    54e0 <_ZNSt5dequeISt10shared_ptrI16PseudoPRTreeNodeIiLi6EEESaIS3_EED1Ev+0x70>
    5502:	49 8b 55 00          	mov    0x0(%r13),%rdx
    5506:	4c 89 ef             	mov    %r13,%rdi
    5509:	ff 52 10             	callq  *0x10(%rdx)
    550c:	41 8b 55 0c          	mov    0xc(%r13),%edx
    5510:	8d 72 ff             	lea    -0x1(%rdx),%esi
    5513:	41 89 75 0c          	mov    %esi,0xc(%r13)
    5517:	83 fa 01             	cmp    $0x1,%edx
    551a:	75 c4                	jne    54e0 <_ZNSt5dequeISt10shared_ptrI16PseudoPRTreeNodeIiLi6EEESaIS3_EED1Ev+0x70>
    551c:	49 8b 55 00          	mov    0x0(%r13),%rdx
    5520:	49 83 c6 10          	add    $0x10,%r14
    5524:	4c 89 ef             	mov    %r13,%rdi
    5527:	ff 52 18             	callq  *0x18(%rdx)
    552a:	4d 39 f7             	cmp    %r14,%r15
    552d:	75 ba                	jne    54e9 <_ZNSt5dequeISt10shared_ptrI16PseudoPRTreeNodeIiLi6EEESaIS3_EED1Ev+0x79>
    552f:	90                   	nop
    5530:	48 83 c3 08          	add    $0x8,%rbx
    5534:	48 39 1c 24          	cmp    %rbx,(%rsp)
    5538:	77 86                	ja     54c0 <_ZNSt5dequeISt10shared_ptrI16PseudoPRTreeNodeIiLi6EEESaIS3_EED1Ev+0x50>
    553a:	48 8b 1c 24          	mov    (%rsp),%rbx
    553e:	48 39 5c 24 28       	cmp    %rbx,0x28(%rsp)
    5543:	0f 84 18 02 00 00    	je     5761 <_ZNSt5dequeISt10shared_ptrI16PseudoPRTreeNodeIiLi6EEESaIS3_EED1Ev+0x2f1>
    5549:	48 3b 6c 24 18       	cmp    0x18(%rsp),%rbp
    554e:	74 71                	je     55c1 <_ZNSt5dequeISt10shared_ptrI16PseudoPRTreeNodeIiLi6EEESaIS3_EED1Ev+0x151>
    5550:	48 83 3d 70 da 00 00 	cmpq   $0x0,0xda70(%rip)        # 12fc8 <__pthread_key_create>
    5557:	00 
    5558:	0f 85 b1 01 00 00    	jne    570f <_ZNSt5dequeISt10shared_ptrI16PseudoPRTreeNodeIiLi6EEESaIS3_EED1Ev+0x29f>
    555e:	4c 8b 75 08          	mov    0x8(%rbp),%r14
    5562:	4d 85 f6             	test   %r14,%r14
    5565:	75 1d                	jne    5584 <_ZNSt5dequeISt10shared_ptrI16PseudoPRTreeNodeIiLi6EEESaIS3_EED1Ev+0x114>
    5567:	66 0f 1f 84 00 00 00 	nopw   0x0(%rax,%rax,1)
    556e:	00 00 
    5570:	48 83 c5 10          	add    $0x10,%rbp
    5574:	48 39 6c 24 18       	cmp    %rbp,0x18(%rsp)
    5579:	74 46                	je     55c1 <_ZNSt5dequeISt10shared_ptrI16PseudoPRTreeNodeIiLi6EEESaIS3_EED1Ev+0x151>
    557b:	4c 8b 75 08          	mov    0x8(%rbp),%r14
    557f:	4d 85 f6             	test   %r14,%r14
    5582:	74 ec                	je     5570 <_ZNSt5dequeISt10shared_ptrI16PseudoPRTreeNodeIiLi6EEESaIS3_EED1Ev+0x100>
    5584:	41 8b 46 08          	mov    0x8(%r14),%eax
    5588:	8d 50 ff             	lea    -0x1(%rax),%edx
    558b:	41 89 56 08          	mov    %edx,0x8(%r14)
    558f:	83 f8 01             	cmp    $0x1,%eax
    5592:	75 dc                	jne    5570 <_ZNSt5dequeISt10shared_ptrI16PseudoPRTreeNodeIiLi6EEESaIS3_EED1Ev+0x100>
    5594:	49 8b 06             	mov    (%r14),%rax
    5597:	4c 89 f7             	mov    %r14,%rdi
    559a:	ff 50 10             	callq  *0x10(%rax)
    559d:	41 8b 46 0c          	mov    0xc(%r14),%eax
    55a1:	8d 50 ff             	lea    -0x1(%rax),%edx
    55a4:	41 89 56 0c          	mov    %edx,0xc(%r14)
    55a8:	83 f8 01             	cmp    $0x1,%eax
    55ab:	75 c3                	jne    5570 <_ZNSt5dequeISt10shared_ptrI16PseudoPRTreeNodeIiLi6EEESaIS3_EED1Ev+0x100>
    55ad:	49 8b 06             	mov    (%r14),%rax
    55b0:	4c 89 f7             	mov    %r14,%rdi
    55b3:	48 83 c5 10          	add    $0x10,%rbp
    55b7:	ff 50 18             	callq  *0x18(%rax)
    55ba:	48 39 6c 24 18       	cmp    %rbp,0x18(%rsp)
    55bf:	75 ba                	jne    557b <_ZNSt5dequeISt10shared_ptrI16PseudoPRTreeNodeIiLi6EEESaIS3_EED1Ev+0x10b>
    55c1:	4c 39 64 24 08       	cmp    %r12,0x8(%rsp)
    55c6:	74 68                	je     5630 <_ZNSt5dequeISt10shared_ptrI16PseudoPRTreeNodeIiLi6EEESaIS3_EED1Ev+0x1c0>
    55c8:	48 83 3d f8 d9 00 00 	cmpq   $0x0,0xd9f8(%rip)        # 12fc8 <__pthread_key_create>
    55cf:	00 
    55d0:	0f 85 79 01 00 00    	jne    574f <_ZNSt5dequeISt10shared_ptrI16PseudoPRTreeNodeIiLi6EEESaIS3_EED1Ev+0x2df>
    55d6:	49 8b 6c 24 08       	mov    0x8(%r12),%rbp
    55db:	48 85 ed             	test   %rbp,%rbp
    55de:	75 15                	jne    55f5 <_ZNSt5dequeISt10shared_ptrI16PseudoPRTreeNodeIiLi6EEESaIS3_EED1Ev+0x185>
    55e0:	49 83 c4 10          	add    $0x10,%r12
    55e4:	4c 39 64 24 08       	cmp    %r12,0x8(%rsp)
    55e9:	74 45                	je     5630 <_ZNSt5dequeISt10shared_ptrI16PseudoPRTreeNodeIiLi6EEESaIS3_EED1Ev+0x1c0>
    55eb:	49 8b 6c 24 08       	mov    0x8(%r12),%rbp
    55f0:	48 85 ed             	test   %rbp,%rbp
    55f3:	74 eb                	je     55e0 <_ZNSt5dequeISt10shared_ptrI16PseudoPRTreeNodeIiLi6EEESaIS3_EED1Ev+0x170>
    55f5:	8b 45 08             	mov    0x8(%rbp),%eax
    55f8:	8d 50 ff             	lea    -0x1(%rax),%edx
    55fb:	89 55 08             	mov    %edx,0x8(%rbp)
    55fe:	83 f8 01             	cmp    $0x1,%eax
    5601:	75 dd                	jne    55e0 <_ZNSt5dequeISt10shared_ptrI16PseudoPRTreeNodeIiLi6EEESaIS3_EED1Ev+0x170>
    5603:	48 8b 45 00          	mov    0x0(%rbp),%rax
    5607:	48 89 ef             	mov    %rbp,%rdi
    560a:	ff 50 10             	callq  *0x10(%rax)
    560d:	8b 45 0c             	mov    0xc(%rbp),%eax
    5610:	8d 50 ff             	lea    -0x1(%rax),%edx
    5613:	89 55 0c             	mov    %edx,0xc(%rbp)
    5616:	83 f8 01             	cmp    $0x1,%eax
    5619:	75 c5                	jne    55e0 <_ZNSt5dequeISt10shared_ptrI16PseudoPRTreeNodeIiLi6EEESaIS3_EED1Ev+0x170>
    561b:	48 8b 45 00          	mov    0x0(%rbp),%rax
    561f:	48 89 ef             	mov    %rbp,%rdi
    5622:	49 83 c4 10          	add    $0x10,%r12
    5626:	ff 50 18             	callq  *0x18(%rax)
    5629:	4c 39 64 24 08       	cmp    %r12,0x8(%rsp)
    562e:	75 bb                	jne    55eb <_ZNSt5dequeISt10shared_ptrI16PseudoPRTreeNodeIiLi6EEESaIS3_EED1Ev+0x17b>
    5630:	48 8b 44 24 20       	mov    0x20(%rsp),%rax
    5635:	48 8b 38             	mov    (%rax),%rdi
    5638:	48 85 ff             	test   %rdi,%rdi
    563b:	0f 84 e1 01 00 00    	je     5822 <_ZNSt5dequeISt10shared_ptrI16PseudoPRTreeNodeIiLi6EEESaIS3_EED1Ev+0x3b2>
    5641:	48 8b 58 48          	mov    0x48(%rax),%rbx
    5645:	48 89 1c 24          	mov    %rbx,(%rsp)
    5649:	48 8d 6b 08          	lea    0x8(%rbx),%rbp
    564d:	48 8b 58 28          	mov    0x28(%rax),%rbx
    5651:	48 39 dd             	cmp    %rbx,%rbp
    5654:	76 28                	jbe    567e <_ZNSt5dequeISt10shared_ptrI16PseudoPRTreeNodeIiLi6EEESaIS3_EED1Ev+0x20e>
    5656:	66 2e 0f 1f 84 00 00 	nopw   %cs:0x0(%rax,%rax,1)
    565d:	00 00 00 
    5660:	48 8b 3b             	mov    (%rbx),%rdi
    5663:	be 00 02 00 00       	mov    $0x200,%esi
    5668:	48 83 c3 08          	add    $0x8,%rbx
    566c:	e8 9f ca ff ff       	callq  2110 <_ZdlPvm@plt>
    5671:	48 39 dd             	cmp    %rbx,%rbp
    5674:	77 ea                	ja     5660 <_ZNSt5dequeISt10shared_ptrI16PseudoPRTreeNodeIiLi6EEESaIS3_EED1Ev+0x1f0>
    5676:	48 8b 44 24 20       	mov    0x20(%rsp),%rax
    567b:	48 8b 38             	mov    (%rax),%rdi
    567e:	48 8b 44 24 20       	mov    0x20(%rsp),%rax
    5683:	48 8b 70 08          	mov    0x8(%rax),%rsi
    5687:	48 83 c4 38          	add    $0x38,%rsp
    568b:	5b                   	pop    %rbx
    568c:	5d                   	pop    %rbp
    568d:	41 5c                	pop    %r12
    568f:	41 5d                	pop    %r13
    5691:	41 5e                	pop    %r14
    5693:	41 5f                	pop    %r15
    5695:	48 c1 e6 03          	shl    $0x3,%rsi
    5699:	e9 72 ca ff ff       	jmpq   2110 <_ZdlPvm@plt>
    569e:	66 90                	xchg   %ax,%ax
    56a0:	48 8b 0f             	mov    (%rdi),%rcx
    56a3:	48 89 7c 24 10       	mov    %rdi,0x10(%rsp)
    56a8:	ff 51 10             	callq  *0x10(%rcx)
    56ab:	48 8b 7c 24 10       	mov    0x10(%rsp),%rdi
    56b0:	b9 ff ff ff ff       	mov    $0xffffffff,%ecx
    56b5:	f0 0f c1 4f 0c       	lock xadd %ecx,0xc(%rdi)
    56ba:	83 f9 01             	cmp    $0x1,%ecx
    56bd:	74 21                	je     56e0 <_ZNSt5dequeISt10shared_ptrI16PseudoPRTreeNodeIiLi6EEESaIS3_EED1Ev+0x270>
    56bf:	90                   	nop
    56c0:	49 83 c6 10          	add    $0x10,%r14
    56c4:	4d 39 f7             	cmp    %r14,%r15
    56c7:	0f 84 63 fe ff ff    	je     5530 <_ZNSt5dequeISt10shared_ptrI16PseudoPRTreeNodeIiLi6EEESaIS3_EED1Ev+0xc0>
    56cd:	49 8b 7e 08          	mov    0x8(%r14),%rdi
    56d1:	48 85 ff             	test   %rdi,%rdi
    56d4:	74 ea                	je     56c0 <_ZNSt5dequeISt10shared_ptrI16PseudoPRTreeNodeIiLi6EEESaIS3_EED1Ev+0x250>
    56d6:	f0 ff 4f 08          	lock decl 0x8(%rdi)
    56da:	75 e4                	jne    56c0 <_ZNSt5dequeISt10shared_ptrI16PseudoPRTreeNodeIiLi6EEESaIS3_EED1Ev+0x250>
    56dc:	eb c2                	jmp    56a0 <_ZNSt5dequeISt10shared_ptrI16PseudoPRTreeNodeIiLi6EEESaIS3_EED1Ev+0x230>
    56de:	66 90                	xchg   %ax,%ax
    56e0:	48 8b 0f             	mov    (%rdi),%rcx
    56e3:	ff 51 18             	callq  *0x18(%rcx)
    56e6:	eb d8                	jmp    56c0 <_ZNSt5dequeISt10shared_ptrI16PseudoPRTreeNodeIiLi6EEESaIS3_EED1Ev+0x250>
    56e8:	49 8b 06             	mov    (%r14),%rax
    56eb:	4c 89 f7             	mov    %r14,%rdi
    56ee:	ff 50 10             	callq  *0x10(%rax)
    56f1:	f0 41 ff 4e 0c       	lock decl 0xc(%r14)
    56f6:	0f 84 35 01 00 00    	je     5831 <_ZNSt5dequeISt10shared_ptrI16PseudoPRTreeNodeIiLi6EEESaIS3_EED1Ev+0x3c1>
    56fc:	0f 1f 40 00          	nopl   0x0(%rax)
    5700:	48 83 c5 10          	add    $0x10,%rbp
    5704:	48 39 6c 24 18       	cmp    %rbp,0x18(%rsp)
    5709:	0f 84 b2 fe ff ff    	je     55c1 <_ZNSt5dequeISt10shared_ptrI16PseudoPRTreeNodeIiLi6EEESaIS3_EED1Ev+0x151>
    570f:	4c 8b 75 08          	mov    0x8(%rbp),%r14
    5713:	4d 85 f6             	test   %r14,%r14
    5716:	74 e8                	je     5700 <_ZNSt5dequeISt10shared_ptrI16PseudoPRTreeNodeIiLi6EEESaIS3_EED1Ev+0x290>
    5718:	f0 41 ff 4e 08       	lock decl 0x8(%r14)
    571d:	75 e1                	jne    5700 <_ZNSt5dequeISt10shared_ptrI16PseudoPRTreeNodeIiLi6EEESaIS3_EED1Ev+0x290>
    571f:	eb c7                	jmp    56e8 <_ZNSt5dequeISt10shared_ptrI16PseudoPRTreeNodeIiLi6EEESaIS3_EED1Ev+0x278>
    5721:	48 8b 45 00          	mov    0x0(%rbp),%rax
    5725:	48 89 ef             	mov    %rbp,%rdi
    5728:	ff 50 10             	callq  *0x10(%rax)
    572b:	f0 ff 4d 0c          	lock decl 0xc(%rbp)
    572f:	0f 84 0a 01 00 00    	je     583f <_ZNSt5dequeISt10shared_ptrI16PseudoPRTreeNodeIiLi6EEESaIS3_EED1Ev+0x3cf>
    5735:	66 66 2e 0f 1f 84 00 	data16 nopw %cs:0x0(%rax,%rax,1)
    573c:	00 00 00 00 
    5740:	49 83 c4 10          	add    $0x10,%r12
    5744:	4c 39 64 24 08       	cmp    %r12,0x8(%rsp)
    5749:	0f 84 e1 fe ff ff    	je     5630 <_ZNSt5dequeISt10shared_ptrI16PseudoPRTreeNodeIiLi6EEESaIS3_EED1Ev+0x1c0>
    574f:	49 8b 6c 24 08       	mov    0x8(%r12),%rbp
    5754:	48 85 ed             	test   %rbp,%rbp
    5757:	74 e7                	je     5740 <_ZNSt5dequeISt10shared_ptrI16PseudoPRTreeNodeIiLi6EEESaIS3_EED1Ev+0x2d0>
    5759:	f0 ff 4d 08          	lock decl 0x8(%rbp)
    575d:	75 e1                	jne    5740 <_ZNSt5dequeISt10shared_ptrI16PseudoPRTreeNodeIiLi6EEESaIS3_EED1Ev+0x2d0>
    575f:	eb c0                	jmp    5721 <_ZNSt5dequeISt10shared_ptrI16PseudoPRTreeNodeIiLi6EEESaIS3_EED1Ev+0x2b1>
    5761:	48 3b 6c 24 08       	cmp    0x8(%rsp),%rbp
    5766:	0f 84 c4 fe ff ff    	je     5630 <_ZNSt5dequeISt10shared_ptrI16PseudoPRTreeNodeIiLi6EEESaIS3_EED1Ev+0x1c0>
    576c:	48 83 3d 54 d8 00 00 	cmpq   $0x0,0xd854(%rip)        # 12fc8 <__pthread_key_create>
    5773:	00 
    5774:	0f 85 95 00 00 00    	jne    580f <_ZNSt5dequeISt10shared_ptrI16PseudoPRTreeNodeIiLi6EEESaIS3_EED1Ev+0x39f>
    577a:	4c 8b 65 08          	mov    0x8(%rbp),%r12
    577e:	4d 85 e4             	test   %r12,%r12
    5781:	75 25                	jne    57a8 <_ZNSt5dequeISt10shared_ptrI16PseudoPRTreeNodeIiLi6EEESaIS3_EED1Ev+0x338>
    5783:	66 66 2e 0f 1f 84 00 	data16 nopw %cs:0x0(%rax,%rax,1)
    578a:	00 00 00 00 
    578e:	66 90                	xchg   %ax,%ax
    5790:	48 83 c5 10          	add    $0x10,%rbp
    5794:	48 39 6c 24 08       	cmp    %rbp,0x8(%rsp)
    5799:	0f 84 91 fe ff ff    	je     5630 <_ZNSt5dequeISt10shared_ptrI16PseudoPRTreeNodeIiLi6EEESaIS3_EED1Ev+0x1c0>
    579f:	4c 8b 65 08          	mov    0x8(%rbp),%r12
    57a3:	4d 85 e4             	test   %r12,%r12
    57a6:	74 e8                	je     5790 <_ZNSt5dequeISt10shared_ptrI16PseudoPRTreeNodeIiLi6EEESaIS3_EED1Ev+0x320>
    57a8:	41 8b 44 24 08       	mov    0x8(%r12),%eax
    57ad:	8d 50 ff             	lea    -0x1(%rax),%edx
    57b0:	41 89 54 24 08       	mov    %edx,0x8(%r12)
    57b5:	83 f8 01             	cmp    $0x1,%eax
    57b8:	75 d6                	jne    5790 <_ZNSt5dequeISt10shared_ptrI16PseudoPRTreeNodeIiLi6EEESaIS3_EED1Ev+0x320>
    57ba:	49 8b 04 24          	mov    (%r12),%rax
    57be:	4c 89 e7             	mov    %r12,%rdi
    57c1:	ff 50 10             	callq  *0x10(%rax)
    57c4:	41 8b 44 24 0c       	mov    0xc(%r12),%eax
    57c9:	8d 50 ff             	lea    -0x1(%rax),%edx
    57cc:	41 89 54 24 0c       	mov    %edx,0xc(%r12)
    57d1:	83 f8 01             	cmp    $0x1,%eax
    57d4:	75 ba                	jne    5790 <_ZNSt5dequeISt10shared_ptrI16PseudoPRTreeNodeIiLi6EEESaIS3_EED1Ev+0x320>
    57d6:	49 8b 04 24          	mov    (%r12),%rax
    57da:	4c 89 e7             	mov    %r12,%rdi
    57dd:	ff 50 18             	callq  *0x18(%rax)
    57e0:	eb ae                	jmp    5790 <_ZNSt5dequeISt10shared_ptrI16PseudoPRTreeNodeIiLi6EEESaIS3_EED1Ev+0x320>
    57e2:	49 8b 04 24          	mov    (%r12),%rax
    57e6:	4c 89 e7             	mov    %r12,%rdi
    57e9:	ff 50 10             	callq  *0x10(%rax)
    57ec:	f0 41 ff 4c 24 0c    	lock decl 0xc(%r12)
    57f2:	74 5a                	je     584e <_ZNSt5dequeISt10shared_ptrI16PseudoPRTreeNodeIiLi6EEESaIS3_EED1Ev+0x3de>
    57f4:	66 66 2e 0f 1f 84 00 	data16 nopw %cs:0x0(%rax,%rax,1)
    57fb:	00 00 00 00 
    57ff:	90                   	nop
    5800:	48 83 c5 10          	add    $0x10,%rbp
    5804:	48 39 6c 24 08       	cmp    %rbp,0x8(%rsp)
    5809:	0f 84 21 fe ff ff    	je     5630 <_ZNSt5dequeISt10shared_ptrI16PseudoPRTreeNodeIiLi6EEESaIS3_EED1Ev+0x1c0>
    580f:	4c 8b 65 08          	mov    0x8(%rbp),%r12
    5813:	4d 85 e4             	test   %r12,%r12
    5816:	74 e8                	je     5800 <_ZNSt5dequeISt10shared_ptrI16PseudoPRTreeNodeIiLi6EEESaIS3_EED1Ev+0x390>
    5818:	f0 41 ff 4c 24 08    	lock decl 0x8(%r12)
    581e:	75 e0                	jne    5800 <_ZNSt5dequeISt10shared_ptrI16PseudoPRTreeNodeIiLi6EEESaIS3_EED1Ev+0x390>
    5820:	eb c0                	jmp    57e2 <_ZNSt5dequeISt10shared_ptrI16PseudoPRTreeNodeIiLi6EEESaIS3_EED1Ev+0x372>
    5822:	48 83 c4 38          	add    $0x38,%rsp
    5826:	5b                   	pop    %rbx
    5827:	5d                   	pop    %rbp
    5828:	41 5c                	pop    %r12
    582a:	41 5d                	pop    %r13
    582c:	41 5e                	pop    %r14
    582e:	41 5f                	pop    %r15
    5830:	c3                   	retq   
    5831:	49 8b 06             	mov    (%r14),%rax
    5834:	4c 89 f7             	mov    %r14,%rdi
    5837:	ff 50 18             	callq  *0x18(%rax)
    583a:	e9 c1 fe ff ff       	jmpq   5700 <_ZNSt5dequeISt10shared_ptrI16PseudoPRTreeNodeIiLi6EEESaIS3_EED1Ev+0x290>
    583f:	48 8b 45 00          	mov    0x0(%rbp),%rax
    5843:	48 89 ef             	mov    %rbp,%rdi
    5846:	ff 50 18             	callq  *0x18(%rax)
    5849:	e9 f2 fe ff ff       	jmpq   5740 <_ZNSt5dequeISt10shared_ptrI16PseudoPRTreeNodeIiLi6EEESaIS3_EED1Ev+0x2d0>
    584e:	49 8b 04 24          	mov    (%r12),%rax
    5852:	4c 89 e7             	mov    %r12,%rdi
    5855:	ff 50 18             	callq  *0x18(%rax)
    5858:	eb a6                	jmp    5800 <_ZNSt5dequeISt10shared_ptrI16PseudoPRTreeNodeIiLi6EEESaIS3_EED1Ev+0x390>
    585a:	66 0f 1f 44 00 00    	nopw   0x0(%rax,%rax,1)

0000000000005860 <_ZNSt16_Sp_counted_baseILN9__gnu_cxx12_Lock_policyE2EE10_M_releaseEv>:
    5860:	55                   	push   %rbp
    5861:	53                   	push   %rbx
    5862:	48 89 fd             	mov    %rdi,%rbp
    5865:	48 83 ec 08          	sub    $0x8,%rsp
    5869:	48 8b 1d 58 d7 00 00 	mov    0xd758(%rip),%rbx        # 12fc8 <__pthread_key_create>
    5870:	48 85 db             	test   %rbx,%rbx
    5873:	75 4b                	jne    58c0 <_ZNSt16_Sp_counted_baseILN9__gnu_cxx12_Lock_policyE2EE10_M_releaseEv+0x60>
    5875:	8b 47 08             	mov    0x8(%rdi),%eax
    5878:	8d 50 ff             	lea    -0x1(%rax),%edx
    587b:	89 57 08             	mov    %edx,0x8(%rdi)
    587e:	83 f8 01             	cmp    $0x1,%eax
    5881:	74 0d                	je     5890 <_ZNSt16_Sp_counted_baseILN9__gnu_cxx12_Lock_policyE2EE10_M_releaseEv+0x30>
    5883:	48 83 c4 08          	add    $0x8,%rsp
    5887:	5b                   	pop    %rbx
    5888:	5d                   	pop    %rbp
    5889:	c3                   	retq   
    588a:	66 0f 1f 44 00 00    	nopw   0x0(%rax,%rax,1)
    5890:	48 8b 45 00          	mov    0x0(%rbp),%rax
    5894:	48 89 ef             	mov    %rbp,%rdi
    5897:	ff 50 10             	callq  *0x10(%rax)
    589a:	48 85 db             	test   %rbx,%rbx
    589d:	75 31                	jne    58d0 <_ZNSt16_Sp_counted_baseILN9__gnu_cxx12_Lock_policyE2EE10_M_releaseEv+0x70>
    589f:	8b 45 0c             	mov    0xc(%rbp),%eax
    58a2:	8d 50 ff             	lea    -0x1(%rax),%edx
    58a5:	89 55 0c             	mov    %edx,0xc(%rbp)
    58a8:	83 f8 01             	cmp    $0x1,%eax
    58ab:	75 d6                	jne    5883 <_ZNSt16_Sp_counted_baseILN9__gnu_cxx12_Lock_policyE2EE10_M_releaseEv+0x23>
    58ad:	48 8b 45 00          	mov    0x0(%rbp),%rax
    58b1:	48 89 ef             	mov    %rbp,%rdi
    58b4:	48 8b 40 18          	mov    0x18(%rax),%rax
    58b8:	48 83 c4 08          	add    $0x8,%rsp
    58bc:	5b                   	pop    %rbx
    58bd:	5d                   	pop    %rbp
    58be:	ff e0                	jmpq   *%rax
    58c0:	b8 ff ff ff ff       	mov    $0xffffffff,%eax
    58c5:	f0 0f c1 47 08       	lock xadd %eax,0x8(%rdi)
    58ca:	eb b2                	jmp    587e <_ZNSt16_Sp_counted_baseILN9__gnu_cxx12_Lock_policyE2EE10_M_releaseEv+0x1e>
    58cc:	0f 1f 40 00          	nopl   0x0(%rax)
    58d0:	b8 ff ff ff ff       	mov    $0xffffffff,%eax
    58d5:	f0 0f c1 45 0c       	lock xadd %eax,0xc(%rbp)
    58da:	eb cc                	jmp    58a8 <_ZNSt16_Sp_counted_baseILN9__gnu_cxx12_Lock_policyE2EE10_M_releaseEv+0x48>
    58dc:	0f 1f 40 00          	nopl   0x0(%rax)

00000000000058e0 <_ZNSt6vectorI4LeafIdLi6EESaIS1_EE17_M_realloc_insertIJRS1_EEEvN9__gnu_cxx17__normal_iteratorIPS1_S3_EEDpOT_>:
    58e0:	41 57                	push   %r15
    58e2:	41 56                	push   %r14
    58e4:	41 55                	push   %r13
    58e6:	41 54                	push   %r12
    58e8:	55                   	push   %rbp
    58e9:	53                   	push   %rbx
    58ea:	48 89 f3             	mov    %rsi,%rbx
    58ed:	48 83 ec 28          	sub    $0x28,%rsp
    58f1:	48 8b 6f 08          	mov    0x8(%rdi),%rbp
    58f5:	4c 8b 37             	mov    (%rdi),%r14
    58f8:	48 89 74 24 08       	mov    %rsi,0x8(%rsp)
    58fd:	48 be ff ff ff ff ff 	movabs $0x1ffffffffffffff,%rsi
    5904:	ff ff 01 
    5907:	48 89 e8             	mov    %rbp,%rax
    590a:	4c 29 f0             	sub    %r14,%rax
    590d:	48 c1 f8 06          	sar    $0x6,%rax
    5911:	48 39 f0             	cmp    %rsi,%rax
    5914:	0f 84 a4 02 00 00    	je     5bbe <_ZNSt6vectorI4LeafIdLi6EESaIS1_EE17_M_realloc_insertIJRS1_EEEvN9__gnu_cxx17__normal_iteratorIPS1_S3_EEDpOT_+0x2de>
    591a:	49 89 d5             	mov    %rdx,%r13
    591d:	ba 01 00 00 00       	mov    $0x1,%edx
    5922:	48 85 c0             	test   %rax,%rax
    5925:	48 89 c1             	mov    %rax,%rcx
    5928:	4c 8b 64 24 08       	mov    0x8(%rsp),%r12
    592d:	48 89 d0             	mov    %rdx,%rax
    5930:	49 89 ff             	mov    %rdi,%r15
    5933:	48 0f 45 c1          	cmovne %rcx,%rax
    5937:	31 d2                	xor    %edx,%edx
    5939:	48 01 c8             	add    %rcx,%rax
    593c:	0f 92 c2             	setb   %dl
    593f:	48 89 44 24 10       	mov    %rax,0x10(%rsp)
    5944:	4d 29 f4             	sub    %r14,%r12
    5947:	48 85 d2             	test   %rdx,%rdx
    594a:	0f 85 30 02 00 00    	jne    5b80 <_ZNSt6vectorI4LeafIdLi6EESaIS1_EE17_M_realloc_insertIJRS1_EEEvN9__gnu_cxx17__normal_iteratorIPS1_S3_EEDpOT_+0x2a0>
    5950:	48 85 c0             	test   %rax,%rax
    5953:	0f 85 f7 01 00 00    	jne    5b50 <_ZNSt6vectorI4LeafIdLi6EESaIS1_EE17_M_realloc_insertIJRS1_EEEvN9__gnu_cxx17__normal_iteratorIPS1_S3_EEDpOT_+0x270>
    5959:	48 c7 04 24 00 00 00 	movq   $0x0,(%rsp)
    5960:	00 
    5961:	c4 c1 7a 6f 4d 08    	vmovdqu 0x8(%r13),%xmm1
    5967:	c5 f9 ef c0          	vpxor  %xmm0,%xmm0,%xmm0
    596b:	c4 c1 7a 6f 55 18    	vmovdqu 0x18(%r13),%xmm2
    5971:	49 8b 4d 30          	mov    0x30(%r13),%rcx
    5975:	4c 03 24 24          	add    (%rsp),%r12
    5979:	4d 8b 45 28          	mov    0x28(%r13),%r8
    597d:	41 8b 45 00          	mov    0x0(%r13),%eax
    5981:	48 89 cf             	mov    %rcx,%rdi
    5984:	4c 29 c7             	sub    %r8,%rdi
    5987:	41 89 04 24          	mov    %eax,(%r12)
    598b:	c4 c1 7a 7f 44 24 28 	vmovdqu %xmm0,0x28(%r12)
    5992:	49 c7 44 24 38 00 00 	movq   $0x0,0x38(%r12)
    5999:	00 00 
    599b:	c4 c1 7a 7f 4c 24 08 	vmovdqu %xmm1,0x8(%r12)
    59a2:	48 89 7c 24 18       	mov    %rdi,0x18(%rsp)
    59a7:	c4 c1 7a 7f 54 24 18 	vmovdqu %xmm2,0x18(%r12)
    59ae:	0f 84 ec 01 00 00    	je     5ba0 <_ZNSt6vectorI4LeafIdLi6EESaIS1_EE17_M_realloc_insertIJRS1_EEEvN9__gnu_cxx17__normal_iteratorIPS1_S3_EEDpOT_+0x2c0>
    59b4:	48 b8 f8 ff ff ff ff 	movabs $0x7ffffffffffffff8,%rax
    59bb:	ff ff 7f 
    59be:	48 39 c7             	cmp    %rax,%rdi
    59c1:	0f 87 f2 01 00 00    	ja     5bb9 <_ZNSt6vectorI4LeafIdLi6EESaIS1_EE17_M_realloc_insertIJRS1_EEEvN9__gnu_cxx17__normal_iteratorIPS1_S3_EEDpOT_+0x2d9>
    59c7:	e8 34 c7 ff ff       	callq  2100 <_Znwm@plt>
    59cc:	49 8b 4d 30          	mov    0x30(%r13),%rcx
    59d0:	4d 8b 45 28          	mov    0x28(%r13),%r8
    59d4:	48 89 c6             	mov    %rax,%rsi
    59d7:	48 8b 44 24 18       	mov    0x18(%rsp),%rax
    59dc:	c4 e1 f9 6e de       	vmovq  %rsi,%xmm3
    59e1:	c5 e1 6c c3          	vpunpcklqdq %xmm3,%xmm3,%xmm0
    59e5:	c4 c1 7a 7f 44 24 28 	vmovdqu %xmm0,0x28(%r12)
    59ec:	48 01 f0             	add    %rsi,%rax
    59ef:	49 89 44 24 38       	mov    %rax,0x38(%r12)
    59f4:	4c 39 c1             	cmp    %r8,%rcx
    59f7:	74 5e                	je     5a57 <_ZNSt6vectorI4LeafIdLi6EESaIS1_EE17_M_realloc_insertIJRS1_EEEvN9__gnu_cxx17__normal_iteratorIPS1_S3_EEDpOT_+0x177>
    59f9:	4c 89 c0             	mov    %r8,%rax
    59fc:	48 89 f2             	mov    %rsi,%rdx
    59ff:	90                   	nop
    5a00:	c5 fa 6f 08          	vmovdqu (%rax),%xmm1
    5a04:	48 83 c0 28          	add    $0x28,%rax
    5a08:	48 83 c2 28          	add    $0x28,%rdx
    5a0c:	c5 fa 7f 4a d8       	vmovdqu %xmm1,-0x28(%rdx)
    5a11:	c5 fa 6f 50 e8       	vmovdqu -0x18(%rax),%xmm2
    5a16:	c5 fa 7f 52 e8       	vmovdqu %xmm2,-0x18(%rdx)
    5a1b:	48 8b 78 f8          	mov    -0x8(%rax),%rdi
    5a1f:	48 89 7a f8          	mov    %rdi,-0x8(%rdx)
    5a23:	48 39 c1             	cmp    %rax,%rcx
    5a26:	75 d8                	jne    5a00 <_ZNSt6vectorI4LeafIdLi6EESaIS1_EE17_M_realloc_insertIJRS1_EEEvN9__gnu_cxx17__normal_iteratorIPS1_S3_EEDpOT_+0x120>
    5a28:	48 8d 41 d8          	lea    -0x28(%rcx),%rax
    5a2c:	48 b9 cd cc cc cc cc 	movabs $0xccccccccccccccd,%rcx
    5a33:	cc cc 0c 
    5a36:	48 ba ff ff ff ff ff 	movabs $0x1fffffffffffffff,%rdx
    5a3d:	ff ff 1f 
    5a40:	4c 29 c0             	sub    %r8,%rax
    5a43:	48 c1 e8 03          	shr    $0x3,%rax
    5a47:	48 0f af c1          	imul   %rcx,%rax
    5a4b:	48 21 d0             	and    %rdx,%rax
    5a4e:	48 8d 44 80 05       	lea    0x5(%rax,%rax,4),%rax
    5a53:	48 8d 34 c6          	lea    (%rsi,%rax,8),%rsi
    5a57:	48 8b 44 24 08       	mov    0x8(%rsp),%rax
    5a5c:	49 89 74 24 30       	mov    %rsi,0x30(%r12)
    5a61:	4c 39 f0             	cmp    %r14,%rax
    5a64:	0f 84 46 01 00 00    	je     5bb0 <_ZNSt6vectorI4LeafIdLi6EESaIS1_EE17_M_realloc_insertIJRS1_EEEvN9__gnu_cxx17__normal_iteratorIPS1_S3_EEDpOT_+0x2d0>
    5a6a:	4c 29 f0             	sub    %r14,%rax
    5a6d:	4c 89 f2             	mov    %r14,%rdx
    5a70:	48 89 c1             	mov    %rax,%rcx
    5a73:	48 8b 04 24          	mov    (%rsp),%rax
    5a77:	48 01 c1             	add    %rax,%rcx
    5a7a:	66 0f 1f 44 00 00    	nopw   0x0(%rax,%rax,1)
    5a80:	c5 fa 6f 5a 08       	vmovdqu 0x8(%rdx),%xmm3
    5a85:	c5 fa 6f 6a 28       	vmovdqu 0x28(%rdx),%xmm5
    5a8a:	48 83 c0 40          	add    $0x40,%rax
    5a8e:	48 83 c2 40          	add    $0x40,%rdx
    5a92:	8b 72 c0             	mov    -0x40(%rdx),%esi
    5a95:	89 70 c0             	mov    %esi,-0x40(%rax)
    5a98:	c5 fa 7f 58 c8       	vmovdqu %xmm3,-0x38(%rax)
    5a9d:	c5 fa 6f 62 d8       	vmovdqu -0x28(%rdx),%xmm4
    5aa2:	c5 fa 7f 68 e8       	vmovdqu %xmm5,-0x18(%rax)
    5aa7:	48 8b 72 f8          	mov    -0x8(%rdx),%rsi
    5aab:	48 89 70 f8          	mov    %rsi,-0x8(%rax)
    5aaf:	c5 fa 7f 60 d8       	vmovdqu %xmm4,-0x28(%rax)
    5ab4:	48 39 c8             	cmp    %rcx,%rax
    5ab7:	75 c7                	jne    5a80 <_ZNSt6vectorI4LeafIdLi6EESaIS1_EE17_M_realloc_insertIJRS1_EEEvN9__gnu_cxx17__normal_iteratorIPS1_S3_EEDpOT_+0x1a0>
    5ab9:	48 8b 44 24 08       	mov    0x8(%rsp),%rax
    5abe:	4c 8d 61 40          	lea    0x40(%rcx),%r12
    5ac2:	48 39 e8             	cmp    %rbp,%rax
    5ac5:	74 44                	je     5b0b <_ZNSt6vectorI4LeafIdLi6EESaIS1_EE17_M_realloc_insertIJRS1_EEEvN9__gnu_cxx17__normal_iteratorIPS1_S3_EEDpOT_+0x22b>
    5ac7:	48 89 e9             	mov    %rbp,%rcx
    5aca:	48 29 c1             	sub    %rax,%rcx
    5acd:	4c 89 e0             	mov    %r12,%rax
    5ad0:	8b 13                	mov    (%rbx),%edx
    5ad2:	c5 fa 6f 73 08       	vmovdqu 0x8(%rbx),%xmm6
    5ad7:	48 83 c3 40          	add    $0x40,%rbx
    5adb:	48 83 c0 40          	add    $0x40,%rax
    5adf:	c5 fa 6f 7b d8       	vmovdqu -0x28(%rbx),%xmm7
    5ae4:	c5 fa 6f 43 e8       	vmovdqu -0x18(%rbx),%xmm0
    5ae9:	89 50 c0             	mov    %edx,-0x40(%rax)
    5aec:	48 8b 53 f8          	mov    -0x8(%rbx),%rdx
    5af0:	c5 fa 7f 70 c8       	vmovdqu %xmm6,-0x38(%rax)
    5af5:	48 89 50 f8          	mov    %rdx,-0x8(%rax)
    5af9:	c5 fa 7f 78 d8       	vmovdqu %xmm7,-0x28(%rax)
    5afe:	c5 fa 7f 40 e8       	vmovdqu %xmm0,-0x18(%rax)
    5b03:	48 39 eb             	cmp    %rbp,%rbx
    5b06:	75 c8                	jne    5ad0 <_ZNSt6vectorI4LeafIdLi6EESaIS1_EE17_M_realloc_insertIJRS1_EEEvN9__gnu_cxx17__normal_iteratorIPS1_S3_EEDpOT_+0x1f0>
    5b08:	49 01 cc             	add    %rcx,%r12
    5b0b:	4d 85 f6             	test   %r14,%r14
    5b0e:	74 0f                	je     5b1f <_ZNSt6vectorI4LeafIdLi6EESaIS1_EE17_M_realloc_insertIJRS1_EEEvN9__gnu_cxx17__normal_iteratorIPS1_S3_EEDpOT_+0x23f>
    5b10:	49 8b 77 10          	mov    0x10(%r15),%rsi
    5b14:	4c 89 f7             	mov    %r14,%rdi
    5b17:	4c 29 f6             	sub    %r14,%rsi
    5b1a:	e8 f1 c5 ff ff       	callq  2110 <_ZdlPvm@plt>
    5b1f:	c5 fa 7e 24 24       	vmovq  (%rsp),%xmm4
    5b24:	c4 e1 f9 7e e0       	vmovq  %xmm4,%rax
    5b29:	48 03 44 24 10       	add    0x10(%rsp),%rax
    5b2e:	c4 c3 d9 22 c4 01    	vpinsrq $0x1,%r12,%xmm4,%xmm0
    5b34:	c4 c1 7a 7f 07       	vmovdqu %xmm0,(%r15)
    5b39:	49 89 47 10          	mov    %rax,0x10(%r15)
    5b3d:	48 83 c4 28          	add    $0x28,%rsp
    5b41:	5b                   	pop    %rbx
    5b42:	5d                   	pop    %rbp
    5b43:	41 5c                	pop    %r12
    5b45:	41 5d                	pop    %r13
    5b47:	41 5e                	pop    %r14
    5b49:	41 5f                	pop    %r15
    5b4b:	c3                   	retq   
    5b4c:	0f 1f 40 00          	nopl   0x0(%rax)
    5b50:	48 39 f0             	cmp    %rsi,%rax
    5b53:	48 0f 46 f0          	cmovbe %rax,%rsi
    5b57:	48 c1 e6 06          	shl    $0x6,%rsi
    5b5b:	48 89 74 24 10       	mov    %rsi,0x10(%rsp)
    5b60:	48 89 f7             	mov    %rsi,%rdi
    5b63:	e8 98 c5 ff ff       	callq  2100 <_Znwm@plt>
    5b68:	48 89 04 24          	mov    %rax,(%rsp)
    5b6c:	e9 f0 fd ff ff       	jmpq   5961 <_ZNSt6vectorI4LeafIdLi6EESaIS1_EE17_M_realloc_insertIJRS1_EEEvN9__gnu_cxx17__normal_iteratorIPS1_S3_EEDpOT_+0x81>
    5b71:	66 66 2e 0f 1f 84 00 	data16 nopw %cs:0x0(%rax,%rax,1)
    5b78:	00 00 00 00 
    5b7c:	0f 1f 40 00          	nopl   0x0(%rax)
    5b80:	48 b8 c0 ff ff ff ff 	movabs $0x7fffffffffffffc0,%rax
    5b87:	ff ff 7f 
    5b8a:	48 89 44 24 10       	mov    %rax,0x10(%rsp)
    5b8f:	48 89 c7             	mov    %rax,%rdi
    5b92:	eb cf                	jmp    5b63 <_ZNSt6vectorI4LeafIdLi6EESaIS1_EE17_M_realloc_insertIJRS1_EEEvN9__gnu_cxx17__normal_iteratorIPS1_S3_EEDpOT_+0x283>
    5b94:	66 66 2e 0f 1f 84 00 	data16 nopw %cs:0x0(%rax,%rax,1)
    5b9b:	00 00 00 00 
    5b9f:	90                   	nop
    5ba0:	31 f6                	xor    %esi,%esi
    5ba2:	e9 30 fe ff ff       	jmpq   59d7 <_ZNSt6vectorI4LeafIdLi6EESaIS1_EE17_M_realloc_insertIJRS1_EEEvN9__gnu_cxx17__normal_iteratorIPS1_S3_EEDpOT_+0xf7>
    5ba7:	66 0f 1f 84 00 00 00 	nopw   0x0(%rax,%rax,1)
    5bae:	00 00 
    5bb0:	48 8b 0c 24          	mov    (%rsp),%rcx
    5bb4:	e9 00 ff ff ff       	jmpq   5ab9 <_ZNSt6vectorI4LeafIdLi6EESaIS1_EE17_M_realloc_insertIJRS1_EEEvN9__gnu_cxx17__normal_iteratorIPS1_S3_EEDpOT_+0x1d9>
    5bb9:	e8 92 c4 ff ff       	callq  2050 <_ZSt17__throw_bad_allocv@plt>
    5bbe:	48 8d 3d 73 a4 00 00 	lea    0xa473(%rip),%rdi        # 10038 <_IO_stdin_used+0x38>
    5bc5:	e8 c6 c4 ff ff       	callq  2090 <_ZSt20__throw_length_errorPKc@plt>
    5bca:	48 89 c7             	mov    %rax,%rdi
    5bcd:	c5 f8 77             	vzeroupper 
    5bd0:	e8 9b c4 ff ff       	callq  2070 <__cxa_begin_catch@plt>
    5bd5:	48 83 3c 24 00       	cmpq   $0x0,(%rsp)
    5bda:	74 13                	je     5bef <_ZNSt6vectorI4LeafIdLi6EESaIS1_EE17_M_realloc_insertIJRS1_EEEvN9__gnu_cxx17__normal_iteratorIPS1_S3_EEDpOT_+0x30f>
    5bdc:	48 8b 74 24 10       	mov    0x10(%rsp),%rsi
    5be1:	48 8b 3c 24          	mov    (%rsp),%rdi
    5be5:	e8 26 c5 ff ff       	callq  2110 <_ZdlPvm@plt>
    5bea:	e8 91 c5 ff ff       	callq  2180 <__cxa_rethrow@plt>
    5bef:	49 8b 7c 24 28       	mov    0x28(%r12),%rdi
    5bf4:	49 8b 74 24 38       	mov    0x38(%r12),%rsi
    5bf9:	48 29 fe             	sub    %rdi,%rsi
    5bfc:	48 85 ff             	test   %rdi,%rdi
    5bff:	74 e9                	je     5bea <_ZNSt6vectorI4LeafIdLi6EESaIS1_EE17_M_realloc_insertIJRS1_EEEvN9__gnu_cxx17__normal_iteratorIPS1_S3_EEDpOT_+0x30a>
    5c01:	e8 0a c5 ff ff       	callq  2110 <_ZdlPvm@plt>
    5c06:	eb e2                	jmp    5bea <_ZNSt6vectorI4LeafIdLi6EESaIS1_EE17_M_realloc_insertIJRS1_EEEvN9__gnu_cxx17__normal_iteratorIPS1_S3_EEDpOT_+0x30a>
    5c08:	48 89 c5             	mov    %rax,%rbp
    5c0b:	c5 f8 77             	vzeroupper 
    5c0e:	e8 ad c5 ff ff       	callq  21c0 <__cxa_end_catch@plt>
    5c13:	48 89 ef             	mov    %rbp,%rdi
    5c16:	e8 d5 c5 ff ff       	callq  21f0 <_Unwind_Resume@plt>
    5c1b:	0f 1f 44 00 00       	nopl   0x0(%rax,%rax,1)

0000000000005c20 <_ZN12PseudoPRTreeIdLi6EE14get_all_leavesEv>:
    5c20:	55                   	push   %rbp
    5c21:	c5 f9 ef c0          	vpxor  %xmm0,%xmm0,%xmm0
    5c25:	48 89 e5             	mov    %rsp,%rbp
    5c28:	41 57                	push   %r15
    5c2a:	41 56                	push   %r14
    5c2c:	49 89 fe             	mov    %rdi,%r14
    5c2f:	41 55                	push   %r13
    5c31:	41 54                	push   %r12
    5c33:	53                   	push   %rbx
    5c34:	48 83 e4 e0          	and    $0xffffffffffffffe0,%rsp
    5c38:	48 81 ec c0 00 00 00 	sub    $0xc0,%rsp
    5c3f:	64 48 8b 04 25 28 00 	mov    %fs:0x28,%rax
    5c46:	00 00 
    5c48:	48 89 84 24 b8 00 00 	mov    %rax,0xb8(%rsp)
    5c4f:	00 
    5c50:	31 c0                	xor    %eax,%eax
    5c52:	c5 fa 7f 07          	vmovdqu %xmm0,(%rdi)
    5c56:	48 c7 47 10 00 00 00 	movq   $0x0,0x10(%rdi)
    5c5d:	00 
    5c5e:	c5 fa 6f 0e          	vmovdqu (%rsi),%xmm1
    5c62:	48 8b 46 08          	mov    0x8(%rsi),%rax
    5c66:	c5 f9 7f 4c 24 30    	vmovdqa %xmm1,0x30(%rsp)
    5c6c:	48 85 c0             	test   %rax,%rax
    5c6f:	74 11                	je     5c82 <_ZN12PseudoPRTreeIdLi6EE14get_all_leavesEv+0x62>
    5c71:	48 83 3d 4f d3 00 00 	cmpq   $0x0,0xd34f(%rip)        # 12fc8 <__pthread_key_create>
    5c78:	00 
    5c79:	0f 85 30 0a 00 00    	jne    66af <_ZN12PseudoPRTreeIdLi6EE14get_all_leavesEv+0xa8f>
    5c7f:	ff 40 08             	incl   0x8(%rax)
    5c82:	c5 f9 ef c0          	vpxor  %xmm0,%xmm0,%xmm0
    5c86:	bf 40 00 00 00       	mov    $0x40,%edi
    5c8b:	48 c7 44 24 60 00 00 	movq   $0x0,0x60(%rsp)
    5c92:	00 00 
    5c94:	48 c7 44 24 68 08 00 	movq   $0x8,0x68(%rsp)
    5c9b:	00 00 
    5c9d:	c5 fe 7f 44 24 70    	vmovdqu %ymm0,0x70(%rsp)
    5ca3:	c5 fe 7f 84 24 90 00 	vmovdqu %ymm0,0x90(%rsp)
    5caa:	00 00 
    5cac:	c5 f8 77             	vzeroupper 
    5caf:	e8 4c c4 ff ff       	callq  2100 <_Znwm@plt>
    5cb4:	48 8b 54 24 68       	mov    0x68(%rsp),%rdx
    5cb9:	bf 00 02 00 00       	mov    $0x200,%edi
    5cbe:	48 89 44 24 60       	mov    %rax,0x60(%rsp)
    5cc3:	48 8d 1c 95 fc ff ff 	lea    -0x4(,%rdx,4),%rbx
    5cca:	ff 
    5ccb:	48 83 e3 f8          	and    $0xfffffffffffffff8,%rbx
    5ccf:	48 01 c3             	add    %rax,%rbx
    5cd2:	e8 29 c4 ff ff       	callq  2100 <_Znwm@plt>
    5cd7:	48 8d 90 00 02 00 00 	lea    0x200(%rax),%rdx
    5cde:	c4 e1 f9 6e c8       	vmovq  %rax,%xmm1
    5ce3:	48 89 03             	mov    %rax,(%rbx)
    5ce6:	48 89 84 24 98 00 00 	mov    %rax,0x98(%rsp)
    5ced:	00 
    5cee:	48 89 84 24 90 00 00 	mov    %rax,0x90(%rsp)
    5cf5:	00 
    5cf6:	48 8d 44 24 60       	lea    0x60(%rsp),%rax
    5cfb:	c5 f1 6c c1          	vpunpcklqdq %xmm1,%xmm1,%xmm0
    5cff:	48 8d 74 24 30       	lea    0x30(%rsp),%rsi
    5d04:	48 89 c7             	mov    %rax,%rdi
    5d07:	48 89 9c 24 88 00 00 	mov    %rbx,0x88(%rsp)
    5d0e:	00 
    5d0f:	48 89 94 24 80 00 00 	mov    %rdx,0x80(%rsp)
    5d16:	00 
    5d17:	48 89 9c 24 a8 00 00 	mov    %rbx,0xa8(%rsp)
    5d1e:	00 
    5d1f:	48 89 94 24 a0 00 00 	mov    %rdx,0xa0(%rsp)
    5d26:	00 
    5d27:	c5 f9 7f 44 24 70    	vmovdqa %xmm0,0x70(%rsp)
    5d2d:	48 89 44 24 28       	mov    %rax,0x28(%rsp)
    5d32:	e8 09 d5 ff ff       	callq  3240 <_ZNSt5dequeISt10shared_ptrI16PseudoPRTreeNodeIdLi6EEESaIS3_EE12emplace_backIJRS3_EEES7_DpOT_.isra.0>
    5d37:	48 8b 44 24 70       	mov    0x70(%rsp),%rax
    5d3c:	48 39 84 24 90 00 00 	cmp    %rax,0x90(%rsp)
    5d43:	00 
    5d44:	0f 84 6e 09 00 00    	je     66b8 <_ZN12PseudoPRTreeIdLi6EE14get_all_leavesEv+0xa98>
    5d4a:	66 0f 1f 44 00 00    	nopw   0x0(%rax,%rax,1)
    5d50:	48 8b 10             	mov    (%rax),%rdx
    5d53:	48 8b 58 08          	mov    0x8(%rax),%rbx
    5d57:	4c 8b 64 24 38       	mov    0x38(%rsp),%r12
    5d5c:	48 89 54 24 30       	mov    %rdx,0x30(%rsp)
    5d61:	4c 39 e3             	cmp    %r12,%rbx
    5d64:	74 4b                	je     5db1 <_ZN12PseudoPRTreeIdLi6EE14get_all_leavesEv+0x191>
    5d66:	48 85 db             	test   %rbx,%rbx
    5d69:	74 11                	je     5d7c <_ZN12PseudoPRTreeIdLi6EE14get_all_leavesEv+0x15c>
    5d6b:	48 83 3d 55 d2 00 00 	cmpq   $0x0,0xd255(%rip)        # 12fc8 <__pthread_key_create>
    5d72:	00 
    5d73:	0f 85 e2 07 00 00    	jne    655b <_ZN12PseudoPRTreeIdLi6EE14get_all_leavesEv+0x93b>
    5d79:	ff 43 08             	incl   0x8(%rbx)
    5d7c:	4d 85 e4             	test   %r12,%r12
    5d7f:	74 26                	je     5da7 <_ZN12PseudoPRTreeIdLi6EE14get_all_leavesEv+0x187>
    5d81:	4c 8b 3d 40 d2 00 00 	mov    0xd240(%rip),%r15        # 12fc8 <__pthread_key_create>
    5d88:	4d 85 ff             	test   %r15,%r15
    5d8b:	0f 85 b9 07 00 00    	jne    654a <_ZN12PseudoPRTreeIdLi6EE14get_all_leavesEv+0x92a>
    5d91:	41 8b 44 24 08       	mov    0x8(%r12),%eax
    5d96:	8d 50 ff             	lea    -0x1(%rax),%edx
    5d99:	41 89 54 24 08       	mov    %edx,0x8(%r12)
    5d9e:	83 f8 01             	cmp    $0x1,%eax
    5da1:	0f 84 6b 07 00 00    	je     6512 <_ZN12PseudoPRTreeIdLi6EE14get_all_leavesEv+0x8f2>
    5da7:	48 8b 44 24 70       	mov    0x70(%rsp),%rax
    5dac:	48 89 5c 24 38       	mov    %rbx,0x38(%rsp)
    5db1:	48 8b 8c 24 80 00 00 	mov    0x80(%rsp),%rcx
    5db8:	00 
    5db9:	4c 8b 60 08          	mov    0x8(%rax),%r12
    5dbd:	48 8d 51 f0          	lea    -0x10(%rcx),%rdx
    5dc1:	48 39 d0             	cmp    %rdx,%rax
    5dc4:	0f 84 6f 06 00 00    	je     6439 <_ZN12PseudoPRTreeIdLi6EE14get_all_leavesEv+0x819>
    5dca:	4d 85 e4             	test   %r12,%r12
    5dcd:	74 2b                	je     5dfa <_ZN12PseudoPRTreeIdLi6EE14get_all_leavesEv+0x1da>
    5dcf:	4c 8b 3d f2 d1 00 00 	mov    0xd1f2(%rip),%r15        # 12fc8 <__pthread_key_create>
    5dd6:	4d 85 ff             	test   %r15,%r15
    5dd9:	0f 85 0b 07 00 00    	jne    64ea <_ZN12PseudoPRTreeIdLi6EE14get_all_leavesEv+0x8ca>
    5ddf:	41 8b 44 24 08       	mov    0x8(%r12),%eax
    5de4:	8d 50 ff             	lea    -0x1(%rax),%edx
    5de7:	41 89 54 24 08       	mov    %edx,0x8(%r12)
    5dec:	83 f8 01             	cmp    $0x1,%eax
    5def:	0f 84 bd 06 00 00    	je     64b2 <_ZN12PseudoPRTreeIdLi6EE14get_all_leavesEv+0x892>
    5df5:	48 8b 44 24 70       	mov    0x70(%rsp),%rax
    5dfa:	48 83 c0 10          	add    $0x10,%rax
    5dfe:	48 89 44 24 70       	mov    %rax,0x70(%rsp)
    5e03:	48 8b 5c 24 30       	mov    0x30(%rsp),%rbx
    5e08:	4c 8d bb 00 01 00 00 	lea    0x100(%rbx),%r15
    5e0f:	4c 8b 63 30          	mov    0x30(%rbx),%r12
    5e13:	4c 3b 63 28          	cmp    0x28(%rbx),%r12
    5e17:	0f 84 f6 00 00 00    	je     5f13 <_ZN12PseudoPRTreeIdLi6EE14get_all_leavesEv+0x2f3>
    5e1d:	4d 8b 6e 08          	mov    0x8(%r14),%r13
    5e21:	4d 3b 6e 10          	cmp    0x10(%r14),%r13
    5e25:	0f 84 b5 04 00 00    	je     62e0 <_ZN12PseudoPRTreeIdLi6EE14get_all_leavesEv+0x6c0>
    5e2b:	c5 fa 6f 63 08       	vmovdqu 0x8(%rbx),%xmm4
    5e30:	8b 03                	mov    (%rbx),%eax
    5e32:	c5 c9 ef f6          	vpxor  %xmm6,%xmm6,%xmm6
    5e36:	4c 2b 63 28          	sub    0x28(%rbx),%r12
    5e3a:	41 89 45 00          	mov    %eax,0x0(%r13)
    5e3e:	c4 c1 7a 7f 65 08    	vmovdqu %xmm4,0x8(%r13)
    5e44:	c5 fa 6f 6b 18       	vmovdqu 0x18(%rbx),%xmm5
    5e49:	c4 c1 7a 7f 75 28    	vmovdqu %xmm6,0x28(%r13)
    5e4f:	49 c7 45 38 00 00 00 	movq   $0x0,0x38(%r13)
    5e56:	00 
    5e57:	c4 c1 7a 7f 6d 18    	vmovdqu %xmm5,0x18(%r13)
    5e5d:	0f 84 cd 04 00 00    	je     6330 <_ZN12PseudoPRTreeIdLi6EE14get_all_leavesEv+0x710>
    5e63:	48 b8 f8 ff ff ff ff 	movabs $0x7ffffffffffffff8,%rax
    5e6a:	ff ff 7f 
    5e6d:	49 39 c4             	cmp    %rax,%r12
    5e70:	0f 87 6a 08 00 00    	ja     66e0 <_ZN12PseudoPRTreeIdLi6EE14get_all_leavesEv+0xac0>
    5e76:	4c 89 e7             	mov    %r12,%rdi
    5e79:	e8 82 c2 ff ff       	callq  2100 <_Znwm@plt>
    5e7e:	49 8b 7e 08          	mov    0x8(%r14),%rdi
    5e82:	48 89 c6             	mov    %rax,%rsi
    5e85:	c4 e1 f9 6e fe       	vmovq  %rsi,%xmm7
    5e8a:	49 01 f4             	add    %rsi,%r12
    5e8d:	c5 c1 6c c7          	vpunpcklqdq %xmm7,%xmm7,%xmm0
    5e91:	4d 89 65 38          	mov    %r12,0x38(%r13)
    5e95:	c4 c1 7a 7f 45 28    	vmovdqu %xmm0,0x28(%r13)
    5e9b:	48 8b 4b 30          	mov    0x30(%rbx),%rcx
    5e9f:	4c 8b 4b 28          	mov    0x28(%rbx),%r9
    5ea3:	4c 39 c9             	cmp    %r9,%rcx
    5ea6:	74 5f                	je     5f07 <_ZN12PseudoPRTreeIdLi6EE14get_all_leavesEv+0x2e7>
    5ea8:	4c 89 c8             	mov    %r9,%rax
    5eab:	48 89 f2             	mov    %rsi,%rdx
    5eae:	66 90                	xchg   %ax,%ax
    5eb0:	c5 fa 6f 10          	vmovdqu (%rax),%xmm2
    5eb4:	48 83 c0 28          	add    $0x28,%rax
    5eb8:	48 83 c2 28          	add    $0x28,%rdx
    5ebc:	c5 fa 7f 52 d8       	vmovdqu %xmm2,-0x28(%rdx)
    5ec1:	c5 fa 6f 58 e8       	vmovdqu -0x18(%rax),%xmm3
    5ec6:	c5 fa 7f 5a e8       	vmovdqu %xmm3,-0x18(%rdx)
    5ecb:	4c 8b 40 f8          	mov    -0x8(%rax),%r8
    5ecf:	4c 89 42 f8          	mov    %r8,-0x8(%rdx)
    5ed3:	48 39 c1             	cmp    %rax,%rcx
    5ed6:	75 d8                	jne    5eb0 <_ZN12PseudoPRTreeIdLi6EE14get_all_leavesEv+0x290>
    5ed8:	48 8d 41 d8          	lea    -0x28(%rcx),%rax
    5edc:	48 b9 cd cc cc cc cc 	movabs $0xccccccccccccccd,%rcx
    5ee3:	cc cc 0c 
    5ee6:	4c 29 c8             	sub    %r9,%rax
    5ee9:	48 c1 e8 03          	shr    $0x3,%rax
    5eed:	48 0f af c1          	imul   %rcx,%rax
    5ef1:	48 b9 ff ff ff ff ff 	movabs $0x1fffffffffffffff,%rcx
    5ef8:	ff ff 1f 
    5efb:	48 21 c8             	and    %rcx,%rax
    5efe:	48 8d 44 80 05       	lea    0x5(%rax,%rax,4),%rax
    5f03:	48 8d 34 c6          	lea    (%rsi,%rax,8),%rsi
    5f07:	48 83 c7 40          	add    $0x40,%rdi
    5f0b:	49 89 75 30          	mov    %rsi,0x30(%r13)
    5f0f:	49 89 7e 08          	mov    %rdi,0x8(%r14)
    5f13:	48 83 c3 40          	add    $0x40,%rbx
    5f17:	49 39 df             	cmp    %rbx,%r15
    5f1a:	0f 85 ef fe ff ff    	jne    5e0f <_ZN12PseudoPRTreeIdLi6EE14get_all_leavesEv+0x1ef>
    5f20:	48 8b 44 24 30       	mov    0x30(%rsp),%rax
    5f25:	c5 fa 6f 88 00 01 00 	vmovdqu 0x100(%rax),%xmm1
    5f2c:	00 
    5f2d:	48 8b 90 08 01 00 00 	mov    0x108(%rax),%rdx
    5f34:	c5 f9 7f 4c 24 40    	vmovdqa %xmm1,0x40(%rsp)
    5f3a:	48 85 d2             	test   %rdx,%rdx
    5f3d:	74 11                	je     5f50 <_ZN12PseudoPRTreeIdLi6EE14get_all_leavesEv+0x330>
    5f3f:	48 83 3d 81 d0 00 00 	cmpq   $0x0,0xd081(%rip)        # 12fc8 <__pthread_key_create>
    5f46:	00 
    5f47:	0f 85 ae 05 00 00    	jne    64fb <_ZN12PseudoPRTreeIdLi6EE14get_all_leavesEv+0x8db>
    5f4d:	ff 42 08             	incl   0x8(%rdx)
    5f50:	c5 fa 6f 88 10 01 00 	vmovdqu 0x110(%rax),%xmm1
    5f57:	00 
    5f58:	48 8b 90 18 01 00 00 	mov    0x118(%rax),%rdx
    5f5f:	c5 f9 7f 4c 24 50    	vmovdqa %xmm1,0x50(%rsp)
    5f65:	48 85 d2             	test   %rdx,%rdx
    5f68:	74 11                	je     5f7b <_ZN12PseudoPRTreeIdLi6EE14get_all_leavesEv+0x35b>
    5f6a:	48 83 3d 56 d0 00 00 	cmpq   $0x0,0xd056(%rip)        # 12fc8 <__pthread_key_create>
    5f71:	00 
    5f72:	0f 85 91 05 00 00    	jne    6509 <_ZN12PseudoPRTreeIdLi6EE14get_all_leavesEv+0x8e9>
    5f78:	ff 42 08             	incl   0x8(%rdx)
    5f7b:	48 83 7c 24 40 00    	cmpq   $0x0,0x40(%rsp)
    5f81:	74 0f                	je     5f92 <_ZN12PseudoPRTreeIdLi6EE14get_all_leavesEv+0x372>
    5f83:	48 8b 7c 24 28       	mov    0x28(%rsp),%rdi
    5f88:	48 8d 74 24 40       	lea    0x40(%rsp),%rsi
    5f8d:	e8 ae d2 ff ff       	callq  3240 <_ZNSt5dequeISt10shared_ptrI16PseudoPRTreeNodeIdLi6EEESaIS3_EE12emplace_backIJRS3_EEES7_DpOT_.isra.0>
    5f92:	48 83 7c 24 50 00    	cmpq   $0x0,0x50(%rsp)
    5f98:	74 0f                	je     5fa9 <_ZN12PseudoPRTreeIdLi6EE14get_all_leavesEv+0x389>
    5f9a:	48 8b 7c 24 28       	mov    0x28(%rsp),%rdi
    5f9f:	48 8d 74 24 50       	lea    0x50(%rsp),%rsi
    5fa4:	e8 97 d2 ff ff       	callq  3240 <_ZNSt5dequeISt10shared_ptrI16PseudoPRTreeNodeIdLi6EEESaIS3_EE12emplace_backIJRS3_EEES7_DpOT_.isra.0>
    5fa9:	4c 8b 64 24 58       	mov    0x58(%rsp),%r12
    5fae:	4d 85 e4             	test   %r12,%r12
    5fb1:	74 26                	je     5fd9 <_ZN12PseudoPRTreeIdLi6EE14get_all_leavesEv+0x3b9>
    5fb3:	4c 8b 3d 0e d0 00 00 	mov    0xd00e(%rip),%r15        # 12fc8 <__pthread_key_create>
    5fba:	4d 85 ff             	test   %r15,%r15
    5fbd:	0f 85 54 04 00 00    	jne    6417 <_ZN12PseudoPRTreeIdLi6EE14get_all_leavesEv+0x7f7>
    5fc3:	41 8b 44 24 08       	mov    0x8(%r12),%eax
    5fc8:	8d 50 ff             	lea    -0x1(%rax),%edx
    5fcb:	41 89 54 24 08       	mov    %edx,0x8(%r12)
    5fd0:	83 f8 01             	cmp    $0x1,%eax
    5fd3:	0f 84 06 04 00 00    	je     63df <_ZN12PseudoPRTreeIdLi6EE14get_all_leavesEv+0x7bf>
    5fd9:	4c 8b 64 24 48       	mov    0x48(%rsp),%r12
    5fde:	4d 85 e4             	test   %r12,%r12
    5fe1:	74 26                	je     6009 <_ZN12PseudoPRTreeIdLi6EE14get_all_leavesEv+0x3e9>
    5fe3:	4c 8b 3d de cf 00 00 	mov    0xcfde(%rip),%r15        # 12fc8 <__pthread_key_create>
    5fea:	4d 85 ff             	test   %r15,%r15
    5fed:	0f 85 35 04 00 00    	jne    6428 <_ZN12PseudoPRTreeIdLi6EE14get_all_leavesEv+0x808>
    5ff3:	41 8b 44 24 08       	mov    0x8(%r12),%eax
    5ff8:	8d 50 ff             	lea    -0x1(%rax),%edx
    5ffb:	41 89 54 24 08       	mov    %edx,0x8(%r12)
    6000:	83 f8 01             	cmp    $0x1,%eax
    6003:	0f 84 9e 03 00 00    	je     63a7 <_ZN12PseudoPRTreeIdLi6EE14get_all_leavesEv+0x787>
    6009:	48 8b 9c 24 90 00 00 	mov    0x90(%rsp),%rbx
    6010:	00 
    6011:	48 8b 44 24 70       	mov    0x70(%rsp),%rax
    6016:	48 39 d8             	cmp    %rbx,%rax
    6019:	0f 85 31 fd ff ff    	jne    5d50 <_ZN12PseudoPRTreeIdLi6EE14get_all_leavesEv+0x130>
    601f:	48 8b 8c 24 80 00 00 	mov    0x80(%rsp),%rcx
    6026:	00 
    6027:	48 8b 84 24 98 00 00 	mov    0x98(%rsp),%rax
    602e:	00 
    602f:	48 89 4c 24 08       	mov    %rcx,0x8(%rsp)
    6034:	48 8b 8c 24 88 00 00 	mov    0x88(%rsp),%rcx
    603b:	00 
    603c:	48 89 44 24 28       	mov    %rax,0x28(%rsp)
    6041:	48 8b 84 24 a8 00 00 	mov    0xa8(%rsp),%rax
    6048:	00 
    6049:	4c 8d 61 08          	lea    0x8(%rcx),%r12
    604d:	48 89 44 24 10       	mov    %rax,0x10(%rsp)
    6052:	48 89 0c 24          	mov    %rcx,(%rsp)
    6056:	4c 39 e0             	cmp    %r12,%rax
    6059:	0f 86 b0 00 00 00    	jbe    610f <_ZN12PseudoPRTreeIdLi6EE14get_all_leavesEv+0x4ef>
    605f:	4c 8b 3d 62 cf 00 00 	mov    0xcf62(%rip),%r15        # 12fc8 <__pthread_key_create>
    6066:	66 2e 0f 1f 84 00 00 	nopw   %cs:0x0(%rax,%rax,1)
    606d:	00 00 00 
    6070:	4d 8b 2c 24          	mov    (%r12),%r13
    6074:	4d 85 ff             	test   %r15,%r15
    6077:	0f 85 c3 02 00 00    	jne    6340 <_ZN12PseudoPRTreeIdLi6EE14get_all_leavesEv+0x720>
    607d:	49 8d b5 00 02 00 00 	lea    0x200(%r13),%rsi
    6084:	eb 13                	jmp    6099 <_ZN12PseudoPRTreeIdLi6EE14get_all_leavesEv+0x479>
    6086:	66 2e 0f 1f 84 00 00 	nopw   %cs:0x0(%rax,%rax,1)
    608d:	00 00 00 
    6090:	49 83 c5 10          	add    $0x10,%r13
    6094:	4c 39 ee             	cmp    %r13,%rsi
    6097:	74 67                	je     6100 <_ZN12PseudoPRTreeIdLi6EE14get_all_leavesEv+0x4e0>
    6099:	49 8b 7d 08          	mov    0x8(%r13),%rdi
    609d:	48 85 ff             	test   %rdi,%rdi
    60a0:	74 ee                	je     6090 <_ZN12PseudoPRTreeIdLi6EE14get_all_leavesEv+0x470>
    60a2:	8b 57 08             	mov    0x8(%rdi),%edx
    60a5:	44 8d 42 ff          	lea    -0x1(%rdx),%r8d
    60a9:	44 89 47 08          	mov    %r8d,0x8(%rdi)
    60ad:	83 fa 01             	cmp    $0x1,%edx
    60b0:	75 de                	jne    6090 <_ZN12PseudoPRTreeIdLi6EE14get_all_leavesEv+0x470>
    60b2:	48 8b 17             	mov    (%rdi),%rdx
    60b5:	48 89 74 24 18       	mov    %rsi,0x18(%rsp)
    60ba:	48 89 7c 24 20       	mov    %rdi,0x20(%rsp)
    60bf:	ff 52 10             	callq  *0x10(%rdx)
    60c2:	48 8b 7c 24 20       	mov    0x20(%rsp),%rdi
    60c7:	48 8b 74 24 18       	mov    0x18(%rsp),%rsi
    60cc:	8b 57 0c             	mov    0xc(%rdi),%edx
    60cf:	44 8d 42 ff          	lea    -0x1(%rdx),%r8d
    60d3:	83 fa 01             	cmp    $0x1,%edx
    60d6:	44 89 47 0c          	mov    %r8d,0xc(%rdi)
    60da:	75 b4                	jne    6090 <_ZN12PseudoPRTreeIdLi6EE14get_all_leavesEv+0x470>
    60dc:	48 8b 17             	mov    (%rdi),%rdx
    60df:	48 89 74 24 20       	mov    %rsi,0x20(%rsp)
    60e4:	49 83 c5 10          	add    $0x10,%r13
    60e8:	ff 52 18             	callq  *0x18(%rdx)
    60eb:	48 8b 74 24 20       	mov    0x20(%rsp),%rsi
    60f0:	4c 39 ee             	cmp    %r13,%rsi
    60f3:	75 a4                	jne    6099 <_ZN12PseudoPRTreeIdLi6EE14get_all_leavesEv+0x479>
    60f5:	66 66 2e 0f 1f 84 00 	data16 nopw %cs:0x0(%rax,%rax,1)
    60fc:	00 00 00 00 
    6100:	49 83 c4 08          	add    $0x8,%r12
    6104:	4c 39 64 24 10       	cmp    %r12,0x10(%rsp)
    6109:	0f 87 61 ff ff ff    	ja     6070 <_ZN12PseudoPRTreeIdLi6EE14get_all_leavesEv+0x450>
    610f:	48 8b 0c 24          	mov    (%rsp),%rcx
    6113:	48 39 4c 24 10       	cmp    %rcx,0x10(%rsp)
    6118:	0f 84 08 01 00 00    	je     6226 <_ZN12PseudoPRTreeIdLi6EE14get_all_leavesEv+0x606>
    611e:	48 39 5c 24 08       	cmp    %rbx,0x8(%rsp)
    6123:	74 6d                	je     6192 <_ZN12PseudoPRTreeIdLi6EE14get_all_leavesEv+0x572>
    6125:	48 83 3d 9b ce 00 00 	cmpq   $0x0,0xce9b(%rip)        # 12fc8 <__pthread_key_create>
    612c:	00 
    612d:	49 89 dc             	mov    %rbx,%r12
    6130:	0f 85 e0 01 00 00    	jne    6316 <_ZN12PseudoPRTreeIdLi6EE14get_all_leavesEv+0x6f6>
    6136:	4d 8b 7c 24 08       	mov    0x8(%r12),%r15
    613b:	4d 85 ff             	test   %r15,%r15
    613e:	75 15                	jne    6155 <_ZN12PseudoPRTreeIdLi6EE14get_all_leavesEv+0x535>
    6140:	49 83 c4 10          	add    $0x10,%r12
    6144:	4c 39 64 24 08       	cmp    %r12,0x8(%rsp)
    6149:	74 47                	je     6192 <_ZN12PseudoPRTreeIdLi6EE14get_all_leavesEv+0x572>
    614b:	4d 8b 7c 24 08       	mov    0x8(%r12),%r15
    6150:	4d 85 ff             	test   %r15,%r15
    6153:	74 eb                	je     6140 <_ZN12PseudoPRTreeIdLi6EE14get_all_leavesEv+0x520>
    6155:	41 8b 47 08          	mov    0x8(%r15),%eax
    6159:	8d 50 ff             	lea    -0x1(%rax),%edx
    615c:	41 89 57 08          	mov    %edx,0x8(%r15)
    6160:	83 f8 01             	cmp    $0x1,%eax
    6163:	75 db                	jne    6140 <_ZN12PseudoPRTreeIdLi6EE14get_all_leavesEv+0x520>
    6165:	49 8b 07             	mov    (%r15),%rax
    6168:	4c 89 ff             	mov    %r15,%rdi
    616b:	ff 50 10             	callq  *0x10(%rax)
    616e:	41 8b 47 0c          	mov    0xc(%r15),%eax
    6172:	8d 50 ff             	lea    -0x1(%rax),%edx
    6175:	41 89 57 0c          	mov    %edx,0xc(%r15)
    6179:	83 f8 01             	cmp    $0x1,%eax
    617c:	75 c2                	jne    6140 <_ZN12PseudoPRTreeIdLi6EE14get_all_leavesEv+0x520>
    617e:	49 8b 07             	mov    (%r15),%rax
    6181:	4c 89 ff             	mov    %r15,%rdi
    6184:	49 83 c4 10          	add    $0x10,%r12
    6188:	ff 50 18             	callq  *0x18(%rax)
    618b:	4c 39 64 24 08       	cmp    %r12,0x8(%rsp)
    6190:	75 b9                	jne    614b <_ZN12PseudoPRTreeIdLi6EE14get_all_leavesEv+0x52b>
    6192:	48 39 5c 24 28       	cmp    %rbx,0x28(%rsp)
    6197:	0f 84 89 00 00 00    	je     6226 <_ZN12PseudoPRTreeIdLi6EE14get_all_leavesEv+0x606>
    619d:	48 83 3d 23 ce 00 00 	cmpq   $0x0,0xce23(%rip)        # 12fc8 <__pthread_key_create>
    61a4:	00 
    61a5:	0f 85 e8 03 00 00    	jne    6593 <_ZN12PseudoPRTreeIdLi6EE14get_all_leavesEv+0x973>
    61ab:	48 8b 44 24 28       	mov    0x28(%rsp),%rax
    61b0:	4c 8b 60 08          	mov    0x8(%rax),%r12
    61b4:	4d 85 e4             	test   %r12,%r12
    61b7:	75 25                	jne    61de <_ZN12PseudoPRTreeIdLi6EE14get_all_leavesEv+0x5be>
    61b9:	0f 1f 80 00 00 00 00 	nopl   0x0(%rax)
    61c0:	48 83 44 24 28 10    	addq   $0x10,0x28(%rsp)
    61c6:	48 8b 44 24 28       	mov    0x28(%rsp),%rax
    61cb:	48 39 c3             	cmp    %rax,%rbx
    61ce:	74 56                	je     6226 <_ZN12PseudoPRTreeIdLi6EE14get_all_leavesEv+0x606>
    61d0:	48 8b 44 24 28       	mov    0x28(%rsp),%rax
    61d5:	4c 8b 60 08          	mov    0x8(%rax),%r12
    61d9:	4d 85 e4             	test   %r12,%r12
    61dc:	74 e2                	je     61c0 <_ZN12PseudoPRTreeIdLi6EE14get_all_leavesEv+0x5a0>
    61de:	41 8b 44 24 08       	mov    0x8(%r12),%eax
    61e3:	8d 50 ff             	lea    -0x1(%rax),%edx
    61e6:	41 89 54 24 08       	mov    %edx,0x8(%r12)
    61eb:	83 f8 01             	cmp    $0x1,%eax
    61ee:	75 d0                	jne    61c0 <_ZN12PseudoPRTreeIdLi6EE14get_all_leavesEv+0x5a0>
    61f0:	49 8b 04 24          	mov    (%r12),%rax
    61f4:	4c 89 e7             	mov    %r12,%rdi
    61f7:	ff 50 10             	callq  *0x10(%rax)
    61fa:	41 8b 44 24 0c       	mov    0xc(%r12),%eax
    61ff:	8d 50 ff             	lea    -0x1(%rax),%edx
    6202:	41 89 54 24 0c       	mov    %edx,0xc(%r12)
    6207:	83 f8 01             	cmp    $0x1,%eax
    620a:	75 b4                	jne    61c0 <_ZN12PseudoPRTreeIdLi6EE14get_all_leavesEv+0x5a0>
    620c:	49 8b 04 24          	mov    (%r12),%rax
    6210:	4c 89 e7             	mov    %r12,%rdi
    6213:	ff 50 18             	callq  *0x18(%rax)
    6216:	48 83 44 24 28 10    	addq   $0x10,0x28(%rsp)
    621c:	48 8b 44 24 28       	mov    0x28(%rsp),%rax
    6221:	48 39 c3             	cmp    %rax,%rbx
    6224:	75 aa                	jne    61d0 <_ZN12PseudoPRTreeIdLi6EE14get_all_leavesEv+0x5b0>
    6226:	48 8b 7c 24 60       	mov    0x60(%rsp),%rdi
    622b:	48 85 ff             	test   %rdi,%rdi
    622e:	74 4d                	je     627d <_ZN12PseudoPRTreeIdLi6EE14get_all_leavesEv+0x65d>
    6230:	48 8b 84 24 a8 00 00 	mov    0xa8(%rsp),%rax
    6237:	00 
    6238:	48 8b 9c 24 88 00 00 	mov    0x88(%rsp),%rbx
    623f:	00 
    6240:	4c 8d 60 08          	lea    0x8(%rax),%r12
    6244:	49 39 dc             	cmp    %rbx,%r12
    6247:	76 22                	jbe    626b <_ZN12PseudoPRTreeIdLi6EE14get_all_leavesEv+0x64b>
    6249:	0f 1f 80 00 00 00 00 	nopl   0x0(%rax)
    6250:	48 8b 3b             	mov    (%rbx),%rdi
    6253:	be 00 02 00 00       	mov    $0x200,%esi
    6258:	48 83 c3 08          	add    $0x8,%rbx
    625c:	e8 af be ff ff       	callq  2110 <_ZdlPvm@plt>
    6261:	49 39 dc             	cmp    %rbx,%r12
    6264:	77 ea                	ja     6250 <_ZN12PseudoPRTreeIdLi6EE14get_all_leavesEv+0x630>
    6266:	48 8b 7c 24 60       	mov    0x60(%rsp),%rdi
    626b:	48 8b 44 24 68       	mov    0x68(%rsp),%rax
    6270:	48 8d 34 c5 00 00 00 	lea    0x0(,%rax,8),%rsi
    6277:	00 
    6278:	e8 93 be ff ff       	callq  2110 <_ZdlPvm@plt>
    627d:	4c 8b 64 24 38       	mov    0x38(%rsp),%r12
    6282:	4d 85 e4             	test   %r12,%r12
    6285:	74 26                	je     62ad <_ZN12PseudoPRTreeIdLi6EE14get_all_leavesEv+0x68d>
    6287:	4c 8b 3d 3a cd 00 00 	mov    0xcd3a(%rip),%r15        # 12fc8 <__pthread_key_create>
    628e:	4d 85 ff             	test   %r15,%r15
    6291:	0f 85 a1 03 00 00    	jne    6638 <_ZN12PseudoPRTreeIdLi6EE14get_all_leavesEv+0xa18>
    6297:	41 8b 44 24 08       	mov    0x8(%r12),%eax
    629c:	8d 50 ff             	lea    -0x1(%rax),%edx
    629f:	41 89 54 24 08       	mov    %edx,0x8(%r12)
    62a4:	83 f8 01             	cmp    $0x1,%eax
    62a7:	0f 84 a0 03 00 00    	je     664d <_ZN12PseudoPRTreeIdLi6EE14get_all_leavesEv+0xa2d>
    62ad:	48 8b 84 24 b8 00 00 	mov    0xb8(%rsp),%rax
    62b4:	00 
    62b5:	64 48 2b 04 25 28 00 	sub    %fs:0x28,%rax
    62bc:	00 00 
    62be:	0f 85 0a 04 00 00    	jne    66ce <_ZN12PseudoPRTreeIdLi6EE14get_all_leavesEv+0xaae>
    62c4:	48 8d 65 d8          	lea    -0x28(%rbp),%rsp
    62c8:	4c 89 f0             	mov    %r14,%rax
    62cb:	5b                   	pop    %rbx
    62cc:	41 5c                	pop    %r12
    62ce:	41 5d                	pop    %r13
    62d0:	41 5e                	pop    %r14
    62d2:	41 5f                	pop    %r15
    62d4:	5d                   	pop    %rbp
    62d5:	c3                   	retq   
    62d6:	66 2e 0f 1f 84 00 00 	nopw   %cs:0x0(%rax,%rax,1)
    62dd:	00 00 00 
    62e0:	48 89 da             	mov    %rbx,%rdx
    62e3:	4c 89 ee             	mov    %r13,%rsi
    62e6:	4c 89 f7             	mov    %r14,%rdi
    62e9:	e8 f2 f5 ff ff       	callq  58e0 <_ZNSt6vectorI4LeafIdLi6EESaIS1_EE17_M_realloc_insertIJRS1_EEEvN9__gnu_cxx17__normal_iteratorIPS1_S3_EEDpOT_>
    62ee:	e9 20 fc ff ff       	jmpq   5f13 <_ZN12PseudoPRTreeIdLi6EE14get_all_leavesEv+0x2f3>
    62f3:	49 8b 07             	mov    (%r15),%rax
    62f6:	4c 89 ff             	mov    %r15,%rdi
    62f9:	ff 50 10             	callq  *0x10(%rax)
    62fc:	f0 41 ff 4f 0c       	lock decl 0xc(%r15)
    6301:	0f 84 89 03 00 00    	je     6690 <_ZN12PseudoPRTreeIdLi6EE14get_all_leavesEv+0xa70>
    6307:	49 83 c4 10          	add    $0x10,%r12
    630b:	4c 39 64 24 08       	cmp    %r12,0x8(%rsp)
    6310:	0f 84 7c fe ff ff    	je     6192 <_ZN12PseudoPRTreeIdLi6EE14get_all_leavesEv+0x572>
    6316:	4d 8b 7c 24 08       	mov    0x8(%r12),%r15
    631b:	4d 85 ff             	test   %r15,%r15
    631e:	74 e7                	je     6307 <_ZN12PseudoPRTreeIdLi6EE14get_all_leavesEv+0x6e7>
    6320:	f0 41 ff 4f 08       	lock decl 0x8(%r15)
    6325:	75 e0                	jne    6307 <_ZN12PseudoPRTreeIdLi6EE14get_all_leavesEv+0x6e7>
    6327:	eb ca                	jmp    62f3 <_ZN12PseudoPRTreeIdLi6EE14get_all_leavesEv+0x6d3>
    6329:	0f 1f 80 00 00 00 00 	nopl   0x0(%rax)
    6330:	4c 89 ef             	mov    %r13,%rdi
    6333:	45 31 e4             	xor    %r12d,%r12d
    6336:	31 f6                	xor    %esi,%esi
    6338:	e9 48 fb ff ff       	jmpq   5e85 <_ZN12PseudoPRTreeIdLi6EE14get_all_leavesEv+0x265>
    633d:	0f 1f 00             	nopl   (%rax)
    6340:	49 8d 95 00 02 00 00 	lea    0x200(%r13),%rdx
    6347:	eb 14                	jmp    635d <_ZN12PseudoPRTreeIdLi6EE14get_all_leavesEv+0x73d>
    6349:	0f 1f 80 00 00 00 00 	nopl   0x0(%rax)
    6350:	49 83 c5 10          	add    $0x10,%r13
    6354:	49 39 d5             	cmp    %rdx,%r13
    6357:	0f 84 a3 fd ff ff    	je     6100 <_ZN12PseudoPRTreeIdLi6EE14get_all_leavesEv+0x4e0>
    635d:	49 8b 7d 08          	mov    0x8(%r13),%rdi
    6361:	48 85 ff             	test   %rdi,%rdi
    6364:	74 ea                	je     6350 <_ZN12PseudoPRTreeIdLi6EE14get_all_leavesEv+0x730>
    6366:	f0 ff 4f 08          	lock decl 0x8(%rdi)
    636a:	75 e4                	jne    6350 <_ZN12PseudoPRTreeIdLi6EE14get_all_leavesEv+0x730>
    636c:	48 8b 37             	mov    (%rdi),%rsi
    636f:	48 89 7c 24 20       	mov    %rdi,0x20(%rsp)
    6374:	48 89 54 24 18       	mov    %rdx,0x18(%rsp)
    6379:	ff 56 10             	callq  *0x10(%rsi)
    637c:	48 8b 7c 24 20       	mov    0x20(%rsp),%rdi
    6381:	be ff ff ff ff       	mov    $0xffffffff,%esi
    6386:	f0 0f c1 77 0c       	lock xadd %esi,0xc(%rdi)
    638b:	48 8b 54 24 18       	mov    0x18(%rsp),%rdx
    6390:	83 fe 01             	cmp    $0x1,%esi
    6393:	75 bb                	jne    6350 <_ZN12PseudoPRTreeIdLi6EE14get_all_leavesEv+0x730>
    6395:	48 8b 37             	mov    (%rdi),%rsi
    6398:	48 89 54 24 20       	mov    %rdx,0x20(%rsp)
    639d:	ff 56 18             	callq  *0x18(%rsi)
    63a0:	48 8b 54 24 20       	mov    0x20(%rsp),%rdx
    63a5:	eb a9                	jmp    6350 <_ZN12PseudoPRTreeIdLi6EE14get_all_leavesEv+0x730>
    63a7:	49 8b 04 24          	mov    (%r12),%rax
    63ab:	4c 89 e7             	mov    %r12,%rdi
    63ae:	ff 50 10             	callq  *0x10(%rax)
    63b1:	4d 85 ff             	test   %r15,%r15
    63b4:	0f 85 02 02 00 00    	jne    65bc <_ZN12PseudoPRTreeIdLi6EE14get_all_leavesEv+0x99c>
    63ba:	41 8b 44 24 0c       	mov    0xc(%r12),%eax
    63bf:	8d 50 ff             	lea    -0x1(%rax),%edx
    63c2:	41 89 54 24 0c       	mov    %edx,0xc(%r12)
    63c7:	83 f8 01             	cmp    $0x1,%eax
    63ca:	0f 85 39 fc ff ff    	jne    6009 <_ZN12PseudoPRTreeIdLi6EE14get_all_leavesEv+0x3e9>
    63d0:	49 8b 04 24          	mov    (%r12),%rax
    63d4:	4c 89 e7             	mov    %r12,%rdi
    63d7:	ff 50 18             	callq  *0x18(%rax)
    63da:	e9 2a fc ff ff       	jmpq   6009 <_ZN12PseudoPRTreeIdLi6EE14get_all_leavesEv+0x3e9>
    63df:	49 8b 04 24          	mov    (%r12),%rax
    63e3:	4c 89 e7             	mov    %r12,%rdi
    63e6:	ff 50 10             	callq  *0x10(%rax)
    63e9:	4d 85 ff             	test   %r15,%r15
    63ec:	0f 85 b9 01 00 00    	jne    65ab <_ZN12PseudoPRTreeIdLi6EE14get_all_leavesEv+0x98b>
    63f2:	41 8b 44 24 0c       	mov    0xc(%r12),%eax
    63f7:	8d 50 ff             	lea    -0x1(%rax),%edx
    63fa:	41 89 54 24 0c       	mov    %edx,0xc(%r12)
    63ff:	83 f8 01             	cmp    $0x1,%eax
    6402:	0f 85 d1 fb ff ff    	jne    5fd9 <_ZN12PseudoPRTreeIdLi6EE14get_all_leavesEv+0x3b9>
    6408:	49 8b 04 24          	mov    (%r12),%rax
    640c:	4c 89 e7             	mov    %r12,%rdi
    640f:	ff 50 18             	callq  *0x18(%rax)
    6412:	e9 c2 fb ff ff       	jmpq   5fd9 <_ZN12PseudoPRTreeIdLi6EE14get_all_leavesEv+0x3b9>
    6417:	b8 ff ff ff ff       	mov    $0xffffffff,%eax
    641c:	f0 41 0f c1 44 24 08 	lock xadd %eax,0x8(%r12)
    6423:	e9 a8 fb ff ff       	jmpq   5fd0 <_ZN12PseudoPRTreeIdLi6EE14get_all_leavesEv+0x3b0>
    6428:	b8 ff ff ff ff       	mov    $0xffffffff,%eax
    642d:	f0 41 0f c1 44 24 08 	lock xadd %eax,0x8(%r12)
    6434:	e9 c7 fb ff ff       	jmpq   6000 <_ZN12PseudoPRTreeIdLi6EE14get_all_leavesEv+0x3e0>
    6439:	4d 85 e4             	test   %r12,%r12
    643c:	74 26                	je     6464 <_ZN12PseudoPRTreeIdLi6EE14get_all_leavesEv+0x844>
    643e:	4c 8b 3d 83 cb 00 00 	mov    0xcb83(%rip),%r15        # 12fc8 <__pthread_key_create>
    6445:	4d 85 ff             	test   %r15,%r15
    6448:	0f 85 d9 01 00 00    	jne    6627 <_ZN12PseudoPRTreeIdLi6EE14get_all_leavesEv+0xa07>
    644e:	41 8b 44 24 08       	mov    0x8(%r12),%eax
    6453:	8d 50 ff             	lea    -0x1(%rax),%edx
    6456:	41 89 54 24 08       	mov    %edx,0x8(%r12)
    645b:	83 f8 01             	cmp    $0x1,%eax
    645e:	0f 84 8b 01 00 00    	je     65ef <_ZN12PseudoPRTreeIdLi6EE14get_all_leavesEv+0x9cf>
    6464:	48 8b 7c 24 78       	mov    0x78(%rsp),%rdi
    6469:	be 00 02 00 00       	mov    $0x200,%esi
    646e:	e8 9d bc ff ff       	callq  2110 <_ZdlPvm@plt>
    6473:	48 8b 94 24 88 00 00 	mov    0x88(%rsp),%rdx
    647a:	00 
    647b:	48 8b 42 08          	mov    0x8(%rdx),%rax
    647f:	48 83 c2 08          	add    $0x8,%rdx
    6483:	48 8d 88 00 02 00 00 	lea    0x200(%rax),%rcx
    648a:	c4 e1 f9 6e e0       	vmovq  %rax,%xmm4
    648f:	c4 e1 f9 6e c1       	vmovq  %rcx,%xmm0
    6494:	c4 e3 f9 22 ca 01    	vpinsrq $0x1,%rdx,%xmm0,%xmm1
    649a:	c5 d9 6c c4          	vpunpcklqdq %xmm4,%xmm4,%xmm0
    649e:	c4 e3 7d 38 c1 01    	vinserti128 $0x1,%xmm1,%ymm0,%ymm0
    64a4:	c5 fe 7f 44 24 70    	vmovdqu %ymm0,0x70(%rsp)
    64aa:	c5 f8 77             	vzeroupper 
    64ad:	e9 51 f9 ff ff       	jmpq   5e03 <_ZN12PseudoPRTreeIdLi6EE14get_all_leavesEv+0x1e3>
    64b2:	49 8b 04 24          	mov    (%r12),%rax
    64b6:	4c 89 e7             	mov    %r12,%rdi
    64b9:	ff 50 10             	callq  *0x10(%rax)
    64bc:	4d 85 ff             	test   %r15,%r15
    64bf:	0f 85 08 01 00 00    	jne    65cd <_ZN12PseudoPRTreeIdLi6EE14get_all_leavesEv+0x9ad>
    64c5:	41 8b 44 24 0c       	mov    0xc(%r12),%eax
    64ca:	8d 50 ff             	lea    -0x1(%rax),%edx
    64cd:	41 89 54 24 0c       	mov    %edx,0xc(%r12)
    64d2:	83 f8 01             	cmp    $0x1,%eax
    64d5:	0f 85 1a f9 ff ff    	jne    5df5 <_ZN12PseudoPRTreeIdLi6EE14get_all_leavesEv+0x1d5>
    64db:	49 8b 04 24          	mov    (%r12),%rax
    64df:	4c 89 e7             	mov    %r12,%rdi
    64e2:	ff 50 18             	callq  *0x18(%rax)
    64e5:	e9 0b f9 ff ff       	jmpq   5df5 <_ZN12PseudoPRTreeIdLi6EE14get_all_leavesEv+0x1d5>
    64ea:	b8 ff ff ff ff       	mov    $0xffffffff,%eax
    64ef:	f0 41 0f c1 44 24 08 	lock xadd %eax,0x8(%r12)
    64f6:	e9 f1 f8 ff ff       	jmpq   5dec <_ZN12PseudoPRTreeIdLi6EE14get_all_leavesEv+0x1cc>
    64fb:	f0 ff 42 08          	lock incl 0x8(%rdx)
    64ff:	48 8b 44 24 30       	mov    0x30(%rsp),%rax
    6504:	e9 47 fa ff ff       	jmpq   5f50 <_ZN12PseudoPRTreeIdLi6EE14get_all_leavesEv+0x330>
    6509:	f0 ff 42 08          	lock incl 0x8(%rdx)
    650d:	e9 69 fa ff ff       	jmpq   5f7b <_ZN12PseudoPRTreeIdLi6EE14get_all_leavesEv+0x35b>
    6512:	49 8b 04 24          	mov    (%r12),%rax
    6516:	4c 89 e7             	mov    %r12,%rdi
    6519:	ff 50 10             	callq  *0x10(%rax)
    651c:	4d 85 ff             	test   %r15,%r15
    651f:	0f 85 b9 00 00 00    	jne    65de <_ZN12PseudoPRTreeIdLi6EE14get_all_leavesEv+0x9be>
    6525:	41 8b 44 24 0c       	mov    0xc(%r12),%eax
    652a:	8d 50 ff             	lea    -0x1(%rax),%edx
    652d:	41 89 54 24 0c       	mov    %edx,0xc(%r12)
    6532:	83 f8 01             	cmp    $0x1,%eax
    6535:	0f 85 6c f8 ff ff    	jne    5da7 <_ZN12PseudoPRTreeIdLi6EE14get_all_leavesEv+0x187>
    653b:	49 8b 04 24          	mov    (%r12),%rax
    653f:	4c 89 e7             	mov    %r12,%rdi
    6542:	ff 50 18             	callq  *0x18(%rax)
    6545:	e9 5d f8 ff ff       	jmpq   5da7 <_ZN12PseudoPRTreeIdLi6EE14get_all_leavesEv+0x187>
    654a:	b8 ff ff ff ff       	mov    $0xffffffff,%eax
    654f:	f0 41 0f c1 44 24 08 	lock xadd %eax,0x8(%r12)
    6556:	e9 43 f8 ff ff       	jmpq   5d9e <_ZN12PseudoPRTreeIdLi6EE14get_all_leavesEv+0x17e>
    655b:	f0 ff 43 08          	lock incl 0x8(%rbx)
    655f:	4c 8b 64 24 38       	mov    0x38(%rsp),%r12
    6564:	e9 13 f8 ff ff       	jmpq   5d7c <_ZN12PseudoPRTreeIdLi6EE14get_all_leavesEv+0x15c>
    6569:	49 8b 04 24          	mov    (%r12),%rax
    656d:	4c 89 e7             	mov    %r12,%rdi
    6570:	ff 50 10             	callq  *0x10(%rax)
    6573:	f0 41 ff 4c 24 0c    	lock decl 0xc(%r12)
    6579:	0f 84 02 01 00 00    	je     6681 <_ZN12PseudoPRTreeIdLi6EE14get_all_leavesEv+0xa61>
    657f:	48 83 44 24 28 10    	addq   $0x10,0x28(%rsp)
    6585:	48 8b 44 24 28       	mov    0x28(%rsp),%rax
    658a:	48 39 d8             	cmp    %rbx,%rax
    658d:	0f 84 93 fc ff ff    	je     6226 <_ZN12PseudoPRTreeIdLi6EE14get_all_leavesEv+0x606>
    6593:	48 8b 44 24 28       	mov    0x28(%rsp),%rax
    6598:	4c 8b 60 08          	mov    0x8(%rax),%r12
    659c:	4d 85 e4             	test   %r12,%r12
    659f:	74 de                	je     657f <_ZN12PseudoPRTreeIdLi6EE14get_all_leavesEv+0x95f>
    65a1:	f0 41 ff 4c 24 08    	lock decl 0x8(%r12)
    65a7:	75 d6                	jne    657f <_ZN12PseudoPRTreeIdLi6EE14get_all_leavesEv+0x95f>
    65a9:	eb be                	jmp    6569 <_ZN12PseudoPRTreeIdLi6EE14get_all_leavesEv+0x949>
    65ab:	b8 ff ff ff ff       	mov    $0xffffffff,%eax
    65b0:	f0 41 0f c1 44 24 0c 	lock xadd %eax,0xc(%r12)
    65b7:	e9 43 fe ff ff       	jmpq   63ff <_ZN12PseudoPRTreeIdLi6EE14get_all_leavesEv+0x7df>
    65bc:	b8 ff ff ff ff       	mov    $0xffffffff,%eax
    65c1:	f0 41 0f c1 44 24 0c 	lock xadd %eax,0xc(%r12)
    65c8:	e9 fa fd ff ff       	jmpq   63c7 <_ZN12PseudoPRTreeIdLi6EE14get_all_leavesEv+0x7a7>
    65cd:	b8 ff ff ff ff       	mov    $0xffffffff,%eax
    65d2:	f0 41 0f c1 44 24 0c 	lock xadd %eax,0xc(%r12)
    65d9:	e9 f4 fe ff ff       	jmpq   64d2 <_ZN12PseudoPRTreeIdLi6EE14get_all_leavesEv+0x8b2>
    65de:	b8 ff ff ff ff       	mov    $0xffffffff,%eax
    65e3:	f0 41 0f c1 44 24 0c 	lock xadd %eax,0xc(%r12)
    65ea:	e9 43 ff ff ff       	jmpq   6532 <_ZN12PseudoPRTreeIdLi6EE14get_all_leavesEv+0x912>
    65ef:	49 8b 04 24          	mov    (%r12),%rax
    65f3:	4c 89 e7             	mov    %r12,%rdi
    65f6:	ff 50 10             	callq  *0x10(%rax)
    65f9:	4d 85 ff             	test   %r15,%r15
    65fc:	0f 85 9c 00 00 00    	jne    669e <_ZN12PseudoPRTreeIdLi6EE14get_all_leavesEv+0xa7e>
    6602:	41 8b 44 24 0c       	mov    0xc(%r12),%eax
    6607:	8d 50 ff             	lea    -0x1(%rax),%edx
    660a:	41 89 54 24 0c       	mov    %edx,0xc(%r12)
    660f:	83 f8 01             	cmp    $0x1,%eax
    6612:	0f 85 4c fe ff ff    	jne    6464 <_ZN12PseudoPRTreeIdLi6EE14get_all_leavesEv+0x844>
    6618:	49 8b 04 24          	mov    (%r12),%rax
    661c:	4c 89 e7             	mov    %r12,%rdi
    661f:	ff 50 18             	callq  *0x18(%rax)
    6622:	e9 3d fe ff ff       	jmpq   6464 <_ZN12PseudoPRTreeIdLi6EE14get_all_leavesEv+0x844>
    6627:	b8 ff ff ff ff       	mov    $0xffffffff,%eax
    662c:	f0 41 0f c1 44 24 08 	lock xadd %eax,0x8(%r12)
    6633:	e9 23 fe ff ff       	jmpq   645b <_ZN12PseudoPRTreeIdLi6EE14get_all_leavesEv+0x83b>
    6638:	b8 ff ff ff ff       	mov    $0xffffffff,%eax
    663d:	f0 41 0f c1 44 24 08 	lock xadd %eax,0x8(%r12)
    6644:	83 f8 01             	cmp    $0x1,%eax
    6647:	0f 85 60 fc ff ff    	jne    62ad <_ZN12PseudoPRTreeIdLi6EE14get_all_leavesEv+0x68d>
    664d:	49 8b 04 24          	mov    (%r12),%rax
    6651:	4c 89 e7             	mov    %r12,%rdi
    6654:	ff 50 10             	callq  *0x10(%rax)
    6657:	4d 85 ff             	test   %r15,%r15
    665a:	75 64                	jne    66c0 <_ZN12PseudoPRTreeIdLi6EE14get_all_leavesEv+0xaa0>
    665c:	41 8b 44 24 0c       	mov    0xc(%r12),%eax
    6661:	8d 50 ff             	lea    -0x1(%rax),%edx
    6664:	41 89 54 24 0c       	mov    %edx,0xc(%r12)
    6669:	83 f8 01             	cmp    $0x1,%eax
    666c:	0f 85 3b fc ff ff    	jne    62ad <_ZN12PseudoPRTreeIdLi6EE14get_all_leavesEv+0x68d>
    6672:	49 8b 04 24          	mov    (%r12),%rax
    6676:	4c 89 e7             	mov    %r12,%rdi
    6679:	ff 50 18             	callq  *0x18(%rax)
    667c:	e9 2c fc ff ff       	jmpq   62ad <_ZN12PseudoPRTreeIdLi6EE14get_all_leavesEv+0x68d>
    6681:	49 8b 04 24          	mov    (%r12),%rax
    6685:	4c 89 e7             	mov    %r12,%rdi
    6688:	ff 50 18             	callq  *0x18(%rax)
    668b:	e9 ef fe ff ff       	jmpq   657f <_ZN12PseudoPRTreeIdLi6EE14get_all_leavesEv+0x95f>
    6690:	49 8b 07             	mov    (%r15),%rax
    6693:	4c 89 ff             	mov    %r15,%rdi
    6696:	ff 50 18             	callq  *0x18(%rax)
    6699:	e9 69 fc ff ff       	jmpq   6307 <_ZN12PseudoPRTreeIdLi6EE14get_all_leavesEv+0x6e7>
    669e:	b8 ff ff ff ff       	mov    $0xffffffff,%eax
    66a3:	f0 41 0f c1 44 24 0c 	lock xadd %eax,0xc(%r12)
    66aa:	e9 60 ff ff ff       	jmpq   660f <_ZN12PseudoPRTreeIdLi6EE14get_all_leavesEv+0x9ef>
    66af:	f0 ff 40 08          	lock incl 0x8(%rax)
    66b3:	e9 ca f5 ff ff       	jmpq   5c82 <_ZN12PseudoPRTreeIdLi6EE14get_all_leavesEv+0x62>
    66b8:	48 89 c3             	mov    %rax,%rbx
    66bb:	e9 5f f9 ff ff       	jmpq   601f <_ZN12PseudoPRTreeIdLi6EE14get_all_leavesEv+0x3ff>
    66c0:	b8 ff ff ff ff       	mov    $0xffffffff,%eax
    66c5:	f0 41 0f c1 44 24 0c 	lock xadd %eax,0xc(%r12)
    66cc:	eb 9b                	jmp    6669 <_ZN12PseudoPRTreeIdLi6EE14get_all_leavesEv+0xa49>
    66ce:	e8 4d ba ff ff       	callq  2120 <__stack_chk_fail@plt>
    66d3:	66 66 2e 0f 1f 84 00 	data16 nopw %cs:0x0(%rax,%rax,1)
    66da:	00 00 00 00 
    66de:	66 90                	xchg   %ax,%ax
    66e0:	e8 6b b9 ff ff       	callq  2050 <_ZSt17__throw_bad_allocv@plt>
    66e5:	49 89 c4             	mov    %rax,%r12
    66e8:	eb 05                	jmp    66ef <_ZN12PseudoPRTreeIdLi6EE14get_all_leavesEv+0xacf>
    66ea:	49 89 c4             	mov    %rax,%r12
    66ed:	eb 31                	jmp    6720 <_ZN12PseudoPRTreeIdLi6EE14get_all_leavesEv+0xb00>
    66ef:	48 8b 7c 24 58       	mov    0x58(%rsp),%rdi
    66f4:	48 85 ff             	test   %rdi,%rdi
    66f7:	74 08                	je     6701 <_ZN12PseudoPRTreeIdLi6EE14get_all_leavesEv+0xae1>
    66f9:	c5 f8 77             	vzeroupper 
    66fc:	e8 5f f1 ff ff       	callq  5860 <_ZNSt16_Sp_counted_baseILN9__gnu_cxx12_Lock_policyE2EE10_M_releaseEv>
    6701:	48 8b 7c 24 48       	mov    0x48(%rsp),%rdi
    6706:	48 85 ff             	test   %rdi,%rdi
    6709:	74 08                	je     6713 <_ZN12PseudoPRTreeIdLi6EE14get_all_leavesEv+0xaf3>
    670b:	c5 f8 77             	vzeroupper 
    670e:	e8 4d f1 ff ff       	callq  5860 <_ZNSt16_Sp_counted_baseILN9__gnu_cxx12_Lock_policyE2EE10_M_releaseEv>
    6713:	48 8b 7c 24 28       	mov    0x28(%rsp),%rdi
    6718:	c5 f8 77             	vzeroupper 
    671b:	e8 60 e9 ff ff       	callq  5080 <_ZNSt5dequeISt10shared_ptrI16PseudoPRTreeNodeIdLi6EEESaIS3_EED1Ev>
    6720:	48 8b 7c 24 38       	mov    0x38(%rsp),%rdi
    6725:	48 85 ff             	test   %rdi,%rdi
    6728:	74 22                	je     674c <_ZN12PseudoPRTreeIdLi6EE14get_all_leavesEv+0xb2c>
    672a:	c5 f8 77             	vzeroupper 
    672d:	e8 2e f1 ff ff       	callq  5860 <_ZNSt16_Sp_counted_baseILN9__gnu_cxx12_Lock_policyE2EE10_M_releaseEv>
    6732:	4c 89 f7             	mov    %r14,%rdi
    6735:	e8 c6 e8 ff ff       	callq  5000 <_ZNSt6vectorI4LeafIdLi6EESaIS1_EED1Ev>
    673a:	4c 89 e7             	mov    %r12,%rdi
    673d:	e8 ae ba ff ff       	callq  21f0 <_Unwind_Resume@plt>
    6742:	49 89 c4             	mov    %rax,%r12
    6745:	eb cc                	jmp    6713 <_ZN12PseudoPRTreeIdLi6EE14get_all_leavesEv+0xaf3>
    6747:	48 89 c7             	mov    %rax,%rdi
    674a:	eb 05                	jmp    6751 <_ZN12PseudoPRTreeIdLi6EE14get_all_leavesEv+0xb31>
    674c:	c5 f8 77             	vzeroupper 
    674f:	eb e1                	jmp    6732 <_ZN12PseudoPRTreeIdLi6EE14get_all_leavesEv+0xb12>
    6751:	c5 f8 77             	vzeroupper 
    6754:	e8 17 b9 ff ff       	callq  2070 <__cxa_begin_catch@plt>
    6759:	e8 22 ba ff ff       	callq  2180 <__cxa_rethrow@plt>
    675e:	49 89 c4             	mov    %rax,%r12
    6761:	c5 f8 77             	vzeroupper 
    6764:	e8 57 ba ff ff       	callq  21c0 <__cxa_end_catch@plt>
    6769:	4c 89 e7             	mov    %r12,%rdi
    676c:	e8 ff b8 ff ff       	callq  2070 <__cxa_begin_catch@plt>
    6771:	48 8b 44 24 68       	mov    0x68(%rsp),%rax
    6776:	48 8b 7c 24 60       	mov    0x60(%rsp),%rdi
    677b:	48 8d 34 c5 00 00 00 	lea    0x0(,%rax,8),%rsi
    6782:	00 
    6783:	e8 88 b9 ff ff       	callq  2110 <_ZdlPvm@plt>
    6788:	48 c7 44 24 60 00 00 	movq   $0x0,0x60(%rsp)
    678f:	00 00 
    6791:	48 c7 44 24 68 00 00 	movq   $0x0,0x68(%rsp)
    6798:	00 00 
    679a:	e8 e1 b9 ff ff       	callq  2180 <__cxa_rethrow@plt>
    679f:	49 89 c4             	mov    %rax,%r12
    67a2:	c5 f8 77             	vzeroupper 
    67a5:	e8 16 ba ff ff       	callq  21c0 <__cxa_end_catch@plt>
    67aa:	e9 71 ff ff ff       	jmpq   6720 <_ZN12PseudoPRTreeIdLi6EE14get_all_leavesEv+0xb00>
    67af:	90                   	nop

00000000000067b0 <_ZNSt6vectorISt4pairIi11BoundingBoxESaIS2_EE17_M_realloc_insertIJRiRS1_EEEvN9__gnu_cxx17__normal_iteratorIPS2_S4_EEDpOT_>:
    67b0:	41 57                	push   %r15
    67b2:	41 56                	push   %r14
    67b4:	41 55                	push   %r13
    67b6:	41 54                	push   %r12
    67b8:	55                   	push   %rbp
    67b9:	53                   	push   %rbx
    67ba:	48 89 f5             	mov    %rsi,%rbp
    67bd:	48 be cd cc cc cc cc 	movabs $0xcccccccccccccccd,%rsi
    67c4:	cc cc cc 
    67c7:	48 83 ec 28          	sub    $0x28,%rsp
    67cb:	4c 8b 77 08          	mov    0x8(%rdi),%r14
    67cf:	4c 8b 2f             	mov    (%rdi),%r13
    67d2:	48 89 fb             	mov    %rdi,%rbx
    67d5:	48 bf 33 33 33 33 33 	movabs $0x333333333333333,%rdi
    67dc:	33 33 03 
    67df:	4c 89 f0             	mov    %r14,%rax
    67e2:	4c 29 e8             	sub    %r13,%rax
    67e5:	48 c1 f8 03          	sar    $0x3,%rax
    67e9:	48 0f af c6          	imul   %rsi,%rax
    67ed:	48 39 f8             	cmp    %rdi,%rax
    67f0:	0f 84 a6 01 00 00    	je     699c <_ZNSt6vectorISt4pairIi11BoundingBoxESaIS2_EE17_M_realloc_insertIJRiRS1_EEEvN9__gnu_cxx17__normal_iteratorIPS2_S4_EEDpOT_+0x1ec>
    67f6:	48 85 c0             	test   %rax,%rax
    67f9:	be 01 00 00 00       	mov    $0x1,%esi
    67fe:	48 0f 45 f0          	cmovne %rax,%rsi
    6802:	45 31 c0             	xor    %r8d,%r8d
    6805:	48 01 f0             	add    %rsi,%rax
    6808:	48 89 ee             	mov    %rbp,%rsi
    680b:	41 0f 92 c0          	setb   %r8b
    680f:	4c 29 ee             	sub    %r13,%rsi
    6812:	4d 85 c0             	test   %r8,%r8
    6815:	0f 85 75 01 00 00    	jne    6990 <_ZNSt6vectorISt4pairIi11BoundingBoxESaIS2_EE17_M_realloc_insertIJRiRS1_EEEvN9__gnu_cxx17__normal_iteratorIPS2_S4_EEDpOT_+0x1e0>
    681b:	48 85 c0             	test   %rax,%rax
    681e:	0f 85 1c 01 00 00    	jne    6940 <_ZNSt6vectorISt4pairIi11BoundingBoxESaIS2_EE17_M_realloc_insertIJRiRS1_EEEvN9__gnu_cxx17__normal_iteratorIPS2_S4_EEDpOT_+0x190>
    6824:	41 bc 28 00 00 00    	mov    $0x28,%r12d
    682a:	48 c7 04 24 00 00 00 	movq   $0x0,(%rsp)
    6831:	00 
    6832:	45 31 ff             	xor    %r15d,%r15d
    6835:	c5 fa 6f 19          	vmovdqu (%rcx),%xmm3
    6839:	49 8d 04 37          	lea    (%r15,%rsi,1),%rax
    683d:	c5 fa 6f 61 10       	vmovdqu 0x10(%rcx),%xmm4
    6842:	8b 12                	mov    (%rdx),%edx
    6844:	89 10                	mov    %edx,(%rax)
    6846:	c5 fa 7f 58 08       	vmovdqu %xmm3,0x8(%rax)
    684b:	c5 fa 7f 60 18       	vmovdqu %xmm4,0x18(%rax)
    6850:	4c 39 ed             	cmp    %r13,%rbp
    6853:	74 62                	je     68b7 <_ZNSt6vectorISt4pairIi11BoundingBoxESaIS2_EE17_M_realloc_insertIJRiRS1_EEEvN9__gnu_cxx17__normal_iteratorIPS2_S4_EEDpOT_+0x107>
    6855:	4c 89 fa             	mov    %r15,%rdx
    6858:	4c 89 e8             	mov    %r13,%rax
    685b:	0f 1f 44 00 00       	nopl   0x0(%rax,%rax,1)
    6860:	c5 fa 6f 08          	vmovdqu (%rax),%xmm1
    6864:	48 83 c0 28          	add    $0x28,%rax
    6868:	48 83 c2 28          	add    $0x28,%rdx
    686c:	c5 fa 7f 4a d8       	vmovdqu %xmm1,-0x28(%rdx)
    6871:	c5 fa 6f 50 e8       	vmovdqu -0x18(%rax),%xmm2
    6876:	c5 fa 7f 52 e8       	vmovdqu %xmm2,-0x18(%rdx)
    687b:	48 8b 48 f8          	mov    -0x8(%rax),%rcx
    687f:	48 89 4a f8          	mov    %rcx,-0x8(%rdx)
    6883:	48 39 e8             	cmp    %rbp,%rax
    6886:	75 d8                	jne    6860 <_ZNSt6vectorISt4pairIi11BoundingBoxESaIS2_EE17_M_realloc_insertIJRiRS1_EEEvN9__gnu_cxx17__normal_iteratorIPS2_S4_EEDpOT_+0xb0>
    6888:	48 8d 45 d8          	lea    -0x28(%rbp),%rax
    688c:	48 ba cd cc cc cc cc 	movabs $0xccccccccccccccd,%rdx
    6893:	cc cc 0c 
    6896:	4c 29 e8             	sub    %r13,%rax
    6899:	48 c1 e8 03          	shr    $0x3,%rax
    689d:	48 0f af c2          	imul   %rdx,%rax
    68a1:	48 ba ff ff ff ff ff 	movabs $0x1fffffffffffffff,%rdx
    68a8:	ff ff 1f 
    68ab:	48 21 d0             	and    %rdx,%rax
    68ae:	48 8d 44 80 0a       	lea    0xa(%rax,%rax,4),%rax
    68b3:	4d 8d 24 c7          	lea    (%r15,%rax,8),%r12
    68b7:	4c 39 f5             	cmp    %r14,%rbp
    68ba:	74 40                	je     68fc <_ZNSt6vectorISt4pairIi11BoundingBoxESaIS2_EE17_M_realloc_insertIJRiRS1_EEEvN9__gnu_cxx17__normal_iteratorIPS2_S4_EEDpOT_+0x14c>
    68bc:	49 29 ee             	sub    %rbp,%r14
    68bf:	48 ba cd cc cc cc cc 	movabs $0xccccccccccccccd,%rdx
    68c6:	cc cc 0c 
    68c9:	4c 89 e7             	mov    %r12,%rdi
    68cc:	48 89 ee             	mov    %rbp,%rsi
    68cf:	49 8d 46 d8          	lea    -0x28(%r14),%rax
    68d3:	48 c1 e8 03          	shr    $0x3,%rax
    68d7:	48 0f af c2          	imul   %rdx,%rax
    68db:	48 ba ff ff ff ff ff 	movabs $0x1fffffffffffffff,%rdx
    68e2:	ff ff 1f 
    68e5:	48 21 d0             	and    %rdx,%rax
    68e8:	4c 8d 74 80 05       	lea    0x5(%rax,%rax,4),%r14
    68ed:	49 c1 e6 03          	shl    $0x3,%r14
    68f1:	4c 89 f2             	mov    %r14,%rdx
    68f4:	4d 01 f4             	add    %r14,%r12
    68f7:	e8 c4 b7 ff ff       	callq  20c0 <memcpy@plt>
    68fc:	4d 85 ed             	test   %r13,%r13
    68ff:	74 0f                	je     6910 <_ZNSt6vectorISt4pairIi11BoundingBoxESaIS2_EE17_M_realloc_insertIJRiRS1_EEEvN9__gnu_cxx17__normal_iteratorIPS2_S4_EEDpOT_+0x160>
    6901:	48 8b 73 10          	mov    0x10(%rbx),%rsi
    6905:	4c 89 ef             	mov    %r13,%rdi
    6908:	4c 29 ee             	sub    %r13,%rsi
    690b:	e8 00 b8 ff ff       	callq  2110 <_ZdlPvm@plt>
    6910:	48 8b 04 24          	mov    (%rsp),%rax
    6914:	c4 c1 f9 6e ef       	vmovq  %r15,%xmm5
    6919:	c4 c3 d1 22 c4 01    	vpinsrq $0x1,%r12,%xmm5,%xmm0
    691f:	c5 fa 7f 03          	vmovdqu %xmm0,(%rbx)
    6923:	48 89 43 10          	mov    %rax,0x10(%rbx)
    6927:	48 83 c4 28          	add    $0x28,%rsp
    692b:	5b                   	pop    %rbx
    692c:	5d                   	pop    %rbp
    692d:	41 5c                	pop    %r12
    692f:	41 5d                	pop    %r13
    6931:	41 5e                	pop    %r14
    6933:	41 5f                	pop    %r15
    6935:	c3                   	retq   
    6936:	66 2e 0f 1f 84 00 00 	nopw   %cs:0x0(%rax,%rax,1)
    693d:	00 00 00 
    6940:	48 39 f8             	cmp    %rdi,%rax
    6943:	48 0f 47 c7          	cmova  %rdi,%rax
    6947:	4c 8d 24 80          	lea    (%rax,%rax,4),%r12
    694b:	49 c1 e4 03          	shl    $0x3,%r12
    694f:	4c 89 e7             	mov    %r12,%rdi
    6952:	48 89 4c 24 18       	mov    %rcx,0x18(%rsp)
    6957:	48 89 54 24 10       	mov    %rdx,0x10(%rsp)
    695c:	48 89 74 24 08       	mov    %rsi,0x8(%rsp)
    6961:	e8 9a b7 ff ff       	callq  2100 <_Znwm@plt>
    6966:	48 8b 74 24 08       	mov    0x8(%rsp),%rsi
    696b:	49 89 c7             	mov    %rax,%r15
    696e:	4c 01 e0             	add    %r12,%rax
    6971:	48 8b 54 24 10       	mov    0x10(%rsp),%rdx
    6976:	48 8b 4c 24 18       	mov    0x18(%rsp),%rcx
    697b:	48 89 04 24          	mov    %rax,(%rsp)
    697f:	4d 8d 67 28          	lea    0x28(%r15),%r12
    6983:	e9 ad fe ff ff       	jmpq   6835 <_ZNSt6vectorISt4pairIi11BoundingBoxESaIS2_EE17_M_realloc_insertIJRiRS1_EEEvN9__gnu_cxx17__normal_iteratorIPS2_S4_EEDpOT_+0x85>
    6988:	0f 1f 84 00 00 00 00 	nopl   0x0(%rax,%rax,1)
    698f:	00 
    6990:	49 bc f8 ff ff ff ff 	movabs $0x7ffffffffffffff8,%r12
    6997:	ff ff 7f 
    699a:	eb b3                	jmp    694f <_ZNSt6vectorISt4pairIi11BoundingBoxESaIS2_EE17_M_realloc_insertIJRiRS1_EEEvN9__gnu_cxx17__normal_iteratorIPS2_S4_EEDpOT_+0x19f>
    699c:	48 8d 3d 95 96 00 00 	lea    0x9695(%rip),%rdi        # 10038 <_IO_stdin_used+0x38>
    69a3:	e8 e8 b6 ff ff       	callq  2090 <_ZSt20__throw_length_errorPKc@plt>
    69a8:	0f 1f 84 00 00 00 00 	nopl   0x0(%rax,%rax,1)
    69af:	00 

00000000000069b0 <_ZNSt6vectorI4LeafIiLi6EESaIS1_EE17_M_realloc_insertIJRS1_EEEvN9__gnu_cxx17__normal_iteratorIPS1_S3_EEDpOT_>:
    69b0:	41 57                	push   %r15
    69b2:	41 56                	push   %r14
    69b4:	41 55                	push   %r13
    69b6:	41 54                	push   %r12
    69b8:	55                   	push   %rbp
    69b9:	53                   	push   %rbx
    69ba:	48 89 f3             	mov    %rsi,%rbx
    69bd:	48 83 ec 28          	sub    $0x28,%rsp
    69c1:	48 8b 6f 08          	mov    0x8(%rdi),%rbp
    69c5:	4c 8b 37             	mov    (%rdi),%r14
    69c8:	48 89 74 24 08       	mov    %rsi,0x8(%rsp)
    69cd:	48 be ff ff ff ff ff 	movabs $0x1ffffffffffffff,%rsi
    69d4:	ff ff 01 
    69d7:	48 89 e8             	mov    %rbp,%rax
    69da:	4c 29 f0             	sub    %r14,%rax
    69dd:	48 c1 f8 06          	sar    $0x6,%rax
    69e1:	48 39 f0             	cmp    %rsi,%rax
    69e4:	0f 84 a4 02 00 00    	je     6c8e <_ZNSt6vectorI4LeafIiLi6EESaIS1_EE17_M_realloc_insertIJRS1_EEEvN9__gnu_cxx17__normal_iteratorIPS1_S3_EEDpOT_+0x2de>
    69ea:	49 89 d5             	mov    %rdx,%r13
    69ed:	ba 01 00 00 00       	mov    $0x1,%edx
    69f2:	48 85 c0             	test   %rax,%rax
    69f5:	48 89 c1             	mov    %rax,%rcx
    69f8:	4c 8b 64 24 08       	mov    0x8(%rsp),%r12
    69fd:	48 89 d0             	mov    %rdx,%rax
    6a00:	49 89 ff             	mov    %rdi,%r15
    6a03:	48 0f 45 c1          	cmovne %rcx,%rax
    6a07:	31 d2                	xor    %edx,%edx
    6a09:	48 01 c8             	add    %rcx,%rax
    6a0c:	0f 92 c2             	setb   %dl
    6a0f:	48 89 44 24 10       	mov    %rax,0x10(%rsp)
    6a14:	4d 29 f4             	sub    %r14,%r12
    6a17:	48 85 d2             	test   %rdx,%rdx
    6a1a:	0f 85 30 02 00 00    	jne    6c50 <_ZNSt6vectorI4LeafIiLi6EESaIS1_EE17_M_realloc_insertIJRS1_EEEvN9__gnu_cxx17__normal_iteratorIPS1_S3_EEDpOT_+0x2a0>
    6a20:	48 85 c0             	test   %rax,%rax
    6a23:	0f 85 f7 01 00 00    	jne    6c20 <_ZNSt6vectorI4LeafIiLi6EESaIS1_EE17_M_realloc_insertIJRS1_EEEvN9__gnu_cxx17__normal_iteratorIPS1_S3_EEDpOT_+0x270>
    6a29:	48 c7 04 24 00 00 00 	movq   $0x0,(%rsp)
    6a30:	00 
    6a31:	c4 c1 7a 6f 4d 08    	vmovdqu 0x8(%r13),%xmm1
    6a37:	c5 f9 ef c0          	vpxor  %xmm0,%xmm0,%xmm0
    6a3b:	c4 c1 7a 6f 55 18    	vmovdqu 0x18(%r13),%xmm2
    6a41:	49 8b 4d 30          	mov    0x30(%r13),%rcx
    6a45:	4c 03 24 24          	add    (%rsp),%r12
    6a49:	4d 8b 45 28          	mov    0x28(%r13),%r8
    6a4d:	41 8b 45 00          	mov    0x0(%r13),%eax
    6a51:	48 89 cf             	mov    %rcx,%rdi
    6a54:	4c 29 c7             	sub    %r8,%rdi
    6a57:	41 89 04 24          	mov    %eax,(%r12)
    6a5b:	c4 c1 7a 7f 44 24 28 	vmovdqu %xmm0,0x28(%r12)
    6a62:	49 c7 44 24 38 00 00 	movq   $0x0,0x38(%r12)
    6a69:	00 00 
    6a6b:	c4 c1 7a 7f 4c 24 08 	vmovdqu %xmm1,0x8(%r12)
    6a72:	48 89 7c 24 18       	mov    %rdi,0x18(%rsp)
    6a77:	c4 c1 7a 7f 54 24 18 	vmovdqu %xmm2,0x18(%r12)
    6a7e:	0f 84 ec 01 00 00    	je     6c70 <_ZNSt6vectorI4LeafIiLi6EESaIS1_EE17_M_realloc_insertIJRS1_EEEvN9__gnu_cxx17__normal_iteratorIPS1_S3_EEDpOT_+0x2c0>
    6a84:	48 b8 f8 ff ff ff ff 	movabs $0x7ffffffffffffff8,%rax
    6a8b:	ff ff 7f 
    6a8e:	48 39 c7             	cmp    %rax,%rdi
    6a91:	0f 87 f2 01 00 00    	ja     6c89 <_ZNSt6vectorI4LeafIiLi6EESaIS1_EE17_M_realloc_insertIJRS1_EEEvN9__gnu_cxx17__normal_iteratorIPS1_S3_EEDpOT_+0x2d9>
    6a97:	e8 64 b6 ff ff       	callq  2100 <_Znwm@plt>
    6a9c:	49 8b 4d 30          	mov    0x30(%r13),%rcx
    6aa0:	4d 8b 45 28          	mov    0x28(%r13),%r8
    6aa4:	48 89 c6             	mov    %rax,%rsi
    6aa7:	48 8b 44 24 18       	mov    0x18(%rsp),%rax
    6aac:	c4 e1 f9 6e de       	vmovq  %rsi,%xmm3
    6ab1:	c5 e1 6c c3          	vpunpcklqdq %xmm3,%xmm3,%xmm0
    6ab5:	c4 c1 7a 7f 44 24 28 	vmovdqu %xmm0,0x28(%r12)
    6abc:	48 01 f0             	add    %rsi,%rax
    6abf:	49 89 44 24 38       	mov    %rax,0x38(%r12)
    6ac4:	4c 39 c1             	cmp    %r8,%rcx
    6ac7:	74 5e                	je     6b27 <_ZNSt6vectorI4LeafIiLi6EESaIS1_EE17_M_realloc_insertIJRS1_EEEvN9__gnu_cxx17__normal_iteratorIPS1_S3_EEDpOT_+0x177>
    6ac9:	4c 89 c0             	mov    %r8,%rax
    6acc:	48 89 f2             	mov    %rsi,%rdx
    6acf:	90                   	nop
    6ad0:	c5 fa 6f 08          	vmovdqu (%rax),%xmm1
    6ad4:	48 83 c0 28          	add    $0x28,%rax
    6ad8:	48 83 c2 28          	add    $0x28,%rdx
    6adc:	c5 fa 7f 4a d8       	vmovdqu %xmm1,-0x28(%rdx)
    6ae1:	c5 fa 6f 50 e8       	vmovdqu -0x18(%rax),%xmm2
    6ae6:	c5 fa 7f 52 e8       	vmovdqu %xmm2,-0x18(%rdx)
    6aeb:	48 8b 78 f8          	mov    -0x8(%rax),%rdi
    6aef:	48 89 7a f8          	mov    %rdi,-0x8(%rdx)
    6af3:	48 39 c1             	cmp    %rax,%rcx
    6af6:	75 d8                	jne    6ad0 <_ZNSt6vectorI4LeafIiLi6EESaIS1_EE17_M_realloc_insertIJRS1_EEEvN9__gnu_cxx17__normal_iteratorIPS1_S3_EEDpOT_+0x120>
    6af8:	48 8d 41 d8          	lea    -0x28(%rcx),%rax
    6afc:	48 b9 cd cc cc cc cc 	movabs $0xccccccccccccccd,%rcx
    6b03:	cc cc 0c 
    6b06:	48 ba ff ff ff ff ff 	movabs $0x1fffffffffffffff,%rdx
    6b0d:	ff ff 1f 
    6b10:	4c 29 c0             	sub    %r8,%rax
    6b13:	48 c1 e8 03          	shr    $0x3,%rax
    6b17:	48 0f af c1          	imul   %rcx,%rax
    6b1b:	48 21 d0             	and    %rdx,%rax
    6b1e:	48 8d 44 80 05       	lea    0x5(%rax,%rax,4),%rax
    6b23:	48 8d 34 c6          	lea    (%rsi,%rax,8),%rsi
    6b27:	48 8b 44 24 08       	mov    0x8(%rsp),%rax
    6b2c:	49 89 74 24 30       	mov    %rsi,0x30(%r12)
    6b31:	4c 39 f0             	cmp    %r14,%rax
    6b34:	0f 84 46 01 00 00    	je     6c80 <_ZNSt6vectorI4LeafIiLi6EESaIS1_EE17_M_realloc_insertIJRS1_EEEvN9__gnu_cxx17__normal_iteratorIPS1_S3_EEDpOT_+0x2d0>
    6b3a:	4c 29 f0             	sub    %r14,%rax
    6b3d:	4c 89 f2             	mov    %r14,%rdx
    6b40:	48 89 c1             	mov    %rax,%rcx
    6b43:	48 8b 04 24          	mov    (%rsp),%rax
    6b47:	48 01 c1             	add    %rax,%rcx
    6b4a:	66 0f 1f 44 00 00    	nopw   0x0(%rax,%rax,1)
    6b50:	c5 fa 6f 5a 08       	vmovdqu 0x8(%rdx),%xmm3
    6b55:	c5 fa 6f 6a 28       	vmovdqu 0x28(%rdx),%xmm5
    6b5a:	48 83 c0 40          	add    $0x40,%rax
    6b5e:	48 83 c2 40          	add    $0x40,%rdx
    6b62:	8b 72 c0             	mov    -0x40(%rdx),%esi
    6b65:	89 70 c0             	mov    %esi,-0x40(%rax)
    6b68:	c5 fa 7f 58 c8       	vmovdqu %xmm3,-0x38(%rax)
    6b6d:	c5 fa 6f 62 d8       	vmovdqu -0x28(%rdx),%xmm4
    6b72:	c5 fa 7f 68 e8       	vmovdqu %xmm5,-0x18(%rax)
    6b77:	48 8b 72 f8          	mov    -0x8(%rdx),%rsi
    6b7b:	48 89 70 f8          	mov    %rsi,-0x8(%rax)
    6b7f:	c5 fa 7f 60 d8       	vmovdqu %xmm4,-0x28(%rax)
    6b84:	48 39 c8             	cmp    %rcx,%rax
    6b87:	75 c7                	jne    6b50 <_ZNSt6vectorI4LeafIiLi6EESaIS1_EE17_M_realloc_insertIJRS1_EEEvN9__gnu_cxx17__normal_iteratorIPS1_S3_EEDpOT_+0x1a0>
    6b89:	48 8b 44 24 08       	mov    0x8(%rsp),%rax
    6b8e:	4c 8d 61 40          	lea    0x40(%rcx),%r12
    6b92:	48 39 e8             	cmp    %rbp,%rax
    6b95:	74 44                	je     6bdb <_ZNSt6vectorI4LeafIiLi6EESaIS1_EE17_M_realloc_insertIJRS1_EEEvN9__gnu_cxx17__normal_iteratorIPS1_S3_EEDpOT_+0x22b>
    6b97:	48 89 e9             	mov    %rbp,%rcx
    6b9a:	48 29 c1             	sub    %rax,%rcx
    6b9d:	4c 89 e0             	mov    %r12,%rax
    6ba0:	8b 13                	mov    (%rbx),%edx
    6ba2:	c5 fa 6f 73 08       	vmovdqu 0x8(%rbx),%xmm6
    6ba7:	48 83 c3 40          	add    $0x40,%rbx
    6bab:	48 83 c0 40          	add    $0x40,%rax
    6baf:	c5 fa 6f 7b d8       	vmovdqu -0x28(%rbx),%xmm7
    6bb4:	c5 fa 6f 43 e8       	vmovdqu -0x18(%rbx),%xmm0
    6bb9:	89 50 c0             	mov    %edx,-0x40(%rax)
    6bbc:	48 8b 53 f8          	mov    -0x8(%rbx),%rdx
    6bc0:	c5 fa 7f 70 c8       	vmovdqu %xmm6,-0x38(%rax)
    6bc5:	48 89 50 f8          	mov    %rdx,-0x8(%rax)
    6bc9:	c5 fa 7f 78 d8       	vmovdqu %xmm7,-0x28(%rax)
    6bce:	c5 fa 7f 40 e8       	vmovdqu %xmm0,-0x18(%rax)
    6bd3:	48 39 eb             	cmp    %rbp,%rbx
    6bd6:	75 c8                	jne    6ba0 <_ZNSt6vectorI4LeafIiLi6EESaIS1_EE17_M_realloc_insertIJRS1_EEEvN9__gnu_cxx17__normal_iteratorIPS1_S3_EEDpOT_+0x1f0>
    6bd8:	49 01 cc             	add    %rcx,%r12
    6bdb:	4d 85 f6             	test   %r14,%r14
    6bde:	74 0f                	je     6bef <_ZNSt6vectorI4LeafIiLi6EESaIS1_EE17_M_realloc_insertIJRS1_EEEvN9__gnu_cxx17__normal_iteratorIPS1_S3_EEDpOT_+0x23f>
    6be0:	49 8b 77 10          	mov    0x10(%r15),%rsi
    6be4:	4c 89 f7             	mov    %r14,%rdi
    6be7:	4c 29 f6             	sub    %r14,%rsi
    6bea:	e8 21 b5 ff ff       	callq  2110 <_ZdlPvm@plt>
    6bef:	c5 fa 7e 24 24       	vmovq  (%rsp),%xmm4
    6bf4:	c4 e1 f9 7e e0       	vmovq  %xmm4,%rax
    6bf9:	48 03 44 24 10       	add    0x10(%rsp),%rax
    6bfe:	c4 c3 d9 22 c4 01    	vpinsrq $0x1,%r12,%xmm4,%xmm0
    6c04:	c4 c1 7a 7f 07       	vmovdqu %xmm0,(%r15)
    6c09:	49 89 47 10          	mov    %rax,0x10(%r15)
    6c0d:	48 83 c4 28          	add    $0x28,%rsp
    6c11:	5b                   	pop    %rbx
    6c12:	5d                   	pop    %rbp
    6c13:	41 5c                	pop    %r12
    6c15:	41 5d                	pop    %r13
    6c17:	41 5e                	pop    %r14
    6c19:	41 5f                	pop    %r15
    6c1b:	c3                   	retq   
    6c1c:	0f 1f 40 00          	nopl   0x0(%rax)
    6c20:	48 39 f0             	cmp    %rsi,%rax
    6c23:	48 0f 46 f0          	cmovbe %rax,%rsi
    6c27:	48 c1 e6 06          	shl    $0x6,%rsi
    6c2b:	48 89 74 24 10       	mov    %rsi,0x10(%rsp)
    6c30:	48 89 f7             	mov    %rsi,%rdi
    6c33:	e8 c8 b4 ff ff       	callq  2100 <_Znwm@plt>
    6c38:	48 89 04 24          	mov    %rax,(%rsp)
    6c3c:	e9 f0 fd ff ff       	jmpq   6a31 <_ZNSt6vectorI4LeafIiLi6EESaIS1_EE17_M_realloc_insertIJRS1_EEEvN9__gnu_cxx17__normal_iteratorIPS1_S3_EEDpOT_+0x81>
    6c41:	66 66 2e 0f 1f 84 00 	data16 nopw %cs:0x0(%rax,%rax,1)
    6c48:	00 00 00 00 
    6c4c:	0f 1f 40 00          	nopl   0x0(%rax)
    6c50:	48 b8 c0 ff ff ff ff 	movabs $0x7fffffffffffffc0,%rax
    6c57:	ff ff 7f 
    6c5a:	48 89 44 24 10       	mov    %rax,0x10(%rsp)
    6c5f:	48 89 c7             	mov    %rax,%rdi
    6c62:	eb cf                	jmp    6c33 <_ZNSt6vectorI4LeafIiLi6EESaIS1_EE17_M_realloc_insertIJRS1_EEEvN9__gnu_cxx17__normal_iteratorIPS1_S3_EEDpOT_+0x283>
    6c64:	66 66 2e 0f 1f 84 00 	data16 nopw %cs:0x0(%rax,%rax,1)
    6c6b:	00 00 00 00 
    6c6f:	90                   	nop
    6c70:	31 f6                	xor    %esi,%esi
    6c72:	e9 30 fe ff ff       	jmpq   6aa7 <_ZNSt6vectorI4LeafIiLi6EESaIS1_EE17_M_realloc_insertIJRS1_EEEvN9__gnu_cxx17__normal_iteratorIPS1_S3_EEDpOT_+0xf7>
    6c77:	66 0f 1f 84 00 00 00 	nopw   0x0(%rax,%rax,1)
    6c7e:	00 00 
    6c80:	48 8b 0c 24          	mov    (%rsp),%rcx
    6c84:	e9 00 ff ff ff       	jmpq   6b89 <_ZNSt6vectorI4LeafIiLi6EESaIS1_EE17_M_realloc_insertIJRS1_EEEvN9__gnu_cxx17__normal_iteratorIPS1_S3_EEDpOT_+0x1d9>
    6c89:	e8 c2 b3 ff ff       	callq  2050 <_ZSt17__throw_bad_allocv@plt>
    6c8e:	48 8d 3d a3 93 00 00 	lea    0x93a3(%rip),%rdi        # 10038 <_IO_stdin_used+0x38>
    6c95:	e8 f6 b3 ff ff       	callq  2090 <_ZSt20__throw_length_errorPKc@plt>
    6c9a:	48 89 c7             	mov    %rax,%rdi
    6c9d:	c5 f8 77             	vzeroupper 
    6ca0:	e8 cb b3 ff ff       	callq  2070 <__cxa_begin_catch@plt>
    6ca5:	48 83 3c 24 00       	cmpq   $0x0,(%rsp)
    6caa:	74 13                	je     6cbf <_ZNSt6vectorI4LeafIiLi6EESaIS1_EE17_M_realloc_insertIJRS1_EEEvN9__gnu_cxx17__normal_iteratorIPS1_S3_EEDpOT_+0x30f>
    6cac:	48 8b 74 24 10       	mov    0x10(%rsp),%rsi
    6cb1:	48 8b 3c 24          	mov    (%rsp),%rdi
    6cb5:	e8 56 b4 ff ff       	callq  2110 <_ZdlPvm@plt>
    6cba:	e8 c1 b4 ff ff       	callq  2180 <__cxa_rethrow@plt>
    6cbf:	49 8b 7c 24 28       	mov    0x28(%r12),%rdi
    6cc4:	49 8b 74 24 38       	mov    0x38(%r12),%rsi
    6cc9:	48 29 fe             	sub    %rdi,%rsi
    6ccc:	48 85 ff             	test   %rdi,%rdi
    6ccf:	74 e9                	je     6cba <_ZNSt6vectorI4LeafIiLi6EESaIS1_EE17_M_realloc_insertIJRS1_EEEvN9__gnu_cxx17__normal_iteratorIPS1_S3_EEDpOT_+0x30a>
    6cd1:	e8 3a b4 ff ff       	callq  2110 <_ZdlPvm@plt>
    6cd6:	eb e2                	jmp    6cba <_ZNSt6vectorI4LeafIiLi6EESaIS1_EE17_M_realloc_insertIJRS1_EEEvN9__gnu_cxx17__normal_iteratorIPS1_S3_EEDpOT_+0x30a>
    6cd8:	48 89 c5             	mov    %rax,%rbp
    6cdb:	c5 f8 77             	vzeroupper 
    6cde:	e8 dd b4 ff ff       	callq  21c0 <__cxa_end_catch@plt>
    6ce3:	48 89 ef             	mov    %rbp,%rdi
    6ce6:	e8 05 b5 ff ff       	callq  21f0 <_Unwind_Resume@plt>
    6ceb:	0f 1f 44 00 00       	nopl   0x0(%rax,%rax,1)

0000000000006cf0 <_ZN12PseudoPRTreeIiLi6EE14get_all_leavesEv>:
    6cf0:	55                   	push   %rbp
    6cf1:	c5 f9 ef c0          	vpxor  %xmm0,%xmm0,%xmm0
    6cf5:	48 89 e5             	mov    %rsp,%rbp
    6cf8:	41 57                	push   %r15
    6cfa:	41 56                	push   %r14
    6cfc:	49 89 fe             	mov    %rdi,%r14
    6cff:	41 55                	push   %r13
    6d01:	41 54                	push   %r12
    6d03:	53                   	push   %rbx
    6d04:	48 83 e4 e0          	and    $0xffffffffffffffe0,%rsp
    6d08:	48 81 ec c0 00 00 00 	sub    $0xc0,%rsp
    6d0f:	64 48 8b 04 25 28 00 	mov    %fs:0x28,%rax
    6d16:	00 00 
    6d18:	48 89 84 24 b8 00 00 	mov    %rax,0xb8(%rsp)
    6d1f:	00 
    6d20:	31 c0                	xor    %eax,%eax
    6d22:	c5 fa 7f 07          	vmovdqu %xmm0,(%rdi)
    6d26:	48 c7 47 10 00 00 00 	movq   $0x0,0x10(%rdi)
    6d2d:	00 
    6d2e:	c5 fa 6f 0e          	vmovdqu (%rsi),%xmm1
    6d32:	48 8b 46 08          	mov    0x8(%rsi),%rax
    6d36:	c5 f9 7f 4c 24 30    	vmovdqa %xmm1,0x30(%rsp)
    6d3c:	48 85 c0             	test   %rax,%rax
    6d3f:	74 11                	je     6d52 <_ZN12PseudoPRTreeIiLi6EE14get_all_leavesEv+0x62>
    6d41:	48 83 3d 7f c2 00 00 	cmpq   $0x0,0xc27f(%rip)        # 12fc8 <__pthread_key_create>
    6d48:	00 
    6d49:	0f 85 30 0a 00 00    	jne    777f <_ZN12PseudoPRTreeIiLi6EE14get_all_leavesEv+0xa8f>
    6d4f:	ff 40 08             	incl   0x8(%rax)
    6d52:	c5 f9 ef c0          	vpxor  %xmm0,%xmm0,%xmm0
    6d56:	bf 40 00 00 00       	mov    $0x40,%edi
    6d5b:	48 c7 44 24 60 00 00 	movq   $0x0,0x60(%rsp)
    6d62:	00 00 
    6d64:	48 c7 44 24 68 08 00 	movq   $0x8,0x68(%rsp)
    6d6b:	00 00 
    6d6d:	c5 fe 7f 44 24 70    	vmovdqu %ymm0,0x70(%rsp)
    6d73:	c5 fe 7f 84 24 90 00 	vmovdqu %ymm0,0x90(%rsp)
    6d7a:	00 00 
    6d7c:	c5 f8 77             	vzeroupper 
    6d7f:	e8 7c b3 ff ff       	callq  2100 <_Znwm@plt>
    6d84:	48 8b 54 24 68       	mov    0x68(%rsp),%rdx
    6d89:	bf 00 02 00 00       	mov    $0x200,%edi
    6d8e:	48 89 44 24 60       	mov    %rax,0x60(%rsp)
    6d93:	48 8d 1c 95 fc ff ff 	lea    -0x4(,%rdx,4),%rbx
    6d9a:	ff 
    6d9b:	48 83 e3 f8          	and    $0xfffffffffffffff8,%rbx
    6d9f:	48 01 c3             	add    %rax,%rbx
    6da2:	e8 59 b3 ff ff       	callq  2100 <_Znwm@plt>
    6da7:	48 8d 90 00 02 00 00 	lea    0x200(%rax),%rdx
    6dae:	c4 e1 f9 6e c8       	vmovq  %rax,%xmm1
    6db3:	48 89 03             	mov    %rax,(%rbx)
    6db6:	48 89 84 24 98 00 00 	mov    %rax,0x98(%rsp)
    6dbd:	00 
    6dbe:	48 89 84 24 90 00 00 	mov    %rax,0x90(%rsp)
    6dc5:	00 
    6dc6:	48 8d 44 24 60       	lea    0x60(%rsp),%rax
    6dcb:	c5 f1 6c c1          	vpunpcklqdq %xmm1,%xmm1,%xmm0
    6dcf:	48 8d 74 24 30       	lea    0x30(%rsp),%rsi
    6dd4:	48 89 c7             	mov    %rax,%rdi
    6dd7:	48 89 9c 24 88 00 00 	mov    %rbx,0x88(%rsp)
    6dde:	00 
    6ddf:	48 89 94 24 80 00 00 	mov    %rdx,0x80(%rsp)
    6de6:	00 
    6de7:	48 89 9c 24 a8 00 00 	mov    %rbx,0xa8(%rsp)
    6dee:	00 
    6def:	48 89 94 24 a0 00 00 	mov    %rdx,0xa0(%rsp)
    6df6:	00 
    6df7:	c5 f9 7f 44 24 70    	vmovdqa %xmm0,0x70(%rsp)
    6dfd:	48 89 44 24 28       	mov    %rax,0x28(%rsp)
    6e02:	e8 e9 c6 ff ff       	callq  34f0 <_ZNSt5dequeISt10shared_ptrI16PseudoPRTreeNodeIiLi6EEESaIS3_EE12emplace_backIJRS3_EEES7_DpOT_.isra.0>
    6e07:	48 8b 44 24 70       	mov    0x70(%rsp),%rax
    6e0c:	48 39 84 24 90 00 00 	cmp    %rax,0x90(%rsp)
    6e13:	00 
    6e14:	0f 84 6e 09 00 00    	je     7788 <_ZN12PseudoPRTreeIiLi6EE14get_all_leavesEv+0xa98>
    6e1a:	66 0f 1f 44 00 00    	nopw   0x0(%rax,%rax,1)
    6e20:	48 8b 10             	mov    (%rax),%rdx
    6e23:	48 8b 58 08          	mov    0x8(%rax),%rbx
    6e27:	4c 8b 64 24 38       	mov    0x38(%rsp),%r12
    6e2c:	48 89 54 24 30       	mov    %rdx,0x30(%rsp)
    6e31:	4c 39 e3             	cmp    %r12,%rbx
    6e34:	74 4b                	je     6e81 <_ZN12PseudoPRTreeIiLi6EE14get_all_leavesEv+0x191>
    6e36:	48 85 db             	test   %rbx,%rbx
    6e39:	74 11                	je     6e4c <_ZN12PseudoPRTreeIiLi6EE14get_all_leavesEv+0x15c>
    6e3b:	48 83 3d 85 c1 00 00 	cmpq   $0x0,0xc185(%rip)        # 12fc8 <__pthread_key_create>
    6e42:	00 
    6e43:	0f 85 e2 07 00 00    	jne    762b <_ZN12PseudoPRTreeIiLi6EE14get_all_leavesEv+0x93b>
    6e49:	ff 43 08             	incl   0x8(%rbx)
    6e4c:	4d 85 e4             	test   %r12,%r12
    6e4f:	74 26                	je     6e77 <_ZN12PseudoPRTreeIiLi6EE14get_all_leavesEv+0x187>
    6e51:	4c 8b 3d 70 c1 00 00 	mov    0xc170(%rip),%r15        # 12fc8 <__pthread_key_create>
    6e58:	4d 85 ff             	test   %r15,%r15
    6e5b:	0f 85 b9 07 00 00    	jne    761a <_ZN12PseudoPRTreeIiLi6EE14get_all_leavesEv+0x92a>
    6e61:	41 8b 44 24 08       	mov    0x8(%r12),%eax
    6e66:	8d 50 ff             	lea    -0x1(%rax),%edx
    6e69:	41 89 54 24 08       	mov    %edx,0x8(%r12)
    6e6e:	83 f8 01             	cmp    $0x1,%eax
    6e71:	0f 84 6b 07 00 00    	je     75e2 <_ZN12PseudoPRTreeIiLi6EE14get_all_leavesEv+0x8f2>
    6e77:	48 8b 44 24 70       	mov    0x70(%rsp),%rax
    6e7c:	48 89 5c 24 38       	mov    %rbx,0x38(%rsp)
    6e81:	48 8b 8c 24 80 00 00 	mov    0x80(%rsp),%rcx
    6e88:	00 
    6e89:	4c 8b 60 08          	mov    0x8(%rax),%r12
    6e8d:	48 8d 51 f0          	lea    -0x10(%rcx),%rdx
    6e91:	48 39 d0             	cmp    %rdx,%rax
    6e94:	0f 84 6f 06 00 00    	je     7509 <_ZN12PseudoPRTreeIiLi6EE14get_all_leavesEv+0x819>
    6e9a:	4d 85 e4             	test   %r12,%r12
    6e9d:	74 2b                	je     6eca <_ZN12PseudoPRTreeIiLi6EE14get_all_leavesEv+0x1da>
    6e9f:	4c 8b 3d 22 c1 00 00 	mov    0xc122(%rip),%r15        # 12fc8 <__pthread_key_create>
    6ea6:	4d 85 ff             	test   %r15,%r15
    6ea9:	0f 85 0b 07 00 00    	jne    75ba <_ZN12PseudoPRTreeIiLi6EE14get_all_leavesEv+0x8ca>
    6eaf:	41 8b 44 24 08       	mov    0x8(%r12),%eax
    6eb4:	8d 50 ff             	lea    -0x1(%rax),%edx
    6eb7:	41 89 54 24 08       	mov    %edx,0x8(%r12)
    6ebc:	83 f8 01             	cmp    $0x1,%eax
    6ebf:	0f 84 bd 06 00 00    	je     7582 <_ZN12PseudoPRTreeIiLi6EE14get_all_leavesEv+0x892>
    6ec5:	48 8b 44 24 70       	mov    0x70(%rsp),%rax
    6eca:	48 83 c0 10          	add    $0x10,%rax
    6ece:	48 89 44 24 70       	mov    %rax,0x70(%rsp)
    6ed3:	48 8b 5c 24 30       	mov    0x30(%rsp),%rbx
    6ed8:	4c 8d bb 00 01 00 00 	lea    0x100(%rbx),%r15
    6edf:	4c 8b 63 30          	mov    0x30(%rbx),%r12
    6ee3:	4c 3b 63 28          	cmp    0x28(%rbx),%r12
    6ee7:	0f 84 f6 00 00 00    	je     6fe3 <_ZN12PseudoPRTreeIiLi6EE14get_all_leavesEv+0x2f3>
    6eed:	4d 8b 6e 08          	mov    0x8(%r14),%r13
    6ef1:	4d 3b 6e 10          	cmp    0x10(%r14),%r13
    6ef5:	0f 84 b5 04 00 00    	je     73b0 <_ZN12PseudoPRTreeIiLi6EE14get_all_leavesEv+0x6c0>
    6efb:	c5 fa 6f 63 08       	vmovdqu 0x8(%rbx),%xmm4
    6f00:	8b 03                	mov    (%rbx),%eax
    6f02:	c5 c9 ef f6          	vpxor  %xmm6,%xmm6,%xmm6
    6f06:	4c 2b 63 28          	sub    0x28(%rbx),%r12
    6f0a:	41 89 45 00          	mov    %eax,0x0(%r13)
    6f0e:	c4 c1 7a 7f 65 08    	vmovdqu %xmm4,0x8(%r13)
    6f14:	c5 fa 6f 6b 18       	vmovdqu 0x18(%rbx),%xmm5
    6f19:	c4 c1 7a 7f 75 28    	vmovdqu %xmm6,0x28(%r13)
    6f1f:	49 c7 45 38 00 00 00 	movq   $0x0,0x38(%r13)
    6f26:	00 
    6f27:	c4 c1 7a 7f 6d 18    	vmovdqu %xmm5,0x18(%r13)
    6f2d:	0f 84 cd 04 00 00    	je     7400 <_ZN12PseudoPRTreeIiLi6EE14get_all_leavesEv+0x710>
    6f33:	48 b8 f8 ff ff ff ff 	movabs $0x7ffffffffffffff8,%rax
    6f3a:	ff ff 7f 
    6f3d:	49 39 c4             	cmp    %rax,%r12
    6f40:	0f 87 6a 08 00 00    	ja     77b0 <_ZN12PseudoPRTreeIiLi6EE14get_all_leavesEv+0xac0>
    6f46:	4c 89 e7             	mov    %r12,%rdi
    6f49:	e8 b2 b1 ff ff       	callq  2100 <_Znwm@plt>
    6f4e:	49 8b 7e 08          	mov    0x8(%r14),%rdi
    6f52:	48 89 c6             	mov    %rax,%rsi
    6f55:	c4 e1 f9 6e fe       	vmovq  %rsi,%xmm7
    6f5a:	49 01 f4             	add    %rsi,%r12
    6f5d:	c5 c1 6c c7          	vpunpcklqdq %xmm7,%xmm7,%xmm0
    6f61:	4d 89 65 38          	mov    %r12,0x38(%r13)
    6f65:	c4 c1 7a 7f 45 28    	vmovdqu %xmm0,0x28(%r13)
    6f6b:	48 8b 4b 30          	mov    0x30(%rbx),%rcx
    6f6f:	4c 8b 4b 28          	mov    0x28(%rbx),%r9
    6f73:	4c 39 c9             	cmp    %r9,%rcx
    6f76:	74 5f                	je     6fd7 <_ZN12PseudoPRTreeIiLi6EE14get_all_leavesEv+0x2e7>
    6f78:	4c 89 c8             	mov    %r9,%rax
    6f7b:	48 89 f2             	mov    %rsi,%rdx
    6f7e:	66 90                	xchg   %ax,%ax
    6f80:	c5 fa 6f 10          	vmovdqu (%rax),%xmm2
    6f84:	48 83 c0 28          	add    $0x28,%rax
    6f88:	48 83 c2 28          	add    $0x28,%rdx
    6f8c:	c5 fa 7f 52 d8       	vmovdqu %xmm2,-0x28(%rdx)
    6f91:	c5 fa 6f 58 e8       	vmovdqu -0x18(%rax),%xmm3
    6f96:	c5 fa 7f 5a e8       	vmovdqu %xmm3,-0x18(%rdx)
    6f9b:	4c 8b 40 f8          	mov    -0x8(%rax),%r8
    6f9f:	4c 89 42 f8          	mov    %r8,-0x8(%rdx)
    6fa3:	48 39 c1             	cmp    %rax,%rcx
    6fa6:	75 d8                	jne    6f80 <_ZN12PseudoPRTreeIiLi6EE14get_all_leavesEv+0x290>
    6fa8:	48 8d 41 d8          	lea    -0x28(%rcx),%rax
    6fac:	48 b9 cd cc cc cc cc 	movabs $0xccccccccccccccd,%rcx
    6fb3:	cc cc 0c 
    6fb6:	4c 29 c8             	sub    %r9,%rax
    6fb9:	48 c1 e8 03          	shr    $0x3,%rax
    6fbd:	48 0f af c1          	imul   %rcx,%rax
    6fc1:	48 b9 ff ff ff ff ff 	movabs $0x1fffffffffffffff,%rcx
    6fc8:	ff ff 1f 
    6fcb:	48 21 c8             	and    %rcx,%rax
    6fce:	48 8d 44 80 05       	lea    0x5(%rax,%rax,4),%rax
    6fd3:	48 8d 34 c6          	lea    (%rsi,%rax,8),%rsi
    6fd7:	48 83 c7 40          	add    $0x40,%rdi
    6fdb:	49 89 75 30          	mov    %rsi,0x30(%r13)
    6fdf:	49 89 7e 08          	mov    %rdi,0x8(%r14)
    6fe3:	48 83 c3 40          	add    $0x40,%rbx
    6fe7:	49 39 df             	cmp    %rbx,%r15
    6fea:	0f 85 ef fe ff ff    	jne    6edf <_ZN12PseudoPRTreeIiLi6EE14get_all_leavesEv+0x1ef>
    6ff0:	48 8b 44 24 30       	mov    0x30(%rsp),%rax
    6ff5:	c5 fa 6f 88 00 01 00 	vmovdqu 0x100(%rax),%xmm1
    6ffc:	00 
    6ffd:	48 8b 90 08 01 00 00 	mov    0x108(%rax),%rdx
    7004:	c5 f9 7f 4c 24 40    	vmovdqa %xmm1,0x40(%rsp)
    700a:	48 85 d2             	test   %rdx,%rdx
    700d:	74 11                	je     7020 <_ZN12PseudoPRTreeIiLi6EE14get_all_leavesEv+0x330>
    700f:	48 83 3d b1 bf 00 00 	cmpq   $0x0,0xbfb1(%rip)        # 12fc8 <__pthread_key_create>
    7016:	00 
    7017:	0f 85 ae 05 00 00    	jne    75cb <_ZN12PseudoPRTreeIiLi6EE14get_all_leavesEv+0x8db>
    701d:	ff 42 08             	incl   0x8(%rdx)
    7020:	c5 fa 6f 88 10 01 00 	vmovdqu 0x110(%rax),%xmm1
    7027:	00 
    7028:	48 8b 90 18 01 00 00 	mov    0x118(%rax),%rdx
    702f:	c5 f9 7f 4c 24 50    	vmovdqa %xmm1,0x50(%rsp)
    7035:	48 85 d2             	test   %rdx,%rdx
    7038:	74 11                	je     704b <_ZN12PseudoPRTreeIiLi6EE14get_all_leavesEv+0x35b>
    703a:	48 83 3d 86 bf 00 00 	cmpq   $0x0,0xbf86(%rip)        # 12fc8 <__pthread_key_create>
    7041:	00 
    7042:	0f 85 91 05 00 00    	jne    75d9 <_ZN12PseudoPRTreeIiLi6EE14get_all_leavesEv+0x8e9>
    7048:	ff 42 08             	incl   0x8(%rdx)
    704b:	48 83 7c 24 40 00    	cmpq   $0x0,0x40(%rsp)
    7051:	74 0f                	je     7062 <_ZN12PseudoPRTreeIiLi6EE14get_all_leavesEv+0x372>
    7053:	48 8b 7c 24 28       	mov    0x28(%rsp),%rdi
    7058:	48 8d 74 24 40       	lea    0x40(%rsp),%rsi
    705d:	e8 8e c4 ff ff       	callq  34f0 <_ZNSt5dequeISt10shared_ptrI16PseudoPRTreeNodeIiLi6EEESaIS3_EE12emplace_backIJRS3_EEES7_DpOT_.isra.0>
    7062:	48 83 7c 24 50 00    	cmpq   $0x0,0x50(%rsp)
    7068:	74 0f                	je     7079 <_ZN12PseudoPRTreeIiLi6EE14get_all_leavesEv+0x389>
    706a:	48 8b 7c 24 28       	mov    0x28(%rsp),%rdi
    706f:	48 8d 74 24 50       	lea    0x50(%rsp),%rsi
    7074:	e8 77 c4 ff ff       	callq  34f0 <_ZNSt5dequeISt10shared_ptrI16PseudoPRTreeNodeIiLi6EEESaIS3_EE12emplace_backIJRS3_EEES7_DpOT_.isra.0>
    7079:	4c 8b 64 24 58       	mov    0x58(%rsp),%r12
    707e:	4d 85 e4             	test   %r12,%r12
    7081:	74 26                	je     70a9 <_ZN12PseudoPRTreeIiLi6EE14get_all_leavesEv+0x3b9>
    7083:	4c 8b 3d 3e bf 00 00 	mov    0xbf3e(%rip),%r15        # 12fc8 <__pthread_key_create>
    708a:	4d 85 ff             	test   %r15,%r15
    708d:	0f 85 54 04 00 00    	jne    74e7 <_ZN12PseudoPRTreeIiLi6EE14get_all_leavesEv+0x7f7>
    7093:	41 8b 44 24 08       	mov    0x8(%r12),%eax
    7098:	8d 50 ff             	lea    -0x1(%rax),%edx
    709b:	41 89 54 24 08       	mov    %edx,0x8(%r12)
    70a0:	83 f8 01             	cmp    $0x1,%eax
    70a3:	0f 84 06 04 00 00    	je     74af <_ZN12PseudoPRTreeIiLi6EE14get_all_leavesEv+0x7bf>
    70a9:	4c 8b 64 24 48       	mov    0x48(%rsp),%r12
    70ae:	4d 85 e4             	test   %r12,%r12
    70b1:	74 26                	je     70d9 <_ZN12PseudoPRTreeIiLi6EE14get_all_leavesEv+0x3e9>
    70b3:	4c 8b 3d 0e bf 00 00 	mov    0xbf0e(%rip),%r15        # 12fc8 <__pthread_key_create>
    70ba:	4d 85 ff             	test   %r15,%r15
    70bd:	0f 85 35 04 00 00    	jne    74f8 <_ZN12PseudoPRTreeIiLi6EE14get_all_leavesEv+0x808>
    70c3:	41 8b 44 24 08       	mov    0x8(%r12),%eax
    70c8:	8d 50 ff             	lea    -0x1(%rax),%edx
    70cb:	41 89 54 24 08       	mov    %edx,0x8(%r12)
    70d0:	83 f8 01             	cmp    $0x1,%eax
    70d3:	0f 84 9e 03 00 00    	je     7477 <_ZN12PseudoPRTreeIiLi6EE14get_all_leavesEv+0x787>
    70d9:	48 8b 9c 24 90 00 00 	mov    0x90(%rsp),%rbx
    70e0:	00 
    70e1:	48 8b 44 24 70       	mov    0x70(%rsp),%rax
    70e6:	48 39 d8             	cmp    %rbx,%rax
    70e9:	0f 85 31 fd ff ff    	jne    6e20 <_ZN12PseudoPRTreeIiLi6EE14get_all_leavesEv+0x130>
    70ef:	48 8b 8c 24 80 00 00 	mov    0x80(%rsp),%rcx
    70f6:	00 
    70f7:	48 8b 84 24 98 00 00 	mov    0x98(%rsp),%rax
    70fe:	00 
    70ff:	48 89 4c 24 08       	mov    %rcx,0x8(%rsp)
    7104:	48 8b 8c 24 88 00 00 	mov    0x88(%rsp),%rcx
    710b:	00 
    710c:	48 89 44 24 28       	mov    %rax,0x28(%rsp)
    7111:	48 8b 84 24 a8 00 00 	mov    0xa8(%rsp),%rax
    7118:	00 
    7119:	4c 8d 61 08          	lea    0x8(%rcx),%r12
    711d:	48 89 44 24 10       	mov    %rax,0x10(%rsp)
    7122:	48 89 0c 24          	mov    %rcx,(%rsp)
    7126:	4c 39 e0             	cmp    %r12,%rax
    7129:	0f 86 b0 00 00 00    	jbe    71df <_ZN12PseudoPRTreeIiLi6EE14get_all_leavesEv+0x4ef>
    712f:	4c 8b 3d 92 be 00 00 	mov    0xbe92(%rip),%r15        # 12fc8 <__pthread_key_create>
    7136:	66 2e 0f 1f 84 00 00 	nopw   %cs:0x0(%rax,%rax,1)
    713d:	00 00 00 
    7140:	4d 8b 2c 24          	mov    (%r12),%r13
    7144:	4d 85 ff             	test   %r15,%r15
    7147:	0f 85 c3 02 00 00    	jne    7410 <_ZN12PseudoPRTreeIiLi6EE14get_all_leavesEv+0x720>
    714d:	49 8d b5 00 02 00 00 	lea    0x200(%r13),%rsi
    7154:	eb 13                	jmp    7169 <_ZN12PseudoPRTreeIiLi6EE14get_all_leavesEv+0x479>
    7156:	66 2e 0f 1f 84 00 00 	nopw   %cs:0x0(%rax,%rax,1)
    715d:	00 00 00 
    7160:	49 83 c5 10          	add    $0x10,%r13
    7164:	4c 39 ee             	cmp    %r13,%rsi
    7167:	74 67                	je     71d0 <_ZN12PseudoPRTreeIiLi6EE14get_all_leavesEv+0x4e0>
    7169:	49 8b 7d 08          	mov    0x8(%r13),%rdi
    716d:	48 85 ff             	test   %rdi,%rdi
    7170:	74 ee                	je     7160 <_ZN12PseudoPRTreeIiLi6EE14get_all_leavesEv+0x470>
    7172:	8b 57 08             	mov    0x8(%rdi),%edx
    7175:	44 8d 42 ff          	lea    -0x1(%rdx),%r8d
    7179:	44 89 47 08          	mov    %r8d,0x8(%rdi)
    717d:	83 fa 01             	cmp    $0x1,%edx
    7180:	75 de                	jne    7160 <_ZN12PseudoPRTreeIiLi6EE14get_all_leavesEv+0x470>
    7182:	48 8b 17             	mov    (%rdi),%rdx
    7185:	48 89 74 24 18       	mov    %rsi,0x18(%rsp)
    718a:	48 89 7c 24 20       	mov    %rdi,0x20(%rsp)
    718f:	ff 52 10             	callq  *0x10(%rdx)
    7192:	48 8b 7c 24 20       	mov    0x20(%rsp),%rdi
    7197:	48 8b 74 24 18       	mov    0x18(%rsp),%rsi
    719c:	8b 57 0c             	mov    0xc(%rdi),%edx
    719f:	44 8d 42 ff          	lea    -0x1(%rdx),%r8d
    71a3:	83 fa 01             	cmp    $0x1,%edx
    71a6:	44 89 47 0c          	mov    %r8d,0xc(%rdi)
    71aa:	75 b4                	jne    7160 <_ZN12PseudoPRTreeIiLi6EE14get_all_leavesEv+0x470>
    71ac:	48 8b 17             	mov    (%rdi),%rdx
    71af:	48 89 74 24 20       	mov    %rsi,0x20(%rsp)
    71b4:	49 83 c5 10          	add    $0x10,%r13
    71b8:	ff 52 18             	callq  *0x18(%rdx)
    71bb:	48 8b 74 24 20       	mov    0x20(%rsp),%rsi
    71c0:	4c 39 ee             	cmp    %r13,%rsi
    71c3:	75 a4                	jne    7169 <_ZN12PseudoPRTreeIiLi6EE14get_all_leavesEv+0x479>
    71c5:	66 66 2e 0f 1f 84 00 	data16 nopw %cs:0x0(%rax,%rax,1)
    71cc:	00 00 00 00 
    71d0:	49 83 c4 08          	add    $0x8,%r12
    71d4:	4c 39 64 24 10       	cmp    %r12,0x10(%rsp)
    71d9:	0f 87 61 ff ff ff    	ja     7140 <_ZN12PseudoPRTreeIiLi6EE14get_all_leavesEv+0x450>
    71df:	48 8b 0c 24          	mov    (%rsp),%rcx
    71e3:	48 39 4c 24 10       	cmp    %rcx,0x10(%rsp)
    71e8:	0f 84 08 01 00 00    	je     72f6 <_ZN12PseudoPRTreeIiLi6EE14get_all_leavesEv+0x606>
    71ee:	48 39 5c 24 08       	cmp    %rbx,0x8(%rsp)
    71f3:	74 6d                	je     7262 <_ZN12PseudoPRTreeIiLi6EE14get_all_leavesEv+0x572>
    71f5:	48 83 3d cb bd 00 00 	cmpq   $0x0,0xbdcb(%rip)        # 12fc8 <__pthread_key_create>
    71fc:	00 
    71fd:	49 89 dc             	mov    %rbx,%r12
    7200:	0f 85 e0 01 00 00    	jne    73e6 <_ZN12PseudoPRTreeIiLi6EE14get_all_leavesEv+0x6f6>
    7206:	4d 8b 7c 24 08       	mov    0x8(%r12),%r15
    720b:	4d 85 ff             	test   %r15,%r15
    720e:	75 15                	jne    7225 <_ZN12PseudoPRTreeIiLi6EE14get_all_leavesEv+0x535>
    7210:	49 83 c4 10          	add    $0x10,%r12
    7214:	4c 39 64 24 08       	cmp    %r12,0x8(%rsp)
    7219:	74 47                	je     7262 <_ZN12PseudoPRTreeIiLi6EE14get_all_leavesEv+0x572>
    721b:	4d 8b 7c 24 08       	mov    0x8(%r12),%r15
    7220:	4d 85 ff             	test   %r15,%r15
    7223:	74 eb                	je     7210 <_ZN12PseudoPRTreeIiLi6EE14get_all_leavesEv+0x520>
    7225:	41 8b 47 08          	mov    0x8(%r15),%eax
    7229:	8d 50 ff             	lea    -0x1(%rax),%edx
    722c:	41 89 57 08          	mov    %edx,0x8(%r15)
    7230:	83 f8 01             	cmp    $0x1,%eax
    7233:	75 db                	jne    7210 <_ZN12PseudoPRTreeIiLi6EE14get_all_leavesEv+0x520>
    7235:	49 8b 07             	mov    (%r15),%rax
    7238:	4c 89 ff             	mov    %r15,%rdi
    723b:	ff 50 10             	callq  *0x10(%rax)
    723e:	41 8b 47 0c          	mov    0xc(%r15),%eax
    7242:	8d 50 ff             	lea    -0x1(%rax),%edx
    7245:	41 89 57 0c          	mov    %edx,0xc(%r15)
    7249:	83 f8 01             	cmp    $0x1,%eax
    724c:	75 c2                	jne    7210 <_ZN12PseudoPRTreeIiLi6EE14get_all_leavesEv+0x520>
    724e:	49 8b 07             	mov    (%r15),%rax
    7251:	4c 89 ff             	mov    %r15,%rdi
    7254:	49 83 c4 10          	add    $0x10,%r12
    7258:	ff 50 18             	callq  *0x18(%rax)
    725b:	4c 39 64 24 08       	cmp    %r12,0x8(%rsp)
    7260:	75 b9                	jne    721b <_ZN12PseudoPRTreeIiLi6EE14get_all_leavesEv+0x52b>
    7262:	48 39 5c 24 28       	cmp    %rbx,0x28(%rsp)
    7267:	0f 84 89 00 00 00    	je     72f6 <_ZN12PseudoPRTreeIiLi6EE14get_all_leavesEv+0x606>
    726d:	48 83 3d 53 bd 00 00 	cmpq   $0x0,0xbd53(%rip)        # 12fc8 <__pthread_key_create>
    7274:	00 
    7275:	0f 85 e8 03 00 00    	jne    7663 <_ZN12PseudoPRTreeIiLi6EE14get_all_leavesEv+0x973>
    727b:	48 8b 44 24 28       	mov    0x28(%rsp),%rax
    7280:	4c 8b 60 08          	mov    0x8(%rax),%r12
    7284:	4d 85 e4             	test   %r12,%r12
    7287:	75 25                	jne    72ae <_ZN12PseudoPRTreeIiLi6EE14get_all_leavesEv+0x5be>
    7289:	0f 1f 80 00 00 00 00 	nopl   0x0(%rax)
    7290:	48 83 44 24 28 10    	addq   $0x10,0x28(%rsp)
    7296:	48 8b 44 24 28       	mov    0x28(%rsp),%rax
    729b:	48 39 c3             	cmp    %rax,%rbx
    729e:	74 56                	je     72f6 <_ZN12PseudoPRTreeIiLi6EE14get_all_leavesEv+0x606>
    72a0:	48 8b 44 24 28       	mov    0x28(%rsp),%rax
    72a5:	4c 8b 60 08          	mov    0x8(%rax),%r12
    72a9:	4d 85 e4             	test   %r12,%r12
    72ac:	74 e2                	je     7290 <_ZN12PseudoPRTreeIiLi6EE14get_all_leavesEv+0x5a0>
    72ae:	41 8b 44 24 08       	mov    0x8(%r12),%eax
    72b3:	8d 50 ff             	lea    -0x1(%rax),%edx
    72b6:	41 89 54 24 08       	mov    %edx,0x8(%r12)
    72bb:	83 f8 01             	cmp    $0x1,%eax
    72be:	75 d0                	jne    7290 <_ZN12PseudoPRTreeIiLi6EE14get_all_leavesEv+0x5a0>
    72c0:	49 8b 04 24          	mov    (%r12),%rax
    72c4:	4c 89 e7             	mov    %r12,%rdi
    72c7:	ff 50 10             	callq  *0x10(%rax)
    72ca:	41 8b 44 24 0c       	mov    0xc(%r12),%eax
    72cf:	8d 50 ff             	lea    -0x1(%rax),%edx
    72d2:	41 89 54 24 0c       	mov    %edx,0xc(%r12)
    72d7:	83 f8 01             	cmp    $0x1,%eax
    72da:	75 b4                	jne    7290 <_ZN12PseudoPRTreeIiLi6EE14get_all_leavesEv+0x5a0>
    72dc:	49 8b 04 24          	mov    (%r12),%rax
    72e0:	4c 89 e7             	mov    %r12,%rdi
    72e3:	ff 50 18             	callq  *0x18(%rax)
    72e6:	48 83 44 24 28 10    	addq   $0x10,0x28(%rsp)
    72ec:	48 8b 44 24 28       	mov    0x28(%rsp),%rax
    72f1:	48 39 c3             	cmp    %rax,%rbx
    72f4:	75 aa                	jne    72a0 <_ZN12PseudoPRTreeIiLi6EE14get_all_leavesEv+0x5b0>
    72f6:	48 8b 7c 24 60       	mov    0x60(%rsp),%rdi
    72fb:	48 85 ff             	test   %rdi,%rdi
    72fe:	74 4d                	je     734d <_ZN12PseudoPRTreeIiLi6EE14get_all_leavesEv+0x65d>
    7300:	48 8b 84 24 a8 00 00 	mov    0xa8(%rsp),%rax
    7307:	00 
    7308:	48 8b 9c 24 88 00 00 	mov    0x88(%rsp),%rbx
    730f:	00 
    7310:	4c 8d 60 08          	lea    0x8(%rax),%r12
    7314:	49 39 dc             	cmp    %rbx,%r12
    7317:	76 22                	jbe    733b <_ZN12PseudoPRTreeIiLi6EE14get_all_leavesEv+0x64b>
    7319:	0f 1f 80 00 00 00 00 	nopl   0x0(%rax)
    7320:	48 8b 3b             	mov    (%rbx),%rdi
    7323:	be 00 02 00 00       	mov    $0x200,%esi
    7328:	48 83 c3 08          	add    $0x8,%rbx
    732c:	e8 df ad ff ff       	callq  2110 <_ZdlPvm@plt>
    7331:	49 39 dc             	cmp    %rbx,%r12
    7334:	77 ea                	ja     7320 <_ZN12PseudoPRTreeIiLi6EE14get_all_leavesEv+0x630>
    7336:	48 8b 7c 24 60       	mov    0x60(%rsp),%rdi
    733b:	48 8b 44 24 68       	mov    0x68(%rsp),%rax
    7340:	48 8d 34 c5 00 00 00 	lea    0x0(,%rax,8),%rsi
    7347:	00 
    7348:	e8 c3 ad ff ff       	callq  2110 <_ZdlPvm@plt>
    734d:	4c 8b 64 24 38       	mov    0x38(%rsp),%r12
    7352:	4d 85 e4             	test   %r12,%r12
    7355:	74 26                	je     737d <_ZN12PseudoPRTreeIiLi6EE14get_all_leavesEv+0x68d>
    7357:	4c 8b 3d 6a bc 00 00 	mov    0xbc6a(%rip),%r15        # 12fc8 <__pthread_key_create>
    735e:	4d 85 ff             	test   %r15,%r15
    7361:	0f 85 a1 03 00 00    	jne    7708 <_ZN12PseudoPRTreeIiLi6EE14get_all_leavesEv+0xa18>
    7367:	41 8b 44 24 08       	mov    0x8(%r12),%eax
    736c:	8d 50 ff             	lea    -0x1(%rax),%edx
    736f:	41 89 54 24 08       	mov    %edx,0x8(%r12)
    7374:	83 f8 01             	cmp    $0x1,%eax
    7377:	0f 84 a0 03 00 00    	je     771d <_ZN12PseudoPRTreeIiLi6EE14get_all_leavesEv+0xa2d>
    737d:	48 8b 84 24 b8 00 00 	mov    0xb8(%rsp),%rax
    7384:	00 
    7385:	64 48 2b 04 25 28 00 	sub    %fs:0x28,%rax
    738c:	00 00 
    738e:	0f 85 0a 04 00 00    	jne    779e <_ZN12PseudoPRTreeIiLi6EE14get_all_leavesEv+0xaae>
    7394:	48 8d 65 d8          	lea    -0x28(%rbp),%rsp
    7398:	4c 89 f0             	mov    %r14,%rax
    739b:	5b                   	pop    %rbx
    739c:	41 5c                	pop    %r12
    739e:	41 5d                	pop    %r13
    73a0:	41 5e                	pop    %r14
    73a2:	41 5f                	pop    %r15
    73a4:	5d                   	pop    %rbp
    73a5:	c3                   	retq   
    73a6:	66 2e 0f 1f 84 00 00 	nopw   %cs:0x0(%rax,%rax,1)
    73ad:	00 00 00 
    73b0:	48 89 da             	mov    %rbx,%rdx
    73b3:	4c 89 ee             	mov    %r13,%rsi
    73b6:	4c 89 f7             	mov    %r14,%rdi
    73b9:	e8 f2 f5 ff ff       	callq  69b0 <_ZNSt6vectorI4LeafIiLi6EESaIS1_EE17_M_realloc_insertIJRS1_EEEvN9__gnu_cxx17__normal_iteratorIPS1_S3_EEDpOT_>
    73be:	e9 20 fc ff ff       	jmpq   6fe3 <_ZN12PseudoPRTreeIiLi6EE14get_all_leavesEv+0x2f3>
    73c3:	49 8b 07             	mov    (%r15),%rax
    73c6:	4c 89 ff             	mov    %r15,%rdi
    73c9:	ff 50 10             	callq  *0x10(%rax)
    73cc:	f0 41 ff 4f 0c       	lock decl 0xc(%r15)
    73d1:	0f 84 89 03 00 00    	je     7760 <_ZN12PseudoPRTreeIiLi6EE14get_all_leavesEv+0xa70>
    73d7:	49 83 c4 10          	add    $0x10,%r12
    73db:	4c 39 64 24 08       	cmp    %r12,0x8(%rsp)
    73e0:	0f 84 7c fe ff ff    	je     7262 <_ZN12PseudoPRTreeIiLi6EE14get_all_leavesEv+0x572>
    73e6:	4d 8b 7c 24 08       	mov    0x8(%r12),%r15
    73eb:	4d 85 ff             	test   %r15,%r15
    73ee:	74 e7                	je     73d7 <_ZN12PseudoPRTreeIiLi6EE14get_all_leavesEv+0x6e7>
    73f0:	f0 41 ff 4f 08       	lock decl 0x8(%r15)
    73f5:	75 e0                	jne    73d7 <_ZN12PseudoPRTreeIiLi6EE14get_all_leavesEv+0x6e7>
    73f7:	eb ca                	jmp    73c3 <_ZN12PseudoPRTreeIiLi6EE14get_all_leavesEv+0x6d3>
    73f9:	0f 1f 80 00 00 00 00 	nopl   0x0(%rax)
    7400:	4c 89 ef             	mov    %r13,%rdi
    7403:	45 31 e4             	xor    %r12d,%r12d
    7406:	31 f6                	xor    %esi,%esi
    7408:	e9 48 fb ff ff       	jmpq   6f55 <_ZN12PseudoPRTreeIiLi6EE14get_all_leavesEv+0x265>
    740d:	0f 1f 00             	nopl   (%rax)
    7410:	49 8d 95 00 02 00 00 	lea    0x200(%r13),%rdx
    7417:	eb 14                	jmp    742d <_ZN12PseudoPRTreeIiLi6EE14get_all_leavesEv+0x73d>
    7419:	0f 1f 80 00 00 00 00 	nopl   0x0(%rax)
    7420:	49 83 c5 10          	add    $0x10,%r13
    7424:	49 39 d5             	cmp    %rdx,%r13
    7427:	0f 84 a3 fd ff ff    	je     71d0 <_ZN12PseudoPRTreeIiLi6EE14get_all_leavesEv+0x4e0>
    742d:	49 8b 7d 08          	mov    0x8(%r13),%rdi
    7431:	48 85 ff             	test   %rdi,%rdi
    7434:	74 ea                	je     7420 <_ZN12PseudoPRTreeIiLi6EE14get_all_leavesEv+0x730>
    7436:	f0 ff 4f 08          	lock decl 0x8(%rdi)
    743a:	75 e4                	jne    7420 <_ZN12PseudoPRTreeIiLi6EE14get_all_leavesEv+0x730>
    743c:	48 8b 37             	mov    (%rdi),%rsi
    743f:	48 89 7c 24 20       	mov    %rdi,0x20(%rsp)
    7444:	48 89 54 24 18       	mov    %rdx,0x18(%rsp)
    7449:	ff 56 10             	callq  *0x10(%rsi)
    744c:	48 8b 7c 24 20       	mov    0x20(%rsp),%rdi
    7451:	be ff ff ff ff       	mov    $0xffffffff,%esi
    7456:	f0 0f c1 77 0c       	lock xadd %esi,0xc(%rdi)
    745b:	48 8b 54 24 18       	mov    0x18(%rsp),%rdx
    7460:	83 fe 01             	cmp    $0x1,%esi
    7463:	75 bb                	jne    7420 <_ZN12PseudoPRTreeIiLi6EE14get_all_leavesEv+0x730>
    7465:	48 8b 37             	mov    (%rdi),%rsi
    7468:	48 89 54 24 20       	mov    %rdx,0x20(%rsp)
    746d:	ff 56 18             	callq  *0x18(%rsi)
    7470:	48 8b 54 24 20       	mov    0x20(%rsp),%rdx
    7475:	eb a9                	jmp    7420 <_ZN12PseudoPRTreeIiLi6EE14get_all_leavesEv+0x730>
    7477:	49 8b 04 24          	mov    (%r12),%rax
    747b:	4c 89 e7             	mov    %r12,%rdi
    747e:	ff 50 10             	callq  *0x10(%rax)
    7481:	4d 85 ff             	test   %r15,%r15
    7484:	0f 85 02 02 00 00    	jne    768c <_ZN12PseudoPRTreeIiLi6EE14get_all_leavesEv+0x99c>
    748a:	41 8b 44 24 0c       	mov    0xc(%r12),%eax
    748f:	8d 50 ff             	lea    -0x1(%rax),%edx
    7492:	41 89 54 24 0c       	mov    %edx,0xc(%r12)
    7497:	83 f8 01             	cmp    $0x1,%eax
    749a:	0f 85 39 fc ff ff    	jne    70d9 <_ZN12PseudoPRTreeIiLi6EE14get_all_leavesEv+0x3e9>
    74a0:	49 8b 04 24          	mov    (%r12),%rax
    74a4:	4c 89 e7             	mov    %r12,%rdi
    74a7:	ff 50 18             	callq  *0x18(%rax)
    74aa:	e9 2a fc ff ff       	jmpq   70d9 <_ZN12PseudoPRTreeIiLi6EE14get_all_leavesEv+0x3e9>
    74af:	49 8b 04 24          	mov    (%r12),%rax
    74b3:	4c 89 e7             	mov    %r12,%rdi
    74b6:	ff 50 10             	callq  *0x10(%rax)
    74b9:	4d 85 ff             	test   %r15,%r15
    74bc:	0f 85 b9 01 00 00    	jne    767b <_ZN12PseudoPRTreeIiLi6EE14get_all_leavesEv+0x98b>
    74c2:	41 8b 44 24 0c       	mov    0xc(%r12),%eax
    74c7:	8d 50 ff             	lea    -0x1(%rax),%edx
    74ca:	41 89 54 24 0c       	mov    %edx,0xc(%r12)
    74cf:	83 f8 01             	cmp    $0x1,%eax
    74d2:	0f 85 d1 fb ff ff    	jne    70a9 <_ZN12PseudoPRTreeIiLi6EE14get_all_leavesEv+0x3b9>
    74d8:	49 8b 04 24          	mov    (%r12),%rax
    74dc:	4c 89 e7             	mov    %r12,%rdi
    74df:	ff 50 18             	callq  *0x18(%rax)
    74e2:	e9 c2 fb ff ff       	jmpq   70a9 <_ZN12PseudoPRTreeIiLi6EE14get_all_leavesEv+0x3b9>
    74e7:	b8 ff ff ff ff       	mov    $0xffffffff,%eax
    74ec:	f0 41 0f c1 44 24 08 	lock xadd %eax,0x8(%r12)
    74f3:	e9 a8 fb ff ff       	jmpq   70a0 <_ZN12PseudoPRTreeIiLi6EE14get_all_leavesEv+0x3b0>
    74f8:	b8 ff ff ff ff       	mov    $0xffffffff,%eax
    74fd:	f0 41 0f c1 44 24 08 	lock xadd %eax,0x8(%r12)
    7504:	e9 c7 fb ff ff       	jmpq   70d0 <_ZN12PseudoPRTreeIiLi6EE14get_all_leavesEv+0x3e0>
    7509:	4d 85 e4             	test   %r12,%r12
    750c:	74 26                	je     7534 <_ZN12PseudoPRTreeIiLi6EE14get_all_leavesEv+0x844>
    750e:	4c 8b 3d b3 ba 00 00 	mov    0xbab3(%rip),%r15        # 12fc8 <__pthread_key_create>
    7515:	4d 85 ff             	test   %r15,%r15
    7518:	0f 85 d9 01 00 00    	jne    76f7 <_ZN12PseudoPRTreeIiLi6EE14get_all_leavesEv+0xa07>
    751e:	41 8b 44 24 08       	mov    0x8(%r12),%eax
    7523:	8d 50 ff             	lea    -0x1(%rax),%edx
    7526:	41 89 54 24 08       	mov    %edx,0x8(%r12)
    752b:	83 f8 01             	cmp    $0x1,%eax
    752e:	0f 84 8b 01 00 00    	je     76bf <_ZN12PseudoPRTreeIiLi6EE14get_all_leavesEv+0x9cf>
    7534:	48 8b 7c 24 78       	mov    0x78(%rsp),%rdi
    7539:	be 00 02 00 00       	mov    $0x200,%esi
    753e:	e8 cd ab ff ff       	callq  2110 <_ZdlPvm@plt>
    7543:	48 8b 94 24 88 00 00 	mov    0x88(%rsp),%rdx
    754a:	00 
    754b:	48 8b 42 08          	mov    0x8(%rdx),%rax
    754f:	48 83 c2 08          	add    $0x8,%rdx
    7553:	48 8d 88 00 02 00 00 	lea    0x200(%rax),%rcx
    755a:	c4 e1 f9 6e e0       	vmovq  %rax,%xmm4
    755f:	c4 e1 f9 6e c1       	vmovq  %rcx,%xmm0
    7564:	c4 e3 f9 22 ca 01    	vpinsrq $0x1,%rdx,%xmm0,%xmm1
    756a:	c5 d9 6c c4          	vpunpcklqdq %xmm4,%xmm4,%xmm0
    756e:	c4 e3 7d 38 c1 01    	vinserti128 $0x1,%xmm1,%ymm0,%ymm0
    7574:	c5 fe 7f 44 24 70    	vmovdqu %ymm0,0x70(%rsp)
    757a:	c5 f8 77             	vzeroupper 
    757d:	e9 51 f9 ff ff       	jmpq   6ed3 <_ZN12PseudoPRTreeIiLi6EE14get_all_leavesEv+0x1e3>
    7582:	49 8b 04 24          	mov    (%r12),%rax
    7586:	4c 89 e7             	mov    %r12,%rdi
    7589:	ff 50 10             	callq  *0x10(%rax)
    758c:	4d 85 ff             	test   %r15,%r15
    758f:	0f 85 08 01 00 00    	jne    769d <_ZN12PseudoPRTreeIiLi6EE14get_all_leavesEv+0x9ad>
    7595:	41 8b 44 24 0c       	mov    0xc(%r12),%eax
    759a:	8d 50 ff             	lea    -0x1(%rax),%edx
    759d:	41 89 54 24 0c       	mov    %edx,0xc(%r12)
    75a2:	83 f8 01             	cmp    $0x1,%eax
    75a5:	0f 85 1a f9 ff ff    	jne    6ec5 <_ZN12PseudoPRTreeIiLi6EE14get_all_leavesEv+0x1d5>
    75ab:	49 8b 04 24          	mov    (%r12),%rax
    75af:	4c 89 e7             	mov    %r12,%rdi
    75b2:	ff 50 18             	callq  *0x18(%rax)
    75b5:	e9 0b f9 ff ff       	jmpq   6ec5 <_ZN12PseudoPRTreeIiLi6EE14get_all_leavesEv+0x1d5>
    75ba:	b8 ff ff ff ff       	mov    $0xffffffff,%eax
    75bf:	f0 41 0f c1 44 24 08 	lock xadd %eax,0x8(%r12)
    75c6:	e9 f1 f8 ff ff       	jmpq   6ebc <_ZN12PseudoPRTreeIiLi6EE14get_all_leavesEv+0x1cc>
    75cb:	f0 ff 42 08          	lock incl 0x8(%rdx)
    75cf:	48 8b 44 24 30       	mov    0x30(%rsp),%rax
    75d4:	e9 47 fa ff ff       	jmpq   7020 <_ZN12PseudoPRTreeIiLi6EE14get_all_leavesEv+0x330>
    75d9:	f0 ff 42 08          	lock incl 0x8(%rdx)
    75dd:	e9 69 fa ff ff       	jmpq   704b <_ZN12PseudoPRTreeIiLi6EE14get_all_leavesEv+0x35b>
    75e2:	49 8b 04 24          	mov    (%r12),%rax
    75e6:	4c 89 e7             	mov    %r12,%rdi
    75e9:	ff 50 10             	callq  *0x10(%rax)
    75ec:	4d 85 ff             	test   %r15,%r15
    75ef:	0f 85 b9 00 00 00    	jne    76ae <_ZN12PseudoPRTreeIiLi6EE14get_all_leavesEv+0x9be>
    75f5:	41 8b 44 24 0c       	mov    0xc(%r12),%eax
    75fa:	8d 50 ff             	lea    -0x1(%rax),%edx
    75fd:	41 89 54 24 0c       	mov    %edx,0xc(%r12)
    7602:	83 f8 01             	cmp    $0x1,%eax
    7605:	0f 85 6c f8 ff ff    	jne    6e77 <_ZN12PseudoPRTreeIiLi6EE14get_all_leavesEv+0x187>
    760b:	49 8b 04 24          	mov    (%r12),%rax
    760f:	4c 89 e7             	mov    %r12,%rdi
    7612:	ff 50 18             	callq  *0x18(%rax)
    7615:	e9 5d f8 ff ff       	jmpq   6e77 <_ZN12PseudoPRTreeIiLi6EE14get_all_leavesEv+0x187>
    761a:	b8 ff ff ff ff       	mov    $0xffffffff,%eax
    761f:	f0 41 0f c1 44 24 08 	lock xadd %eax,0x8(%r12)
    7626:	e9 43 f8 ff ff       	jmpq   6e6e <_ZN12PseudoPRTreeIiLi6EE14get_all_leavesEv+0x17e>
    762b:	f0 ff 43 08          	lock incl 0x8(%rbx)
    762f:	4c 8b 64 24 38       	mov    0x38(%rsp),%r12
    7634:	e9 13 f8 ff ff       	jmpq   6e4c <_ZN12PseudoPRTreeIiLi6EE14get_all_leavesEv+0x15c>
    7639:	49 8b 04 24          	mov    (%r12),%rax
    763d:	4c 89 e7             	mov    %r12,%rdi
    7640:	ff 50 10             	callq  *0x10(%rax)
    7643:	f0 41 ff 4c 24 0c    	lock decl 0xc(%r12)
    7649:	0f 84 02 01 00 00    	je     7751 <_ZN12PseudoPRTreeIiLi6EE14get_all_leavesEv+0xa61>
    764f:	48 83 44 24 28 10    	addq   $0x10,0x28(%rsp)
    7655:	48 8b 44 24 28       	mov    0x28(%rsp),%rax
    765a:	48 39 d8             	cmp    %rbx,%rax
    765d:	0f 84 93 fc ff ff    	je     72f6 <_ZN12PseudoPRTreeIiLi6EE14get_all_leavesEv+0x606>
    7663:	48 8b 44 24 28       	mov    0x28(%rsp),%rax
    7668:	4c 8b 60 08          	mov    0x8(%rax),%r12
    766c:	4d 85 e4             	test   %r12,%r12
    766f:	74 de                	je     764f <_ZN12PseudoPRTreeIiLi6EE14get_all_leavesEv+0x95f>
    7671:	f0 41 ff 4c 24 08    	lock decl 0x8(%r12)
    7677:	75 d6                	jne    764f <_ZN12PseudoPRTreeIiLi6EE14get_all_leavesEv+0x95f>
    7679:	eb be                	jmp    7639 <_ZN12PseudoPRTreeIiLi6EE14get_all_leavesEv+0x949>
    767b:	b8 ff ff ff ff       	mov    $0xffffffff,%eax
    7680:	f0 41 0f c1 44 24 0c 	lock xadd %eax,0xc(%r12)
    7687:	e9 43 fe ff ff       	jmpq   74cf <_ZN12PseudoPRTreeIiLi6EE14get_all_leavesEv+0x7df>
    768c:	b8 ff ff ff ff       	mov    $0xffffffff,%eax
    7691:	f0 41 0f c1 44 24 0c 	lock xadd %eax,0xc(%r12)
    7698:	e9 fa fd ff ff       	jmpq   7497 <_ZN12PseudoPRTreeIiLi6EE14get_all_leavesEv+0x7a7>
    769d:	b8 ff ff ff ff       	mov    $0xffffffff,%eax
    76a2:	f0 41 0f c1 44 24 0c 	lock xadd %eax,0xc(%r12)
    76a9:	e9 f4 fe ff ff       	jmpq   75a2 <_ZN12PseudoPRTreeIiLi6EE14get_all_leavesEv+0x8b2>
    76ae:	b8 ff ff ff ff       	mov    $0xffffffff,%eax
    76b3:	f0 41 0f c1 44 24 0c 	lock xadd %eax,0xc(%r12)
    76ba:	e9 43 ff ff ff       	jmpq   7602 <_ZN12PseudoPRTreeIiLi6EE14get_all_leavesEv+0x912>
    76bf:	49 8b 04 24          	mov    (%r12),%rax
    76c3:	4c 89 e7             	mov    %r12,%rdi
    76c6:	ff 50 10             	callq  *0x10(%rax)
    76c9:	4d 85 ff             	test   %r15,%r15
    76cc:	0f 85 9c 00 00 00    	jne    776e <_ZN12PseudoPRTreeIiLi6EE14get_all_leavesEv+0xa7e>
    76d2:	41 8b 44 24 0c       	mov    0xc(%r12),%eax
    76d7:	8d 50 ff             	lea    -0x1(%rax),%edx
    76da:	41 89 54 24 0c       	mov    %edx,0xc(%r12)
    76df:	83 f8 01             	cmp    $0x1,%eax
    76e2:	0f 85 4c fe ff ff    	jne    7534 <_ZN12PseudoPRTreeIiLi6EE14get_all_leavesEv+0x844>
    76e8:	49 8b 04 24          	mov    (%r12),%rax
    76ec:	4c 89 e7             	mov    %r12,%rdi
    76ef:	ff 50 18             	callq  *0x18(%rax)
    76f2:	e9 3d fe ff ff       	jmpq   7534 <_ZN12PseudoPRTreeIiLi6EE14get_all_leavesEv+0x844>
    76f7:	b8 ff ff ff ff       	mov    $0xffffffff,%eax
    76fc:	f0 41 0f c1 44 24 08 	lock xadd %eax,0x8(%r12)
    7703:	e9 23 fe ff ff       	jmpq   752b <_ZN12PseudoPRTreeIiLi6EE14get_all_leavesEv+0x83b>
    7708:	b8 ff ff ff ff       	mov    $0xffffffff,%eax
    770d:	f0 41 0f c1 44 24 08 	lock xadd %eax,0x8(%r12)
    7714:	83 f8 01             	cmp    $0x1,%eax
    7717:	0f 85 60 fc ff ff    	jne    737d <_ZN12PseudoPRTreeIiLi6EE14get_all_leavesEv+0x68d>
    771d:	49 8b 04 24          	mov    (%r12),%rax
    7721:	4c 89 e7             	mov    %r12,%rdi
    7724:	ff 50 10             	callq  *0x10(%rax)
    7727:	4d 85 ff             	test   %r15,%r15
    772a:	75 64                	jne    7790 <_ZN12PseudoPRTreeIiLi6EE14get_all_leavesEv+0xaa0>
    772c:	41 8b 44 24 0c       	mov    0xc(%r12),%eax
    7731:	8d 50 ff             	lea    -0x1(%rax),%edx
    7734:	41 89 54 24 0c       	mov    %edx,0xc(%r12)
    7739:	83 f8 01             	cmp    $0x1,%eax
    773c:	0f 85 3b fc ff ff    	jne    737d <_ZN12PseudoPRTreeIiLi6EE14get_all_leavesEv+0x68d>
    7742:	49 8b 04 24          	mov    (%r12),%rax
    7746:	4c 89 e7             	mov    %r12,%rdi
    7749:	ff 50 18             	callq  *0x18(%rax)
    774c:	e9 2c fc ff ff       	jmpq   737d <_ZN12PseudoPRTreeIiLi6EE14get_all_leavesEv+0x68d>
    7751:	49 8b 04 24          	mov    (%r12),%rax
    7755:	4c 89 e7             	mov    %r12,%rdi
    7758:	ff 50 18             	callq  *0x18(%rax)
    775b:	e9 ef fe ff ff       	jmpq   764f <_ZN12PseudoPRTreeIiLi6EE14get_all_leavesEv+0x95f>
    7760:	49 8b 07             	mov    (%r15),%rax
    7763:	4c 89 ff             	mov    %r15,%rdi
    7766:	ff 50 18             	callq  *0x18(%rax)
    7769:	e9 69 fc ff ff       	jmpq   73d7 <_ZN12PseudoPRTreeIiLi6EE14get_all_leavesEv+0x6e7>
    776e:	b8 ff ff ff ff       	mov    $0xffffffff,%eax
    7773:	f0 41 0f c1 44 24 0c 	lock xadd %eax,0xc(%r12)
    777a:	e9 60 ff ff ff       	jmpq   76df <_ZN12PseudoPRTreeIiLi6EE14get_all_leavesEv+0x9ef>
    777f:	f0 ff 40 08          	lock incl 0x8(%rax)
    7783:	e9 ca f5 ff ff       	jmpq   6d52 <_ZN12PseudoPRTreeIiLi6EE14get_all_leavesEv+0x62>
    7788:	48 89 c3             	mov    %rax,%rbx
    778b:	e9 5f f9 ff ff       	jmpq   70ef <_ZN12PseudoPRTreeIiLi6EE14get_all_leavesEv+0x3ff>
    7790:	b8 ff ff ff ff       	mov    $0xffffffff,%eax
    7795:	f0 41 0f c1 44 24 0c 	lock xadd %eax,0xc(%r12)
    779c:	eb 9b                	jmp    7739 <_ZN12PseudoPRTreeIiLi6EE14get_all_leavesEv+0xa49>
    779e:	e8 7d a9 ff ff       	callq  2120 <__stack_chk_fail@plt>
    77a3:	66 66 2e 0f 1f 84 00 	data16 nopw %cs:0x0(%rax,%rax,1)
    77aa:	00 00 00 00 
    77ae:	66 90                	xchg   %ax,%ax
    77b0:	e8 9b a8 ff ff       	callq  2050 <_ZSt17__throw_bad_allocv@plt>
    77b5:	49 89 c4             	mov    %rax,%r12
    77b8:	eb 05                	jmp    77bf <_ZN12PseudoPRTreeIiLi6EE14get_all_leavesEv+0xacf>
    77ba:	49 89 c4             	mov    %rax,%r12
    77bd:	eb 31                	jmp    77f0 <_ZN12PseudoPRTreeIiLi6EE14get_all_leavesEv+0xb00>
    77bf:	48 8b 7c 24 58       	mov    0x58(%rsp),%rdi
    77c4:	48 85 ff             	test   %rdi,%rdi
    77c7:	74 08                	je     77d1 <_ZN12PseudoPRTreeIiLi6EE14get_all_leavesEv+0xae1>
    77c9:	c5 f8 77             	vzeroupper 
    77cc:	e8 8f e0 ff ff       	callq  5860 <_ZNSt16_Sp_counted_baseILN9__gnu_cxx12_Lock_policyE2EE10_M_releaseEv>
    77d1:	48 8b 7c 24 48       	mov    0x48(%rsp),%rdi
    77d6:	48 85 ff             	test   %rdi,%rdi
    77d9:	74 08                	je     77e3 <_ZN12PseudoPRTreeIiLi6EE14get_all_leavesEv+0xaf3>
    77db:	c5 f8 77             	vzeroupper 
    77de:	e8 7d e0 ff ff       	callq  5860 <_ZNSt16_Sp_counted_baseILN9__gnu_cxx12_Lock_policyE2EE10_M_releaseEv>
    77e3:	48 8b 7c 24 28       	mov    0x28(%rsp),%rdi
    77e8:	c5 f8 77             	vzeroupper 
    77eb:	e8 80 dc ff ff       	callq  5470 <_ZNSt5dequeISt10shared_ptrI16PseudoPRTreeNodeIiLi6EEESaIS3_EED1Ev>
    77f0:	48 8b 7c 24 38       	mov    0x38(%rsp),%rdi
    77f5:	48 85 ff             	test   %rdi,%rdi
    77f8:	74 22                	je     781c <_ZN12PseudoPRTreeIiLi6EE14get_all_leavesEv+0xb2c>
    77fa:	c5 f8 77             	vzeroupper 
    77fd:	e8 5e e0 ff ff       	callq  5860 <_ZNSt16_Sp_counted_baseILN9__gnu_cxx12_Lock_policyE2EE10_M_releaseEv>
    7802:	4c 89 f7             	mov    %r14,%rdi
    7805:	e8 a6 c9 ff ff       	callq  41b0 <_ZNSt6vectorI4LeafIiLi6EESaIS1_EED1Ev>
    780a:	4c 89 e7             	mov    %r12,%rdi
    780d:	e8 de a9 ff ff       	callq  21f0 <_Unwind_Resume@plt>
    7812:	49 89 c4             	mov    %rax,%r12
    7815:	eb cc                	jmp    77e3 <_ZN12PseudoPRTreeIiLi6EE14get_all_leavesEv+0xaf3>
    7817:	48 89 c7             	mov    %rax,%rdi
    781a:	eb 05                	jmp    7821 <_ZN12PseudoPRTreeIiLi6EE14get_all_leavesEv+0xb31>
    781c:	c5 f8 77             	vzeroupper 
    781f:	eb e1                	jmp    7802 <_ZN12PseudoPRTreeIiLi6EE14get_all_leavesEv+0xb12>
    7821:	c5 f8 77             	vzeroupper 
    7824:	e8 47 a8 ff ff       	callq  2070 <__cxa_begin_catch@plt>
    7829:	e8 52 a9 ff ff       	callq  2180 <__cxa_rethrow@plt>
    782e:	49 89 c4             	mov    %rax,%r12
    7831:	c5 f8 77             	vzeroupper 
    7834:	e8 87 a9 ff ff       	callq  21c0 <__cxa_end_catch@plt>
    7839:	4c 89 e7             	mov    %r12,%rdi
    783c:	e8 2f a8 ff ff       	callq  2070 <__cxa_begin_catch@plt>
    7841:	48 8b 44 24 68       	mov    0x68(%rsp),%rax
    7846:	48 8b 7c 24 60       	mov    0x60(%rsp),%rdi
    784b:	48 8d 34 c5 00 00 00 	lea    0x0(,%rax,8),%rsi
    7852:	00 
    7853:	e8 b8 a8 ff ff       	callq  2110 <_ZdlPvm@plt>
    7858:	48 c7 44 24 60 00 00 	movq   $0x0,0x60(%rsp)
    785f:	00 00 
    7861:	48 c7 44 24 68 00 00 	movq   $0x0,0x68(%rsp)
    7868:	00 00 
    786a:	e8 11 a9 ff ff       	callq  2180 <__cxa_rethrow@plt>
    786f:	49 89 c4             	mov    %rax,%r12
    7872:	c5 f8 77             	vzeroupper 
    7875:	e8 46 a9 ff ff       	callq  21c0 <__cxa_end_catch@plt>
    787a:	e9 71 ff ff ff       	jmpq   77f0 <_ZN12PseudoPRTreeIiLi6EE14get_all_leavesEv+0xb00>
    787f:	90                   	nop

0000000000007880 <_ZNSt6vectorISt10unique_ptrI10PRTreeNodeIdLi6EESt14default_deleteIS2_EESaIS5_EE17_M_realloc_insertIJS5_EEEvN9__gnu_cxx17__normal_iteratorIPS5_S7_EEDpOT_>:
    7880:	55                   	push   %rbp
    7881:	48 89 d1             	mov    %rdx,%rcx
    7884:	48 89 e5             	mov    %rsp,%rbp
    7887:	41 57                	push   %r15
    7889:	41 56                	push   %r14
    788b:	41 55                	push   %r13
    788d:	41 54                	push   %r12
    788f:	53                   	push   %rbx
    7890:	48 bb ff ff ff ff ff 	movabs $0xfffffffffffffff,%rbx
    7897:	ff ff 0f 
    789a:	48 83 e4 e0          	and    $0xffffffffffffffe0,%rsp
    789e:	48 83 ec 20          	sub    $0x20,%rsp
    78a2:	48 8b 57 08          	mov    0x8(%rdi),%rdx
    78a6:	4c 8b 27             	mov    (%rdi),%r12
    78a9:	48 89 d0             	mov    %rdx,%rax
    78ac:	4c 29 e0             	sub    %r12,%rax
    78af:	48 c1 f8 03          	sar    $0x3,%rax
    78b3:	48 39 d8             	cmp    %rbx,%rax
    78b6:	0f 84 0d 02 00 00    	je     7ac9 <_ZNSt6vectorISt10unique_ptrI10PRTreeNodeIdLi6EESt14default_deleteIS2_EESaIS5_EE17_M_realloc_insertIJS5_EEEvN9__gnu_cxx17__normal_iteratorIPS5_S7_EEDpOT_+0x249>
    78bc:	48 85 c0             	test   %rax,%rax
    78bf:	49 89 f7             	mov    %rsi,%r15
    78c2:	be 01 00 00 00       	mov    $0x1,%esi
    78c7:	49 89 fe             	mov    %rdi,%r14
    78ca:	48 0f 45 f0          	cmovne %rax,%rsi
    78ce:	31 ff                	xor    %edi,%edi
    78d0:	48 01 f0             	add    %rsi,%rax
    78d3:	4c 89 fe             	mov    %r15,%rsi
    78d6:	40 0f 92 c7          	setb   %dil
    78da:	4c 29 e6             	sub    %r12,%rsi
    78dd:	48 85 ff             	test   %rdi,%rdi
    78e0:	0f 85 9a 01 00 00    	jne    7a80 <_ZNSt6vectorISt10unique_ptrI10PRTreeNodeIdLi6EESt14default_deleteIS2_EESaIS5_EE17_M_realloc_insertIJS5_EEEvN9__gnu_cxx17__normal_iteratorIPS5_S7_EEDpOT_+0x200>
    78e6:	48 85 c0             	test   %rax,%rax
    78e9:	0f 85 41 01 00 00    	jne    7a30 <_ZNSt6vectorISt10unique_ptrI10PRTreeNodeIdLi6EESt14default_deleteIS2_EESaIS5_EE17_M_realloc_insertIJS5_EEEvN9__gnu_cxx17__normal_iteratorIPS5_S7_EEDpOT_+0x1b0>
    78ef:	bb 08 00 00 00       	mov    $0x8,%ebx
    78f4:	48 c7 44 24 18 00 00 	movq   $0x0,0x18(%rsp)
    78fb:	00 00 
    78fd:	45 31 ed             	xor    %r13d,%r13d
    7900:	48 8b 01             	mov    (%rcx),%rax
    7903:	48 c7 01 00 00 00 00 	movq   $0x0,(%rcx)
    790a:	49 89 44 35 00       	mov    %rax,0x0(%r13,%rsi,1)
    790f:	4d 39 e7             	cmp    %r12,%r15
    7912:	0f 84 bb 00 00 00    	je     79d3 <_ZNSt6vectorISt10unique_ptrI10PRTreeNodeIdLi6EESt14default_deleteIS2_EESaIS5_EE17_M_realloc_insertIJS5_EEEvN9__gnu_cxx17__normal_iteratorIPS5_S7_EEDpOT_+0x153>
    7918:	49 8d 74 24 08       	lea    0x8(%r12),%rsi
    791d:	4c 89 e8             	mov    %r13,%rax
    7920:	49 8d 4f f8          	lea    -0x8(%r15),%rcx
    7924:	48 29 f0             	sub    %rsi,%rax
    7927:	4c 29 e1             	sub    %r12,%rcx
    792a:	48 83 f8 10          	cmp    $0x10,%rax
    792e:	0f 86 6c 01 00 00    	jbe    7aa0 <_ZNSt6vectorISt10unique_ptrI10PRTreeNodeIdLi6EESt14default_deleteIS2_EESaIS5_EE17_M_realloc_insertIJS5_EEEvN9__gnu_cxx17__normal_iteratorIPS5_S7_EEDpOT_+0x220>
    7934:	48 83 f9 18          	cmp    $0x18,%rcx
    7938:	0f 86 62 01 00 00    	jbe    7aa0 <_ZNSt6vectorISt10unique_ptrI10PRTreeNodeIdLi6EESt14default_deleteIS2_EESaIS5_EE17_M_realloc_insertIJS5_EEEvN9__gnu_cxx17__normal_iteratorIPS5_S7_EEDpOT_+0x220>
    793e:	48 c1 e9 03          	shr    $0x3,%rcx
    7942:	31 c0                	xor    %eax,%eax
    7944:	48 ff c1             	inc    %rcx
    7947:	48 89 ce             	mov    %rcx,%rsi
    794a:	48 c1 ee 02          	shr    $0x2,%rsi
    794e:	48 c1 e6 05          	shl    $0x5,%rsi
    7952:	66 66 2e 0f 1f 84 00 	data16 nopw %cs:0x0(%rax,%rax,1)
    7959:	00 00 00 00 
    795d:	0f 1f 00             	nopl   (%rax)
    7960:	c4 c1 7e 6f 0c 04    	vmovdqu (%r12,%rax,1),%ymm1
    7966:	c4 c1 7e 7f 4c 05 00 	vmovdqu %ymm1,0x0(%r13,%rax,1)
    796d:	48 83 c0 20          	add    $0x20,%rax
    7971:	48 39 f0             	cmp    %rsi,%rax
    7974:	75 ea                	jne    7960 <_ZNSt6vectorISt10unique_ptrI10PRTreeNodeIdLi6EESt14default_deleteIS2_EESaIS5_EE17_M_realloc_insertIJS5_EEEvN9__gnu_cxx17__normal_iteratorIPS5_S7_EEDpOT_+0xe0>
    7976:	48 89 ce             	mov    %rcx,%rsi
    7979:	48 83 e6 fc          	and    $0xfffffffffffffffc,%rsi
    797d:	48 8d 04 f5 00 00 00 	lea    0x0(,%rsi,8),%rax
    7984:	00 
    7985:	49 8d 3c 04          	lea    (%r12,%rax,1),%rdi
    7989:	4c 01 e8             	add    %r13,%rax
    798c:	48 39 f1             	cmp    %rsi,%rcx
    798f:	0f 84 fb 00 00 00    	je     7a90 <_ZNSt6vectorISt10unique_ptrI10PRTreeNodeIdLi6EESt14default_deleteIS2_EESaIS5_EE17_M_realloc_insertIJS5_EEEvN9__gnu_cxx17__normal_iteratorIPS5_S7_EEDpOT_+0x210>
    7995:	48 8b 0f             	mov    (%rdi),%rcx
    7998:	48 89 08             	mov    %rcx,(%rax)
    799b:	48 8d 4f 08          	lea    0x8(%rdi),%rcx
    799f:	49 39 cf             	cmp    %rcx,%r15
    79a2:	0f 84 e8 00 00 00    	je     7a90 <_ZNSt6vectorISt10unique_ptrI10PRTreeNodeIdLi6EESt14default_deleteIS2_EESaIS5_EE17_M_realloc_insertIJS5_EEEvN9__gnu_cxx17__normal_iteratorIPS5_S7_EEDpOT_+0x210>
    79a8:	48 8b 4f 08          	mov    0x8(%rdi),%rcx
    79ac:	48 89 48 08          	mov    %rcx,0x8(%rax)
    79b0:	48 8d 4f 10          	lea    0x10(%rdi),%rcx
    79b4:	49 39 cf             	cmp    %rcx,%r15
    79b7:	0f 84 d3 00 00 00    	je     7a90 <_ZNSt6vectorISt10unique_ptrI10PRTreeNodeIdLi6EESt14default_deleteIS2_EESaIS5_EE17_M_realloc_insertIJS5_EEEvN9__gnu_cxx17__normal_iteratorIPS5_S7_EEDpOT_+0x210>
    79bd:	48 8b 4f 10          	mov    0x10(%rdi),%rcx
    79c1:	48 89 48 10          	mov    %rcx,0x10(%rax)
    79c5:	c5 f8 77             	vzeroupper 
    79c8:	4c 89 f8             	mov    %r15,%rax
    79cb:	4c 29 e0             	sub    %r12,%rax
    79ce:	49 8d 5c 05 08       	lea    0x8(%r13,%rax,1),%rbx
    79d3:	49 39 d7             	cmp    %rdx,%r15
    79d6:	74 1b                	je     79f3 <_ZNSt6vectorISt10unique_ptrI10PRTreeNodeIdLi6EESt14default_deleteIS2_EESaIS5_EE17_M_realloc_insertIJS5_EEEvN9__gnu_cxx17__normal_iteratorIPS5_S7_EEDpOT_+0x173>
    79d8:	4c 29 fa             	sub    %r15,%rdx
    79db:	48 89 df             	mov    %rbx,%rdi
    79de:	4c 89 fe             	mov    %r15,%rsi
    79e1:	48 89 54 24 10       	mov    %rdx,0x10(%rsp)
    79e6:	e8 d5 a6 ff ff       	callq  20c0 <memcpy@plt>
    79eb:	48 8b 54 24 10       	mov    0x10(%rsp),%rdx
    79f0:	48 01 d3             	add    %rdx,%rbx
    79f3:	4d 85 e4             	test   %r12,%r12
    79f6:	74 0f                	je     7a07 <_ZNSt6vectorISt10unique_ptrI10PRTreeNodeIdLi6EESt14default_deleteIS2_EESaIS5_EE17_M_realloc_insertIJS5_EEEvN9__gnu_cxx17__normal_iteratorIPS5_S7_EEDpOT_+0x187>
    79f8:	49 8b 76 10          	mov    0x10(%r14),%rsi
    79fc:	4c 89 e7             	mov    %r12,%rdi
    79ff:	4c 29 e6             	sub    %r12,%rsi
    7a02:	e8 09 a7 ff ff       	callq  2110 <_ZdlPvm@plt>
    7a07:	48 8b 44 24 18       	mov    0x18(%rsp),%rax
    7a0c:	c4 c1 f9 6e d5       	vmovq  %r13,%xmm2
    7a11:	c4 e3 e9 22 c3 01    	vpinsrq $0x1,%rbx,%xmm2,%xmm0
    7a17:	c4 c1 7a 7f 06       	vmovdqu %xmm0,(%r14)
    7a1c:	49 89 46 10          	mov    %rax,0x10(%r14)
    7a20:	48 8d 65 d8          	lea    -0x28(%rbp),%rsp
    7a24:	5b                   	pop    %rbx
    7a25:	41 5c                	pop    %r12
    7a27:	41 5d                	pop    %r13
    7a29:	41 5e                	pop    %r14
    7a2b:	41 5f                	pop    %r15
    7a2d:	5d                   	pop    %rbp
    7a2e:	c3                   	retq   
    7a2f:	90                   	nop
    7a30:	48 39 d8             	cmp    %rbx,%rax
    7a33:	48 0f 47 c3          	cmova  %rbx,%rax
    7a37:	48 8d 1c c5 00 00 00 	lea    0x0(,%rax,8),%rbx
    7a3e:	00 
    7a3f:	48 89 df             	mov    %rbx,%rdi
    7a42:	48 89 0c 24          	mov    %rcx,(%rsp)
    7a46:	48 89 74 24 08       	mov    %rsi,0x8(%rsp)
    7a4b:	48 89 54 24 10       	mov    %rdx,0x10(%rsp)
    7a50:	e8 ab a6 ff ff       	callq  2100 <_Znwm@plt>
    7a55:	48 8b 54 24 10       	mov    0x10(%rsp),%rdx
    7a5a:	49 89 c5             	mov    %rax,%r13
    7a5d:	48 01 d8             	add    %rbx,%rax
    7a60:	48 8b 74 24 08       	mov    0x8(%rsp),%rsi
    7a65:	48 8b 0c 24          	mov    (%rsp),%rcx
    7a69:	48 89 44 24 18       	mov    %rax,0x18(%rsp)
    7a6e:	49 8d 5d 08          	lea    0x8(%r13),%rbx
    7a72:	e9 89 fe ff ff       	jmpq   7900 <_ZNSt6vectorISt10unique_ptrI10PRTreeNodeIdLi6EESt14default_deleteIS2_EESaIS5_EE17_M_realloc_insertIJS5_EEEvN9__gnu_cxx17__normal_iteratorIPS5_S7_EEDpOT_+0x80>
    7a77:	66 0f 1f 84 00 00 00 	nopw   0x0(%rax,%rax,1)
    7a7e:	00 00 
    7a80:	48 bb f8 ff ff ff ff 	movabs $0x7ffffffffffffff8,%rbx
    7a87:	ff ff 7f 
    7a8a:	eb b3                	jmp    7a3f <_ZNSt6vectorISt10unique_ptrI10PRTreeNodeIdLi6EESt14default_deleteIS2_EESaIS5_EE17_M_realloc_insertIJS5_EEEvN9__gnu_cxx17__normal_iteratorIPS5_S7_EEDpOT_+0x1bf>
    7a8c:	0f 1f 40 00          	nopl   0x0(%rax)
    7a90:	c5 f8 77             	vzeroupper 
    7a93:	e9 30 ff ff ff       	jmpq   79c8 <_ZNSt6vectorISt10unique_ptrI10PRTreeNodeIdLi6EESt14default_deleteIS2_EESaIS5_EE17_M_realloc_insertIJS5_EEEvN9__gnu_cxx17__normal_iteratorIPS5_S7_EEDpOT_+0x148>
    7a98:	0f 1f 84 00 00 00 00 	nopl   0x0(%rax,%rax,1)
    7a9f:	00 
    7aa0:	4c 89 e9             	mov    %r13,%rcx
    7aa3:	4c 89 e0             	mov    %r12,%rax
    7aa6:	66 2e 0f 1f 84 00 00 	nopw   %cs:0x0(%rax,%rax,1)
    7aad:	00 00 00 
    7ab0:	48 8b 30             	mov    (%rax),%rsi
    7ab3:	48 83 c0 08          	add    $0x8,%rax
    7ab7:	48 83 c1 08          	add    $0x8,%rcx
    7abb:	48 89 71 f8          	mov    %rsi,-0x8(%rcx)
    7abf:	4c 39 f8             	cmp    %r15,%rax
    7ac2:	75 ec                	jne    7ab0 <_ZNSt6vectorISt10unique_ptrI10PRTreeNodeIdLi6EESt14default_deleteIS2_EESaIS5_EE17_M_realloc_insertIJS5_EEEvN9__gnu_cxx17__normal_iteratorIPS5_S7_EEDpOT_+0x230>
    7ac4:	e9 ff fe ff ff       	jmpq   79c8 <_ZNSt6vectorISt10unique_ptrI10PRTreeNodeIdLi6EESt14default_deleteIS2_EESaIS5_EE17_M_realloc_insertIJS5_EEEvN9__gnu_cxx17__normal_iteratorIPS5_S7_EEDpOT_+0x148>
    7ac9:	48 8d 3d 68 85 00 00 	lea    0x8568(%rip),%rdi        # 10038 <_IO_stdin_used+0x38>
    7ad0:	e8 bb a5 ff ff       	callq  2090 <_ZSt20__throw_length_errorPKc@plt>
    7ad5:	66 2e 0f 1f 84 00 00 	nopw   %cs:0x0(%rax,%rax,1)
    7adc:	00 00 00 
    7adf:	90                   	nop

0000000000007ae0 <_ZNSt6vectorIdSaIdEE17_M_realloc_insertIJRKdEEEvN9__gnu_cxx17__normal_iteratorIPdS1_EEDpOT_>:
    7ae0:	41 57                	push   %r15
    7ae2:	41 56                	push   %r14
    7ae4:	41 55                	push   %r13
    7ae6:	41 54                	push   %r12
    7ae8:	55                   	push   %rbp
    7ae9:	53                   	push   %rbx
    7aea:	48 bb ff ff ff ff ff 	movabs $0xfffffffffffffff,%rbx
    7af1:	ff ff 0f 
    7af4:	48 83 ec 18          	sub    $0x18,%rsp
    7af8:	4c 8b 77 08          	mov    0x8(%rdi),%r14
    7afc:	4c 8b 2f             	mov    (%rdi),%r13
    7aff:	4c 89 f0             	mov    %r14,%rax
    7b02:	4c 29 e8             	sub    %r13,%rax
    7b05:	48 c1 f8 03          	sar    $0x3,%rax
    7b09:	48 39 d8             	cmp    %rbx,%rax
    7b0c:	0f 84 2d 01 00 00    	je     7c3f <_ZNSt6vectorIdSaIdEE17_M_realloc_insertIJRKdEEEvN9__gnu_cxx17__normal_iteratorIPdS1_EEDpOT_+0x15f>
    7b12:	48 85 c0             	test   %rax,%rax
    7b15:	49 89 d7             	mov    %rdx,%r15
    7b18:	ba 01 00 00 00       	mov    $0x1,%edx
    7b1d:	48 89 fd             	mov    %rdi,%rbp
    7b20:	48 0f 45 d0          	cmovne %rax,%rdx
    7b24:	31 c9                	xor    %ecx,%ecx
    7b26:	49 89 f4             	mov    %rsi,%r12
    7b29:	48 01 d0             	add    %rdx,%rax
    7b2c:	48 89 f2             	mov    %rsi,%rdx
    7b2f:	0f 92 c1             	setb   %cl
    7b32:	4c 29 ea             	sub    %r13,%rdx
    7b35:	48 85 c9             	test   %rcx,%rcx
    7b38:	0f 85 f2 00 00 00    	jne    7c30 <_ZNSt6vectorIdSaIdEE17_M_realloc_insertIJRKdEEEvN9__gnu_cxx17__normal_iteratorIPdS1_EEDpOT_+0x150>
    7b3e:	48 85 c0             	test   %rax,%rax
    7b41:	75 5d                	jne    7ba0 <_ZNSt6vectorIdSaIdEE17_M_realloc_insertIJRKdEEEvN9__gnu_cxx17__normal_iteratorIPdS1_EEDpOT_+0xc0>
    7b43:	31 db                	xor    %ebx,%ebx
    7b45:	c4 c1 7b 10 07       	vmovsd (%r15),%xmm0
    7b4a:	4d 89 f0             	mov    %r14,%r8
    7b4d:	4c 8d 4c 11 08       	lea    0x8(%rcx,%rdx,1),%r9
    7b52:	4c 8b 7d 10          	mov    0x10(%rbp),%r15
    7b56:	4d 29 e0             	sub    %r12,%r8
    7b59:	4f 8d 34 01          	lea    (%r9,%r8,1),%r14
    7b5d:	c5 fb 11 04 11       	vmovsd %xmm0,(%rcx,%rdx,1)
    7b62:	48 85 d2             	test   %rdx,%rdx
    7b65:	7f 69                	jg     7bd0 <_ZNSt6vectorIdSaIdEE17_M_realloc_insertIJRKdEEEvN9__gnu_cxx17__normal_iteratorIPdS1_EEDpOT_+0xf0>
    7b67:	4d 85 c0             	test   %r8,%r8
    7b6a:	0f 8f a0 00 00 00    	jg     7c10 <_ZNSt6vectorIdSaIdEE17_M_realloc_insertIJRKdEEEvN9__gnu_cxx17__normal_iteratorIPdS1_EEDpOT_+0x130>
    7b70:	4d 85 ed             	test   %r13,%r13
    7b73:	0f 85 7c 00 00 00    	jne    7bf5 <_ZNSt6vectorIdSaIdEE17_M_realloc_insertIJRKdEEEvN9__gnu_cxx17__normal_iteratorIPdS1_EEDpOT_+0x115>
    7b79:	c4 e1 f9 6e c9       	vmovq  %rcx,%xmm1
    7b7e:	48 89 5d 10          	mov    %rbx,0x10(%rbp)
    7b82:	c4 c3 f1 22 c6 01    	vpinsrq $0x1,%r14,%xmm1,%xmm0
    7b88:	c5 fa 7f 45 00       	vmovdqu %xmm0,0x0(%rbp)
    7b8d:	48 83 c4 18          	add    $0x18,%rsp
    7b91:	5b                   	pop    %rbx
    7b92:	5d                   	pop    %rbp
    7b93:	41 5c                	pop    %r12
    7b95:	41 5d                	pop    %r13
    7b97:	41 5e                	pop    %r14
    7b99:	41 5f                	pop    %r15
    7b9b:	c3                   	retq   
    7b9c:	0f 1f 40 00          	nopl   0x0(%rax)
    7ba0:	48 39 d8             	cmp    %rbx,%rax
    7ba3:	48 0f 47 c3          	cmova  %rbx,%rax
    7ba7:	48 8d 1c c5 00 00 00 	lea    0x0(,%rax,8),%rbx
    7bae:	00 
    7baf:	48 89 df             	mov    %rbx,%rdi
    7bb2:	48 89 14 24          	mov    %rdx,(%rsp)
    7bb6:	e8 45 a5 ff ff       	callq  2100 <_Znwm@plt>
    7bbb:	48 89 c1             	mov    %rax,%rcx
    7bbe:	48 8b 14 24          	mov    (%rsp),%rdx
    7bc2:	48 01 c3             	add    %rax,%rbx
    7bc5:	e9 7b ff ff ff       	jmpq   7b45 <_ZNSt6vectorIdSaIdEE17_M_realloc_insertIJRKdEEEvN9__gnu_cxx17__normal_iteratorIPdS1_EEDpOT_+0x65>
    7bca:	66 0f 1f 44 00 00    	nopw   0x0(%rax,%rax,1)
    7bd0:	48 89 cf             	mov    %rcx,%rdi
    7bd3:	4c 89 ee             	mov    %r13,%rsi
    7bd6:	4c 89 44 24 08       	mov    %r8,0x8(%rsp)
    7bdb:	4c 89 0c 24          	mov    %r9,(%rsp)
    7bdf:	e8 cc a5 ff ff       	callq  21b0 <memmove@plt>
    7be4:	4c 8b 44 24 08       	mov    0x8(%rsp),%r8
    7be9:	4c 8b 0c 24          	mov    (%rsp),%r9
    7bed:	48 89 c1             	mov    %rax,%rcx
    7bf0:	4d 85 c0             	test   %r8,%r8
    7bf3:	7f 1b                	jg     7c10 <_ZNSt6vectorIdSaIdEE17_M_realloc_insertIJRKdEEEvN9__gnu_cxx17__normal_iteratorIPdS1_EEDpOT_+0x130>
    7bf5:	4c 89 fe             	mov    %r15,%rsi
    7bf8:	4c 89 ef             	mov    %r13,%rdi
    7bfb:	48 89 0c 24          	mov    %rcx,(%rsp)
    7bff:	4c 29 ee             	sub    %r13,%rsi
    7c02:	e8 09 a5 ff ff       	callq  2110 <_ZdlPvm@plt>
    7c07:	48 8b 0c 24          	mov    (%rsp),%rcx
    7c0b:	e9 69 ff ff ff       	jmpq   7b79 <_ZNSt6vectorIdSaIdEE17_M_realloc_insertIJRKdEEEvN9__gnu_cxx17__normal_iteratorIPdS1_EEDpOT_+0x99>
    7c10:	4c 89 c2             	mov    %r8,%rdx
    7c13:	4c 89 e6             	mov    %r12,%rsi
    7c16:	4c 89 cf             	mov    %r9,%rdi
    7c19:	48 89 0c 24          	mov    %rcx,(%rsp)
    7c1d:	e8 9e a4 ff ff       	callq  20c0 <memcpy@plt>
    7c22:	48 8b 0c 24          	mov    (%rsp),%rcx
    7c26:	e9 45 ff ff ff       	jmpq   7b70 <_ZNSt6vectorIdSaIdEE17_M_realloc_insertIJRKdEEEvN9__gnu_cxx17__normal_iteratorIPdS1_EEDpOT_+0x90>
    7c2b:	0f 1f 44 00 00       	nopl   0x0(%rax,%rax,1)
    7c30:	48 bb f8 ff ff ff ff 	movabs $0x7ffffffffffffff8,%rbx
    7c37:	ff ff 7f 
    7c3a:	e9 70 ff ff ff       	jmpq   7baf <_ZNSt6vectorIdSaIdEE17_M_realloc_insertIJRKdEEEvN9__gnu_cxx17__normal_iteratorIPdS1_EEDpOT_+0xcf>
    7c3f:	48 8d 3d f2 83 00 00 	lea    0x83f2(%rip),%rdi        # 10038 <_IO_stdin_used+0x38>
    7c46:	e8 45 a4 ff ff       	callq  2090 <_ZSt20__throw_length_errorPKc@plt>
    7c4b:	0f 1f 44 00 00       	nopl   0x0(%rax,%rax,1)

0000000000007c50 <_ZNSt5dequeIP10PRTreeNodeIdLi6EESaIS2_EE17_M_reallocate_mapEmb>:
    7c50:	41 57                	push   %r15
    7c52:	41 56                	push   %r14
    7c54:	49 89 f7             	mov    %rsi,%r15
    7c57:	41 55                	push   %r13
    7c59:	41 54                	push   %r12
    7c5b:	49 89 fc             	mov    %rdi,%r12
    7c5e:	55                   	push   %rbp
    7c5f:	53                   	push   %rbx
    7c60:	48 83 ec 18          	sub    $0x18,%rsp
    7c64:	48 8b 47 48          	mov    0x48(%rdi),%rax
    7c68:	48 8b 77 28          	mov    0x28(%rdi),%rsi
    7c6c:	48 8b 5f 08          	mov    0x8(%rdi),%rbx
    7c70:	48 89 c5             	mov    %rax,%rbp
    7c73:	48 29 f5             	sub    %rsi,%rbp
    7c76:	48 89 e9             	mov    %rbp,%rcx
    7c79:	48 c1 f9 03          	sar    $0x3,%rcx
    7c7d:	49 8d 4c 0f 01       	lea    0x1(%r15,%rcx,1),%rcx
    7c82:	48 8d 3c 09          	lea    (%rcx,%rcx,1),%rdi
    7c86:	48 39 fb             	cmp    %rdi,%rbx
    7c89:	76 45                	jbe    7cd0 <_ZNSt5dequeIP10PRTreeNodeIdLi6EESaIS2_EE17_M_reallocate_mapEmb+0x80>
    7c8b:	48 29 cb             	sub    %rcx,%rbx
    7c8e:	48 d1 eb             	shr    %rbx
    7c91:	48 c1 e3 03          	shl    $0x3,%rbx
    7c95:	84 d2                	test   %dl,%dl
    7c97:	4a 8d 0c fb          	lea    (%rbx,%r15,8),%rcx
    7c9b:	48 0f 45 d9          	cmovne %rcx,%rbx
    7c9f:	49 03 1c 24          	add    (%r12),%rbx
    7ca3:	48 83 c0 08          	add    $0x8,%rax
    7ca7:	48 89 c2             	mov    %rax,%rdx
    7caa:	48 29 f2             	sub    %rsi,%rdx
    7cad:	48 39 de             	cmp    %rbx,%rsi
    7cb0:	0f 86 0a 01 00 00    	jbe    7dc0 <_ZNSt5dequeIP10PRTreeNodeIdLi6EESaIS2_EE17_M_reallocate_mapEmb+0x170>
    7cb6:	48 39 c6             	cmp    %rax,%rsi
    7cb9:	0f 84 aa 00 00 00    	je     7d69 <_ZNSt5dequeIP10PRTreeNodeIdLi6EESaIS2_EE17_M_reallocate_mapEmb+0x119>
    7cbf:	48 89 df             	mov    %rbx,%rdi
    7cc2:	e8 e9 a4 ff ff       	callq  21b0 <memmove@plt>
    7cc7:	e9 9d 00 00 00       	jmpq   7d69 <_ZNSt5dequeIP10PRTreeNodeIdLi6EESaIS2_EE17_M_reallocate_mapEmb+0x119>
    7ccc:	0f 1f 40 00          	nopl   0x0(%rax)
    7cd0:	4c 39 fb             	cmp    %r15,%rbx
    7cd3:	4c 89 f8             	mov    %r15,%rax
    7cd6:	48 0f 43 c3          	cmovae %rbx,%rax
    7cda:	4c 8d 6c 03 02       	lea    0x2(%rbx,%rax,1),%r13
    7cdf:	48 b8 ff ff ff ff ff 	movabs $0xfffffffffffffff,%rax
    7ce6:	ff ff 0f 
    7ce9:	49 39 c5             	cmp    %rax,%r13
    7cec:	0f 87 e4 00 00 00    	ja     7dd6 <_ZNSt5dequeIP10PRTreeNodeIdLi6EESaIS2_EE17_M_reallocate_mapEmb+0x186>
    7cf2:	4a 8d 3c ed 00 00 00 	lea    0x0(,%r13,8),%rdi
    7cf9:	00 
    7cfa:	89 54 24 0c          	mov    %edx,0xc(%rsp)
    7cfe:	48 89 0c 24          	mov    %rcx,(%rsp)
    7d02:	4c 89 eb             	mov    %r13,%rbx
    7d05:	e8 f6 a3 ff ff       	callq  2100 <_Znwm@plt>
    7d0a:	48 8b 0c 24          	mov    (%rsp),%rcx
    7d0e:	8b 54 24 0c          	mov    0xc(%rsp),%edx
    7d12:	49 89 c6             	mov    %rax,%r14
    7d15:	49 8b 74 24 28       	mov    0x28(%r12),%rsi
    7d1a:	48 29 cb             	sub    %rcx,%rbx
    7d1d:	48 d1 eb             	shr    %rbx
    7d20:	48 c1 e3 03          	shl    $0x3,%rbx
    7d24:	84 d2                	test   %dl,%dl
    7d26:	4a 8d 04 fb          	lea    (%rbx,%r15,8),%rax
    7d2a:	48 0f 45 d8          	cmovne %rax,%rbx
    7d2e:	49 8b 44 24 48       	mov    0x48(%r12),%rax
    7d33:	4c 01 f3             	add    %r14,%rbx
    7d36:	48 8d 50 08          	lea    0x8(%rax),%rdx
    7d3a:	48 39 f2             	cmp    %rsi,%rdx
    7d3d:	74 0b                	je     7d4a <_ZNSt5dequeIP10PRTreeNodeIdLi6EESaIS2_EE17_M_reallocate_mapEmb+0xfa>
    7d3f:	48 29 f2             	sub    %rsi,%rdx
    7d42:	48 89 df             	mov    %rbx,%rdi
    7d45:	e8 66 a4 ff ff       	callq  21b0 <memmove@plt>
    7d4a:	49 8b 44 24 08       	mov    0x8(%r12),%rax
    7d4f:	49 8b 3c 24          	mov    (%r12),%rdi
    7d53:	48 8d 34 c5 00 00 00 	lea    0x0(,%rax,8),%rsi
    7d5a:	00 
    7d5b:	e8 b0 a3 ff ff       	callq  2110 <_ZdlPvm@plt>
    7d60:	4d 89 34 24          	mov    %r14,(%r12)
    7d64:	4d 89 6c 24 08       	mov    %r13,0x8(%r12)
    7d69:	49 89 5c 24 28       	mov    %rbx,0x28(%r12)
    7d6e:	c5 fa 7e 0b          	vmovq  (%rbx),%xmm1
    7d72:	48 8b 03             	mov    (%rbx),%rax
    7d75:	48 01 eb             	add    %rbp,%rbx
    7d78:	49 89 5c 24 48       	mov    %rbx,0x48(%r12)
    7d7d:	48 05 00 02 00 00    	add    $0x200,%rax
    7d83:	c4 e3 f1 22 c0 01    	vpinsrq $0x1,%rax,%xmm1,%xmm0
    7d89:	c4 c1 7a 7f 44 24 18 	vmovdqu %xmm0,0x18(%r12)
    7d90:	48 8b 03             	mov    (%rbx),%rax
    7d93:	49 89 44 24 38       	mov    %rax,0x38(%r12)
    7d98:	48 05 00 02 00 00    	add    $0x200,%rax
    7d9e:	49 89 44 24 40       	mov    %rax,0x40(%r12)
    7da3:	48 83 c4 18          	add    $0x18,%rsp
    7da7:	5b                   	pop    %rbx
    7da8:	5d                   	pop    %rbp
    7da9:	41 5c                	pop    %r12
    7dab:	41 5d                	pop    %r13
    7dad:	41 5e                	pop    %r14
    7daf:	41 5f                	pop    %r15
    7db1:	c3                   	retq   
    7db2:	66 66 2e 0f 1f 84 00 	data16 nopw %cs:0x0(%rax,%rax,1)
    7db9:	00 00 00 00 
    7dbd:	0f 1f 00             	nopl   (%rax)
    7dc0:	48 39 c6             	cmp    %rax,%rsi
    7dc3:	74 a4                	je     7d69 <_ZNSt5dequeIP10PRTreeNodeIdLi6EESaIS2_EE17_M_reallocate_mapEmb+0x119>
    7dc5:	48 8d 7d 08          	lea    0x8(%rbp),%rdi
    7dc9:	48 29 d7             	sub    %rdx,%rdi
    7dcc:	48 01 df             	add    %rbx,%rdi
    7dcf:	e8 dc a3 ff ff       	callq  21b0 <memmove@plt>
    7dd4:	eb 93                	jmp    7d69 <_ZNSt5dequeIP10PRTreeNodeIdLi6EESaIS2_EE17_M_reallocate_mapEmb+0x119>
    7dd6:	e8 75 a2 ff ff       	callq  2050 <_ZSt17__throw_bad_allocv@plt>
    7ddb:	0f 1f 44 00 00       	nopl   0x0(%rax,%rax,1)

0000000000007de0 <_ZN6PRTreeIdLi6EEclER11BoundingBox>:
    7de0:	55                   	push   %rbp
    7de1:	c5 f9 ef c0          	vpxor  %xmm0,%xmm0,%xmm0
    7de5:	48 89 e5             	mov    %rsp,%rbp
    7de8:	41 57                	push   %r15
    7dea:	41 56                	push   %r14
    7dec:	49 89 ff             	mov    %rdi,%r15
    7def:	41 55                	push   %r13
    7df1:	41 54                	push   %r12
    7df3:	49 89 d6             	mov    %rdx,%r14
    7df6:	49 89 f4             	mov    %rsi,%r12
    7df9:	53                   	push   %rbx
    7dfa:	48 83 e4 e0          	and    $0xffffffffffffffe0,%rsp
    7dfe:	48 81 ec c0 00 00 00 	sub    $0xc0,%rsp
    7e05:	64 48 8b 04 25 28 00 	mov    %fs:0x28,%rax
    7e0c:	00 00 
    7e0e:	48 89 84 24 b8 00 00 	mov    %rax,0xb8(%rsp)
    7e15:	00 
    7e16:	31 c0                	xor    %eax,%eax
    7e18:	c5 fa 7f 07          	vmovdqu %xmm0,(%rdi)
    7e1c:	48 c7 47 10 00 00 00 	movq   $0x0,0x10(%rdi)
    7e23:	00 
    7e24:	c5 f9 ef c0          	vpxor  %xmm0,%xmm0,%xmm0
    7e28:	bf 40 00 00 00       	mov    $0x40,%edi
    7e2d:	48 c7 44 24 60 00 00 	movq   $0x0,0x60(%rsp)
    7e34:	00 00 
    7e36:	c5 fe 7f 44 24 70    	vmovdqu %ymm0,0x70(%rsp)
    7e3c:	c5 fe 7f 84 24 90 00 	vmovdqu %ymm0,0x90(%rsp)
    7e43:	00 00 
    7e45:	48 c7 44 24 68 08 00 	movq   $0x8,0x68(%rsp)
    7e4c:	00 00 
    7e4e:	c5 f8 77             	vzeroupper 
    7e51:	e8 aa a2 ff ff       	callq  2100 <_Znwm@plt>
    7e56:	48 8b 54 24 68       	mov    0x68(%rsp),%rdx
    7e5b:	bf 00 02 00 00       	mov    $0x200,%edi
    7e60:	48 89 44 24 60       	mov    %rax,0x60(%rsp)
    7e65:	48 8d 1c 95 fc ff ff 	lea    -0x4(,%rdx,4),%rbx
    7e6c:	ff 
    7e6d:	48 83 e3 f8          	and    $0xfffffffffffffff8,%rbx
    7e71:	48 01 c3             	add    %rax,%rbx
    7e74:	e8 87 a2 ff ff       	callq  2100 <_Znwm@plt>
    7e79:	48 8d 90 00 02 00 00 	lea    0x200(%rax),%rdx
    7e80:	c4 e1 f9 6e e8       	vmovq  %rax,%xmm5
    7e85:	48 89 03             	mov    %rax,(%rbx)
    7e88:	48 89 9c 24 88 00 00 	mov    %rbx,0x88(%rsp)
    7e8f:	00 
    7e90:	48 89 94 24 80 00 00 	mov    %rdx,0x80(%rsp)
    7e97:	00 
    7e98:	48 89 94 24 a0 00 00 	mov    %rdx,0xa0(%rsp)
    7e9f:	00 
    7ea0:	c5 d1 6c c5          	vpunpcklqdq %xmm5,%xmm5,%xmm0
    7ea4:	48 89 9c 24 a8 00 00 	mov    %rbx,0xa8(%rsp)
    7eab:	00 
    7eac:	48 89 84 24 98 00 00 	mov    %rax,0x98(%rsp)
    7eb3:	00 
    7eb4:	c5 f9 7f 44 24 70    	vmovdqa %xmm0,0x70(%rsp)
    7eba:	48 89 84 24 90 00 00 	mov    %rax,0x90(%rsp)
    7ec1:	00 
    7ec2:	49 8b 14 24          	mov    (%r12),%rdx
    7ec6:	48 85 d2             	test   %rdx,%rdx
    7ec9:	0f 84 21 06 00 00    	je     84f0 <_ZN6PRTreeIdLi6EEclER11BoundingBox+0x710>
    7ecf:	c4 c1 7b 10 76 08    	vmovsd 0x8(%r14),%xmm6
    7ed5:	c5 fb 10 3a          	vmovsd (%rdx),%xmm7
    7ed9:	c5 cb 5d 4a 08       	vminsd 0x8(%rdx),%xmm6,%xmm1
    7ede:	c4 c1 43 5f 06       	vmaxsd (%r14),%xmm7,%xmm0
    7ee3:	c5 f9 2f c8          	vcomisd %xmm0,%xmm1
    7ee7:	0f 82 03 06 00 00    	jb     84f0 <_ZN6PRTreeIdLi6EEclER11BoundingBox+0x710>
    7eed:	c4 c1 7b 10 56 18    	vmovsd 0x18(%r14),%xmm2
    7ef3:	c5 fb 10 5a 10       	vmovsd 0x10(%rdx),%xmm3
    7ef8:	c5 eb 5d 4a 18       	vminsd 0x18(%rdx),%xmm2,%xmm1
    7efd:	c4 c1 63 5f 46 10    	vmaxsd 0x10(%r14),%xmm3,%xmm0
    7f03:	c5 f9 2f c8          	vcomisd %xmm0,%xmm1
    7f07:	0f 82 e3 05 00 00    	jb     84f0 <_ZN6PRTreeIdLi6EEclER11BoundingBox+0x710>
    7f0d:	48 89 10             	mov    %rdx,(%rax)
    7f10:	48 8d 4c 24 40       	lea    0x40(%rsp),%rcx
    7f15:	48 8d 50 08          	lea    0x8(%rax),%rdx
    7f19:	48 c7 44 24 30 00 00 	movq   $0x0,0x30(%rsp)
    7f20:	00 00 
    7f22:	48 89 94 24 90 00 00 	mov    %rdx,0x90(%rsp)
    7f29:	00 
    7f2a:	45 31 ed             	xor    %r13d,%r13d
    7f2d:	48 89 4c 24 28       	mov    %rcx,0x28(%rsp)
    7f32:	eb 71                	jmp    7fa5 <_ZN6PRTreeIdLi6EEclER11BoundingBox+0x1c5>
    7f34:	66 66 2e 0f 1f 84 00 	data16 nopw %cs:0x0(%rax,%rax,1)
    7f3b:	00 00 00 00 
    7f3f:	90                   	nop
    7f40:	4c 8b 63 28          	mov    0x28(%rbx),%r12
    7f44:	48 83 c0 08          	add    $0x8,%rax
    7f48:	48 89 44 24 70       	mov    %rax,0x70(%rsp)
    7f4d:	4d 85 e4             	test   %r12,%r12
    7f50:	0f 85 ca 00 00 00    	jne    8020 <_ZN6PRTreeIdLi6EEclER11BoundingBox+0x240>
    7f56:	4c 8b 63 30          	mov    0x30(%rbx),%r12
    7f5a:	4d 85 e4             	test   %r12,%r12
    7f5d:	74 2c                	je     7f8b <_ZN6PRTreeIdLi6EEclER11BoundingBox+0x1ab>
    7f5f:	48 8b b4 24 a0 00 00 	mov    0xa0(%rsp),%rsi
    7f66:	00 
    7f67:	48 8b 84 24 90 00 00 	mov    0x90(%rsp),%rax
    7f6e:	00 
    7f6f:	48 8d 56 f8          	lea    -0x8(%rsi),%rdx
    7f73:	48 39 d0             	cmp    %rdx,%rax
    7f76:	0f 84 24 01 00 00    	je     80a0 <_ZN6PRTreeIdLi6EEclER11BoundingBox+0x2c0>
    7f7c:	4c 89 20             	mov    %r12,(%rax)
    7f7f:	48 83 c0 08          	add    $0x8,%rax
    7f83:	48 89 84 24 90 00 00 	mov    %rax,0x90(%rsp)
    7f8a:	00 
    7f8b:	48 8b 43 20          	mov    0x20(%rbx),%rax
    7f8f:	48 85 c0             	test   %rax,%rax
    7f92:	0f 85 e8 01 00 00    	jne    8180 <_ZN6PRTreeIdLi6EEclER11BoundingBox+0x3a0>
    7f98:	48 8b 44 24 70       	mov    0x70(%rsp),%rax
    7f9d:	48 8b 94 24 90 00 00 	mov    0x90(%rsp),%rdx
    7fa4:	00 
    7fa5:	48 39 c2             	cmp    %rax,%rdx
    7fa8:	0f 84 d2 02 00 00    	je     8280 <_ZN6PRTreeIdLi6EEclER11BoundingBox+0x4a0>
    7fae:	48 8b 94 24 80 00 00 	mov    0x80(%rsp),%rdx
    7fb5:	00 
    7fb6:	48 8b 18             	mov    (%rax),%rbx
    7fb9:	48 8d 4a f8          	lea    -0x8(%rdx),%rcx
    7fbd:	48 39 c8             	cmp    %rcx,%rax
    7fc0:	0f 85 7a ff ff ff    	jne    7f40 <_ZN6PRTreeIdLi6EEclER11BoundingBox+0x160>
    7fc6:	48 8b 7c 24 78       	mov    0x78(%rsp),%rdi
    7fcb:	be 00 02 00 00       	mov    $0x200,%esi
    7fd0:	e8 3b a1 ff ff       	callq  2110 <_ZdlPvm@plt>
    7fd5:	48 8b 8c 24 88 00 00 	mov    0x88(%rsp),%rcx
    7fdc:	00 
    7fdd:	48 8b 41 08          	mov    0x8(%rcx),%rax
    7fe1:	48 83 c1 08          	add    $0x8,%rcx
    7fe5:	48 8d 90 00 02 00 00 	lea    0x200(%rax),%rdx
    7fec:	c4 e1 f9 6e f8       	vmovq  %rax,%xmm7
    7ff1:	c4 e1 f9 6e f2       	vmovq  %rdx,%xmm6
    7ff6:	c5 c1 6c cf          	vpunpcklqdq %xmm7,%xmm7,%xmm1
    7ffa:	c4 e3 c9 22 c1 01    	vpinsrq $0x1,%rcx,%xmm6,%xmm0
    8000:	c4 e3 75 38 c0 01    	vinserti128 $0x1,%xmm0,%ymm1,%ymm0
    8006:	c5 fe 7f 44 24 70    	vmovdqu %ymm0,0x70(%rsp)
    800c:	c5 f8 77             	vzeroupper 
    800f:	4c 8b 63 28          	mov    0x28(%rbx),%r12
    8013:	4d 85 e4             	test   %r12,%r12
    8016:	0f 84 3a ff ff ff    	je     7f56 <_ZN6PRTreeIdLi6EEclER11BoundingBox+0x176>
    801c:	0f 1f 40 00          	nopl   0x0(%rax)
    8020:	c4 c1 7b 10 6e 08    	vmovsd 0x8(%r14),%xmm5
    8026:	c4 c1 7b 10 14 24    	vmovsd (%r12),%xmm2
    802c:	c4 c1 53 5d 4c 24 08 	vminsd 0x8(%r12),%xmm5,%xmm1
    8033:	c4 c1 6b 5f 06       	vmaxsd (%r14),%xmm2,%xmm0
    8038:	c5 f9 2f c8          	vcomisd %xmm0,%xmm1
    803c:	0f 82 14 ff ff ff    	jb     7f56 <_ZN6PRTreeIdLi6EEclER11BoundingBox+0x176>
    8042:	c4 c1 7b 10 5e 18    	vmovsd 0x18(%r14),%xmm3
    8048:	c4 c1 7b 10 74 24 10 	vmovsd 0x10(%r12),%xmm6
    804f:	c4 c1 63 5d 4c 24 18 	vminsd 0x18(%r12),%xmm3,%xmm1
    8056:	c4 c1 4b 5f 46 10    	vmaxsd 0x10(%r14),%xmm6,%xmm0
    805c:	c5 f9 2f c8          	vcomisd %xmm0,%xmm1
    8060:	0f 82 f0 fe ff ff    	jb     7f56 <_ZN6PRTreeIdLi6EEclER11BoundingBox+0x176>
    8066:	48 8b b4 24 a0 00 00 	mov    0xa0(%rsp),%rsi
    806d:	00 
    806e:	48 8b 8c 24 90 00 00 	mov    0x90(%rsp),%rcx
    8075:	00 
    8076:	48 83 ee 08          	sub    $0x8,%rsi
    807a:	48 39 f1             	cmp    %rsi,%rcx
    807d:	0f 84 52 05 00 00    	je     85d5 <_ZN6PRTreeIdLi6EEclER11BoundingBox+0x7f5>
    8083:	4c 89 21             	mov    %r12,(%rcx)
    8086:	48 83 c1 08          	add    $0x8,%rcx
    808a:	48 89 8c 24 90 00 00 	mov    %rcx,0x90(%rsp)
    8091:	00 
    8092:	e9 bf fe ff ff       	jmpq   7f56 <_ZN6PRTreeIdLi6EEclER11BoundingBox+0x176>
    8097:	66 0f 1f 84 00 00 00 	nopw   0x0(%rax,%rax,1)
    809e:	00 00 
    80a0:	48 8b bc 24 a8 00 00 	mov    0xa8(%rsp),%rdi
    80a7:	00 
    80a8:	48 2b 84 24 98 00 00 	sub    0x98(%rsp),%rax
    80af:	00 
    80b0:	48 b9 ff ff ff ff ff 	movabs $0xfffffffffffffff,%rcx
    80b7:	ff ff 0f 
    80ba:	48 89 fa             	mov    %rdi,%rdx
    80bd:	48 2b 94 24 88 00 00 	sub    0x88(%rsp),%rdx
    80c4:	00 
    80c5:	48 89 7c 24 38       	mov    %rdi,0x38(%rsp)
    80ca:	48 c1 f8 03          	sar    $0x3,%rax
    80ce:	48 c1 fa 03          	sar    $0x3,%rdx
    80d2:	48 ff ca             	dec    %rdx
    80d5:	48 c1 e2 06          	shl    $0x6,%rdx
    80d9:	48 01 c2             	add    %rax,%rdx
    80dc:	48 8b 84 24 80 00 00 	mov    0x80(%rsp),%rax
    80e3:	00 
    80e4:	48 2b 44 24 70       	sub    0x70(%rsp),%rax
    80e9:	48 c1 f8 03          	sar    $0x3,%rax
    80ed:	48 01 d0             	add    %rdx,%rax
    80f0:	48 39 c8             	cmp    %rcx,%rax
    80f3:	0f 84 d0 05 00 00    	je     86c9 <_ZN6PRTreeIdLi6EEclER11BoundingBox+0x8e9>
    80f9:	48 89 fa             	mov    %rdi,%rdx
    80fc:	48 2b 54 24 60       	sub    0x60(%rsp),%rdx
    8101:	48 8b 44 24 68       	mov    0x68(%rsp),%rax
    8106:	48 c1 fa 03          	sar    $0x3,%rdx
    810a:	48 29 d0             	sub    %rdx,%rax
    810d:	48 83 f8 01          	cmp    $0x1,%rax
    8111:	0f 86 09 02 00 00    	jbe    8320 <_ZN6PRTreeIdLi6EEclER11BoundingBox+0x540>
    8117:	bf 00 02 00 00       	mov    $0x200,%edi
    811c:	e8 df 9f ff ff       	callq  2100 <_Znwm@plt>
    8121:	48 8b 4c 24 38       	mov    0x38(%rsp),%rcx
    8126:	48 8b 94 24 a8 00 00 	mov    0xa8(%rsp),%rdx
    812d:	00 
    812e:	48 89 41 08          	mov    %rax,0x8(%rcx)
    8132:	48 8b 84 24 90 00 00 	mov    0x90(%rsp),%rax
    8139:	00 
    813a:	48 83 c2 08          	add    $0x8,%rdx
    813e:	4c 89 20             	mov    %r12,(%rax)
    8141:	48 8b 02             	mov    (%rdx),%rax
    8144:	48 8d 88 00 02 00 00 	lea    0x200(%rax),%rcx
    814b:	c4 e1 f9 6e e0       	vmovq  %rax,%xmm4
    8150:	c4 e1 f9 6e c1       	vmovq  %rcx,%xmm0
    8155:	c4 e3 f9 22 ca 01    	vpinsrq $0x1,%rdx,%xmm0,%xmm1
    815b:	c5 d9 6c c4          	vpunpcklqdq %xmm4,%xmm4,%xmm0
    815f:	c4 e3 7d 38 c1 01    	vinserti128 $0x1,%xmm1,%ymm0,%ymm0
    8165:	c5 fe 7f 84 24 90 00 	vmovdqu %ymm0,0x90(%rsp)
    816c:	00 00 
    816e:	c5 f8 77             	vzeroupper 
    8171:	48 8b 43 20          	mov    0x20(%rbx),%rax
    8175:	48 85 c0             	test   %rax,%rax
    8178:	0f 84 1a fe ff ff    	je     7f98 <_ZN6PRTreeIdLi6EEclER11BoundingBox+0x1b8>
    817e:	66 90                	xchg   %ax,%ax
    8180:	c5 f9 ef c0          	vpxor  %xmm0,%xmm0,%xmm0
    8184:	c4 c1 7b 10 0e       	vmovsd (%r14),%xmm1
    8189:	c4 c1 7b 10 56 10    	vmovsd 0x10(%r14),%xmm2
    818f:	48 c7 44 24 50 00 00 	movq   $0x0,0x50(%rsp)
    8196:	00 00 
    8198:	c5 f9 7f 44 24 40    	vmovdqa %xmm0,0x40(%rsp)
    819e:	c4 c1 7b 10 46 08    	vmovsd 0x8(%r14),%xmm0
    81a4:	c5 fb 5d 68 10       	vminsd 0x10(%rax),%xmm0,%xmm5
    81a9:	c5 f3 5f 60 08       	vmaxsd 0x8(%rax),%xmm1,%xmm4
    81ae:	c4 c1 7b 10 5e 18    	vmovsd 0x18(%r14),%xmm3
    81b4:	c5 f9 2f ec          	vcomisd %xmm4,%xmm5
    81b8:	72 14                	jb     81ce <_ZN6PRTreeIdLi6EEclER11BoundingBox+0x3ee>
    81ba:	c5 e3 5d 68 20       	vminsd 0x20(%rax),%xmm3,%xmm5
    81bf:	c5 eb 5f 60 18       	vmaxsd 0x18(%rax),%xmm2,%xmm4
    81c4:	c5 f9 2f ec          	vcomisd %xmm4,%xmm5
    81c8:	0f 83 8b 02 00 00    	jae    8459 <_ZN6PRTreeIdLi6EEclER11BoundingBox+0x679>
    81ce:	48 c7 44 24 38 00 00 	movq   $0x0,0x38(%rsp)
    81d5:	00 00 
    81d7:	45 31 e4             	xor    %r12d,%r12d
    81da:	31 db                	xor    %ebx,%ebx
    81dc:	c5 f9 ef c0          	vpxor  %xmm0,%xmm0,%xmm0
    81e0:	48 c7 44 24 50 00 00 	movq   $0x0,0x50(%rsp)
    81e7:	00 00 
    81e9:	c5 f9 7f 44 24 40    	vmovdqa %xmm0,0x40(%rsp)
    81ef:	4d 85 ed             	test   %r13,%r13
    81f2:	74 27                	je     821b <_ZN6PRTreeIdLi6EEclER11BoundingBox+0x43b>
    81f4:	48 8b 74 24 30       	mov    0x30(%rsp),%rsi
    81f9:	4c 89 ef             	mov    %r13,%rdi
    81fc:	4c 29 ee             	sub    %r13,%rsi
    81ff:	e8 0c 9f ff ff       	callq  2110 <_ZdlPvm@plt>
    8204:	48 8b 7c 24 40       	mov    0x40(%rsp),%rdi
    8209:	48 8b 74 24 50       	mov    0x50(%rsp),%rsi
    820e:	48 29 fe             	sub    %rdi,%rsi
    8211:	48 85 ff             	test   %rdi,%rdi
    8214:	74 05                	je     821b <_ZN6PRTreeIdLi6EEclER11BoundingBox+0x43b>
    8216:	e8 f5 9e ff ff       	callq  2110 <_ZdlPvm@plt>
    821b:	49 8b 7f 08          	mov    0x8(%r15),%rdi
    821f:	48 89 7c 24 30       	mov    %rdi,0x30(%rsp)
    8224:	4c 39 e3             	cmp    %r12,%rbx
    8227:	74 25                	je     824e <_ZN6PRTreeIdLi6EEclER11BoundingBox+0x46e>
    8229:	49 8b 4f 10          	mov    0x10(%r15),%rcx
    822d:	49 29 dc             	sub    %rbx,%r12
    8230:	48 89 c8             	mov    %rcx,%rax
    8233:	48 29 f8             	sub    %rdi,%rax
    8236:	4c 39 e0             	cmp    %r12,%rax
    8239:	0f 82 11 01 00 00    	jb     8350 <_ZN6PRTreeIdLi6EEclER11BoundingBox+0x570>
    823f:	4c 89 e2             	mov    %r12,%rdx
    8242:	48 89 de             	mov    %rbx,%rsi
    8245:	e8 66 9f ff ff       	callq  21b0 <memmove@plt>
    824a:	4d 01 67 08          	add    %r12,0x8(%r15)
    824e:	48 8b 74 24 38       	mov    0x38(%rsp),%rsi
    8253:	48 8b 44 24 70       	mov    0x70(%rsp),%rax
    8258:	49 89 dd             	mov    %rbx,%r13
    825b:	48 8b 94 24 90 00 00 	mov    0x90(%rsp),%rdx
    8262:	00 
    8263:	48 89 74 24 30       	mov    %rsi,0x30(%rsp)
    8268:	48 39 c2             	cmp    %rax,%rdx
    826b:	0f 85 3d fd ff ff    	jne    7fae <_ZN6PRTreeIdLi6EEclER11BoundingBox+0x1ce>
    8271:	66 66 2e 0f 1f 84 00 	data16 nopw %cs:0x0(%rax,%rax,1)
    8278:	00 00 00 00 
    827c:	0f 1f 40 00          	nopl   0x0(%rax)
    8280:	4c 8b 74 24 30       	mov    0x30(%rsp),%r14
    8285:	48 8b 7c 24 60       	mov    0x60(%rsp),%rdi
    828a:	4d 29 ee             	sub    %r13,%r14
    828d:	48 85 ff             	test   %rdi,%rdi
    8290:	74 4c                	je     82de <_ZN6PRTreeIdLi6EEclER11BoundingBox+0x4fe>
    8292:	48 8b 9c 24 a8 00 00 	mov    0xa8(%rsp),%rbx
    8299:	00 
    829a:	4c 8b a4 24 88 00 00 	mov    0x88(%rsp),%r12
    82a1:	00 
    82a2:	48 83 c3 08          	add    $0x8,%rbx
    82a6:	4c 39 e3             	cmp    %r12,%rbx
    82a9:	76 21                	jbe    82cc <_ZN6PRTreeIdLi6EEclER11BoundingBox+0x4ec>
    82ab:	0f 1f 44 00 00       	nopl   0x0(%rax,%rax,1)
    82b0:	49 8b 3c 24          	mov    (%r12),%rdi
    82b4:	be 00 02 00 00       	mov    $0x200,%esi
    82b9:	49 83 c4 08          	add    $0x8,%r12
    82bd:	e8 4e 9e ff ff       	callq  2110 <_ZdlPvm@plt>
    82c2:	4c 39 e3             	cmp    %r12,%rbx
    82c5:	77 e9                	ja     82b0 <_ZN6PRTreeIdLi6EEclER11BoundingBox+0x4d0>
    82c7:	48 8b 7c 24 60       	mov    0x60(%rsp),%rdi
    82cc:	48 8b 44 24 68       	mov    0x68(%rsp),%rax
    82d1:	48 8d 34 c5 00 00 00 	lea    0x0(,%rax,8),%rsi
    82d8:	00 
    82d9:	e8 32 9e ff ff       	callq  2110 <_ZdlPvm@plt>
    82de:	4d 85 ed             	test   %r13,%r13
    82e1:	74 0b                	je     82ee <_ZN6PRTreeIdLi6EEclER11BoundingBox+0x50e>
    82e3:	4c 89 f6             	mov    %r14,%rsi
    82e6:	4c 89 ef             	mov    %r13,%rdi
    82e9:	e8 22 9e ff ff       	callq  2110 <_ZdlPvm@plt>
    82ee:	48 8b 84 24 b8 00 00 	mov    0xb8(%rsp),%rax
    82f5:	00 
    82f6:	64 48 2b 04 25 28 00 	sub    %fs:0x28,%rax
    82fd:	00 00 
    82ff:	0f 85 d0 03 00 00    	jne    86d5 <_ZN6PRTreeIdLi6EEclER11BoundingBox+0x8f5>
    8305:	48 8d 65 d8          	lea    -0x28(%rbp),%rsp
    8309:	4c 89 f8             	mov    %r15,%rax
    830c:	5b                   	pop    %rbx
    830d:	41 5c                	pop    %r12
    830f:	41 5d                	pop    %r13
    8311:	41 5e                	pop    %r14
    8313:	41 5f                	pop    %r15
    8315:	5d                   	pop    %rbp
    8316:	c3                   	retq   
    8317:	66 0f 1f 84 00 00 00 	nopw   0x0(%rax,%rax,1)
    831e:	00 00 
    8320:	48 8d 7c 24 60       	lea    0x60(%rsp),%rdi
    8325:	31 d2                	xor    %edx,%edx
    8327:	be 01 00 00 00       	mov    $0x1,%esi
    832c:	e8 1f f9 ff ff       	callq  7c50 <_ZNSt5dequeIP10PRTreeNodeIdLi6EESaIS2_EE17_M_reallocate_mapEmb>
    8331:	48 8b 84 24 a8 00 00 	mov    0xa8(%rsp),%rax
    8338:	00 
    8339:	48 89 44 24 38       	mov    %rax,0x38(%rsp)
    833e:	e9 d4 fd ff ff       	jmpq   8117 <_ZN6PRTreeIdLi6EEclER11BoundingBox+0x337>
    8343:	66 66 2e 0f 1f 84 00 	data16 nopw %cs:0x0(%rax,%rax,1)
    834a:	00 00 00 00 
    834e:	66 90                	xchg   %ax,%ax
    8350:	4d 8b 07             	mov    (%r15),%r8
    8353:	49 89 f9             	mov    %rdi,%r9
    8356:	4c 89 e2             	mov    %r12,%rdx
    8359:	48 bf ff ff ff ff ff 	movabs $0xfffffffffffffff,%rdi
    8360:	ff ff 0f 
    8363:	48 c1 fa 03          	sar    $0x3,%rdx
    8367:	4d 29 c1             	sub    %r8,%r9
    836a:	4c 89 c8             	mov    %r9,%rax
    836d:	48 c1 f8 03          	sar    $0x3,%rax
    8371:	48 29 c7             	sub    %rax,%rdi
    8374:	48 39 fa             	cmp    %rdi,%rdx
    8377:	0f 87 78 03 00 00    	ja     86f5 <_ZN6PRTreeIdLi6EEclER11BoundingBox+0x915>
    837d:	48 39 c2             	cmp    %rax,%rdx
    8380:	48 0f 42 d0          	cmovb  %rax,%rdx
    8384:	48 01 d0             	add    %rdx,%rax
    8387:	0f 82 4d 03 00 00    	jb     86da <_ZN6PRTreeIdLi6EEclER11BoundingBox+0x8fa>
    838d:	45 31 ed             	xor    %r13d,%r13d
    8390:	48 c7 44 24 20 00 00 	movq   $0x0,0x20(%rsp)
    8397:	00 00 
    8399:	48 85 c0             	test   %rax,%rax
    839c:	0f 85 f6 01 00 00    	jne    8598 <_ZN6PRTreeIdLi6EEclER11BoundingBox+0x7b8>
    83a2:	48 8b 7c 24 20       	mov    0x20(%rsp),%rdi
    83a7:	4e 8d 14 0f          	lea    (%rdi,%r9,1),%r10
    83ab:	4f 8d 1c 22          	lea    (%r10,%r12,1),%r11
    83af:	4c 3b 44 24 30       	cmp    0x30(%rsp),%r8
    83b4:	0f 84 52 01 00 00    	je     850c <_ZN6PRTreeIdLi6EEclER11BoundingBox+0x72c>
    83ba:	4c 89 c6             	mov    %r8,%rsi
    83bd:	4c 89 ca             	mov    %r9,%rdx
    83c0:	4c 89 5c 24 08       	mov    %r11,0x8(%rsp)
    83c5:	48 89 4c 24 10       	mov    %rcx,0x10(%rsp)
    83ca:	4c 89 44 24 18       	mov    %r8,0x18(%rsp)
    83cf:	4c 89 14 24          	mov    %r10,(%rsp)
    83d3:	e8 d8 9d ff ff       	callq  21b0 <memmove@plt>
    83d8:	4c 89 e2             	mov    %r12,%rdx
    83db:	48 89 de             	mov    %rbx,%rsi
    83de:	4c 8b 14 24          	mov    (%rsp),%r10
    83e2:	4c 89 d7             	mov    %r10,%rdi
    83e5:	e8 d6 9c ff ff       	callq  20c0 <memcpy@plt>
    83ea:	49 8b 47 08          	mov    0x8(%r15),%rax
    83ee:	48 8b 4c 24 30       	mov    0x30(%rsp),%rcx
    83f3:	4c 8b 5c 24 08       	mov    0x8(%rsp),%r11
    83f8:	4c 8b 44 24 18       	mov    0x18(%rsp),%r8
    83fd:	48 89 c2             	mov    %rax,%rdx
    8400:	48 29 ca             	sub    %rcx,%rdx
    8403:	48 39 c8             	cmp    %rcx,%rax
    8406:	48 8b 4c 24 10       	mov    0x10(%rsp),%rcx
    840b:	4d 8d 24 13          	lea    (%r11,%rdx,1),%r12
    840f:	0f 84 bb 00 00 00    	je     84d0 <_ZN6PRTreeIdLi6EEclER11BoundingBox+0x6f0>
    8415:	48 8b 74 24 30       	mov    0x30(%rsp),%rsi
    841a:	4c 89 df             	mov    %r11,%rdi
    841d:	48 89 4c 24 10       	mov    %rcx,0x10(%rsp)
    8422:	4c 89 44 24 18       	mov    %r8,0x18(%rsp)
    8427:	e8 94 9c ff ff       	callq  20c0 <memcpy@plt>
    842c:	48 8b 4c 24 10       	mov    0x10(%rsp),%rcx
    8431:	4c 8b 44 24 18       	mov    0x18(%rsp),%r8
    8436:	4d 85 c0             	test   %r8,%r8
    8439:	0f 85 91 00 00 00    	jne    84d0 <_ZN6PRTreeIdLi6EEclER11BoundingBox+0x6f0>
    843f:	c5 fa 7e 7c 24 20    	vmovq  0x20(%rsp),%xmm7
    8445:	4d 89 6f 10          	mov    %r13,0x10(%r15)
    8449:	c4 c3 c1 22 c4 01    	vpinsrq $0x1,%r12,%xmm7,%xmm0
    844f:	c4 c1 7a 7f 07       	vmovdqu %xmm0,(%r15)
    8454:	e9 f5 fd ff ff       	jmpq   824e <_ZN6PRTreeIdLi6EEclER11BoundingBox+0x46e>
    8459:	48 8b 58 28          	mov    0x28(%rax),%rbx
    845d:	48 8b 40 30          	mov    0x30(%rax),%rax
    8461:	48 c7 44 24 38 00 00 	movq   $0x0,0x38(%rsp)
    8468:	00 00 
    846a:	45 31 e4             	xor    %r12d,%r12d
    846d:	48 89 44 24 20       	mov    %rax,0x20(%rsp)
    8472:	48 39 c3             	cmp    %rax,%rbx
    8475:	75 20                	jne    8497 <_ZN6PRTreeIdLi6EEclER11BoundingBox+0x6b7>
    8477:	e9 23 02 00 00       	jmpq   869f <_ZN6PRTreeIdLi6EEclER11BoundingBox+0x8bf>
    847c:	0f 1f 40 00          	nopl   0x0(%rax)
    8480:	c4 c1 7b 10 0e       	vmovsd (%r14),%xmm1
    8485:	c4 c1 7b 10 46 08    	vmovsd 0x8(%r14),%xmm0
    848b:	c4 c1 7b 10 56 10    	vmovsd 0x10(%r14),%xmm2
    8491:	c4 c1 7b 10 5e 18    	vmovsd 0x18(%r14),%xmm3
    8497:	c5 f3 5f 4b 08       	vmaxsd 0x8(%rbx),%xmm1,%xmm1
    849c:	c5 fb 5d 43 10       	vminsd 0x10(%rbx),%xmm0,%xmm0
    84a1:	c5 f9 2f c1          	vcomisd %xmm1,%xmm0
    84a5:	72 14                	jb     84bb <_ZN6PRTreeIdLi6EEclER11BoundingBox+0x6db>
    84a7:	c5 eb 5f 53 18       	vmaxsd 0x18(%rbx),%xmm2,%xmm2
    84ac:	c5 e3 5d 5b 20       	vminsd 0x20(%rbx),%xmm3,%xmm3
    84b1:	c5 f9 2f da          	vcomisd %xmm2,%xmm3
    84b5:	0f 83 99 00 00 00    	jae    8554 <_ZN6PRTreeIdLi6EEclER11BoundingBox+0x774>
    84bb:	48 83 c3 28          	add    $0x28,%rbx
    84bf:	48 39 5c 24 20       	cmp    %rbx,0x20(%rsp)
    84c4:	75 ba                	jne    8480 <_ZN6PRTreeIdLi6EEclER11BoundingBox+0x6a0>
    84c6:	48 8b 5c 24 40       	mov    0x40(%rsp),%rbx
    84cb:	e9 0c fd ff ff       	jmpq   81dc <_ZN6PRTreeIdLi6EEclER11BoundingBox+0x3fc>
    84d0:	4c 29 c1             	sub    %r8,%rcx
    84d3:	4c 89 c7             	mov    %r8,%rdi
    84d6:	48 89 ce             	mov    %rcx,%rsi
    84d9:	e8 32 9c ff ff       	callq  2110 <_ZdlPvm@plt>
    84de:	e9 5c ff ff ff       	jmpq   843f <_ZN6PRTreeIdLi6EEclER11BoundingBox+0x65f>
    84e3:	66 66 2e 0f 1f 84 00 	data16 nopw %cs:0x0(%rax,%rax,1)
    84ea:	00 00 00 00 
    84ee:	66 90                	xchg   %ax,%ax
    84f0:	48 8b 7c 24 60       	mov    0x60(%rsp),%rdi
    84f5:	48 85 ff             	test   %rdi,%rdi
    84f8:	0f 84 f0 fd ff ff    	je     82ee <_ZN6PRTreeIdLi6EEclER11BoundingBox+0x50e>
    84fe:	49 89 dc             	mov    %rbx,%r12
    8501:	45 31 f6             	xor    %r14d,%r14d
    8504:	45 31 ed             	xor    %r13d,%r13d
    8507:	e9 96 fd ff ff       	jmpq   82a2 <_ZN6PRTreeIdLi6EEclER11BoundingBox+0x4c2>
    850c:	4c 89 e2             	mov    %r12,%rdx
    850f:	48 89 de             	mov    %rbx,%rsi
    8512:	4c 89 d7             	mov    %r10,%rdi
    8515:	4c 89 5c 24 08       	mov    %r11,0x8(%rsp)
    851a:	48 89 4c 24 10       	mov    %rcx,0x10(%rsp)
    851f:	4c 89 44 24 18       	mov    %r8,0x18(%rsp)
    8524:	e8 97 9b ff ff       	callq  20c0 <memcpy@plt>
    8529:	49 8b 47 08          	mov    0x8(%r15),%rax
    852d:	4c 8b 44 24 18       	mov    0x18(%rsp),%r8
    8532:	4c 8b 5c 24 08       	mov    0x8(%rsp),%r11
    8537:	48 8b 4c 24 10       	mov    0x10(%rsp),%rcx
    853c:	48 89 c2             	mov    %rax,%rdx
    853f:	4c 29 c2             	sub    %r8,%rdx
    8542:	49 39 c0             	cmp    %rax,%r8
    8545:	4d 8d 24 13          	lea    (%r11,%rdx,1),%r12
    8549:	0f 85 c6 fe ff ff    	jne    8415 <_ZN6PRTreeIdLi6EEclER11BoundingBox+0x635>
    854f:	e9 e2 fe ff ff       	jmpq   8436 <_ZN6PRTreeIdLi6EEclER11BoundingBox+0x656>
    8554:	4c 3b 64 24 38       	cmp    0x38(%rsp),%r12
    8559:	74 19                	je     8574 <_ZN6PRTreeIdLi6EEclER11BoundingBox+0x794>
    855b:	c5 fb 10 03          	vmovsd (%rbx),%xmm0
    855f:	49 83 c4 08          	add    $0x8,%r12
    8563:	c4 c1 7b 11 44 24 f8 	vmovsd %xmm0,-0x8(%r12)
    856a:	4c 89 64 24 48       	mov    %r12,0x48(%rsp)
    856f:	e9 47 ff ff ff       	jmpq   84bb <_ZN6PRTreeIdLi6EEclER11BoundingBox+0x6db>
    8574:	48 8b 7c 24 28       	mov    0x28(%rsp),%rdi
    8579:	48 89 da             	mov    %rbx,%rdx
    857c:	4c 89 e6             	mov    %r12,%rsi
    857f:	e8 5c f5 ff ff       	callq  7ae0 <_ZNSt6vectorIdSaIdEE17_M_realloc_insertIJRKdEEEvN9__gnu_cxx17__normal_iteratorIPdS1_EEDpOT_>
    8584:	48 8b 44 24 50       	mov    0x50(%rsp),%rax
    8589:	4c 8b 64 24 48       	mov    0x48(%rsp),%r12
    858e:	48 89 44 24 38       	mov    %rax,0x38(%rsp)
    8593:	e9 23 ff ff ff       	jmpq   84bb <_ZN6PRTreeIdLi6EEclER11BoundingBox+0x6db>
    8598:	48 b9 ff ff ff ff ff 	movabs $0xfffffffffffffff,%rcx
    859f:	ff ff 0f 
    85a2:	48 39 c8             	cmp    %rcx,%rax
    85a5:	48 0f 47 c1          	cmova  %rcx,%rax
    85a9:	4c 8d 2c c5 00 00 00 	lea    0x0(,%rax,8),%r13
    85b0:	00 
    85b1:	4c 89 ef             	mov    %r13,%rdi
    85b4:	e8 47 9b ff ff       	callq  2100 <_Znwm@plt>
    85b9:	4d 8b 07             	mov    (%r15),%r8
    85bc:	4c 8b 4c 24 30       	mov    0x30(%rsp),%r9
    85c1:	48 89 44 24 20       	mov    %rax,0x20(%rsp)
    85c6:	49 01 c5             	add    %rax,%r13
    85c9:	49 8b 4f 10          	mov    0x10(%r15),%rcx
    85cd:	4d 29 c1             	sub    %r8,%r9
    85d0:	e9 cd fd ff ff       	jmpq   83a2 <_ZN6PRTreeIdLi6EEclER11BoundingBox+0x5c2>
    85d5:	48 8b b4 24 a8 00 00 	mov    0xa8(%rsp),%rsi
    85dc:	00 
    85dd:	48 2b 8c 24 98 00 00 	sub    0x98(%rsp),%rcx
    85e4:	00 
    85e5:	48 29 c2             	sub    %rax,%rdx
    85e8:	48 89 d0             	mov    %rdx,%rax
    85eb:	48 c1 f8 03          	sar    $0x3,%rax
    85ef:	48 89 74 24 38       	mov    %rsi,0x38(%rsp)
    85f4:	48 2b b4 24 88 00 00 	sub    0x88(%rsp),%rsi
    85fb:	00 
    85fc:	48 c1 f9 03          	sar    $0x3,%rcx
    8600:	48 c1 fe 03          	sar    $0x3,%rsi
    8604:	48 ff ce             	dec    %rsi
    8607:	48 c1 e6 06          	shl    $0x6,%rsi
    860b:	48 01 f1             	add    %rsi,%rcx
    860e:	48 01 c8             	add    %rcx,%rax
    8611:	48 b9 ff ff ff ff ff 	movabs $0xfffffffffffffff,%rcx
    8618:	ff ff 0f 
    861b:	48 39 c8             	cmp    %rcx,%rax
    861e:	0f 84 c5 00 00 00    	je     86e9 <_ZN6PRTreeIdLi6EEclER11BoundingBox+0x909>
    8624:	48 8b 54 24 38       	mov    0x38(%rsp),%rdx
    8629:	48 2b 54 24 60       	sub    0x60(%rsp),%rdx
    862e:	48 8b 44 24 68       	mov    0x68(%rsp),%rax
    8633:	48 c1 fa 03          	sar    $0x3,%rdx
    8637:	48 29 d0             	sub    %rdx,%rax
    863a:	48 83 f8 01          	cmp    $0x1,%rax
    863e:	76 66                	jbe    86a6 <_ZN6PRTreeIdLi6EEclER11BoundingBox+0x8c6>
    8640:	bf 00 02 00 00       	mov    $0x200,%edi
    8645:	e8 b6 9a ff ff       	callq  2100 <_Znwm@plt>
    864a:	48 8b 4c 24 38       	mov    0x38(%rsp),%rcx
    864f:	48 8b 94 24 a8 00 00 	mov    0xa8(%rsp),%rdx
    8656:	00 
    8657:	48 89 41 08          	mov    %rax,0x8(%rcx)
    865b:	48 8b 84 24 90 00 00 	mov    0x90(%rsp),%rax
    8662:	00 
    8663:	48 83 c2 08          	add    $0x8,%rdx
    8667:	4c 89 20             	mov    %r12,(%rax)
    866a:	48 8b 02             	mov    (%rdx),%rax
    866d:	48 8d 88 00 02 00 00 	lea    0x200(%rax),%rcx
    8674:	c4 e1 f9 6e e0       	vmovq  %rax,%xmm4
    8679:	c4 e1 f9 6e c1       	vmovq  %rcx,%xmm0
    867e:	c4 e3 f9 22 ca 01    	vpinsrq $0x1,%rdx,%xmm0,%xmm1
    8684:	c5 d9 6c c4          	vpunpcklqdq %xmm4,%xmm4,%xmm0
    8688:	c4 e3 7d 38 c1 01    	vinserti128 $0x1,%xmm1,%ymm0,%ymm0
    868e:	c5 fe 7f 84 24 90 00 	vmovdqu %ymm0,0x90(%rsp)
    8695:	00 00 
    8697:	c5 f8 77             	vzeroupper 
    869a:	e9 b7 f8 ff ff       	jmpq   7f56 <_ZN6PRTreeIdLi6EEclER11BoundingBox+0x176>
    869f:	31 db                	xor    %ebx,%ebx
    86a1:	e9 36 fb ff ff       	jmpq   81dc <_ZN6PRTreeIdLi6EEclER11BoundingBox+0x3fc>
    86a6:	48 8d 7c 24 60       	lea    0x60(%rsp),%rdi
    86ab:	31 d2                	xor    %edx,%edx
    86ad:	be 01 00 00 00       	mov    $0x1,%esi
    86b2:	e8 99 f5 ff ff       	callq  7c50 <_ZNSt5dequeIP10PRTreeNodeIdLi6EESaIS2_EE17_M_reallocate_mapEmb>
    86b7:	48 8b 84 24 a8 00 00 	mov    0xa8(%rsp),%rax
    86be:	00 
    86bf:	48 89 44 24 38       	mov    %rax,0x38(%rsp)
    86c4:	e9 77 ff ff ff       	jmpq   8640 <_ZN6PRTreeIdLi6EEclER11BoundingBox+0x860>
    86c9:	48 8d 3d 38 79 00 00 	lea    0x7938(%rip),%rdi        # 10008 <_IO_stdin_used+0x8>
    86d0:	e8 bb 99 ff ff       	callq  2090 <_ZSt20__throw_length_errorPKc@plt>
    86d5:	e8 46 9a ff ff       	callq  2120 <__stack_chk_fail@plt>
    86da:	49 bd f8 ff ff ff ff 	movabs $0x7ffffffffffffff8,%r13
    86e1:	ff ff 7f 
    86e4:	e9 c8 fe ff ff       	jmpq   85b1 <_ZN6PRTreeIdLi6EEclER11BoundingBox+0x7d1>
    86e9:	48 8d 3d 18 79 00 00 	lea    0x7918(%rip),%rdi        # 10008 <_IO_stdin_used+0x8>
    86f0:	e8 9b 99 ff ff       	callq  2090 <_ZSt20__throw_length_errorPKc@plt>
    86f5:	48 8d 3d 56 79 00 00 	lea    0x7956(%rip),%rdi        # 10052 <_IO_stdin_used+0x52>
    86fc:	e8 8f 99 ff ff       	callq  2090 <_ZSt20__throw_length_errorPKc@plt>
    8701:	49 89 c4             	mov    %rax,%r12
    8704:	eb 22                	jmp    8728 <_ZN6PRTreeIdLi6EEclER11BoundingBox+0x948>
    8706:	49 89 c4             	mov    %rax,%r12
    8709:	e9 8c 00 00 00       	jmpq   879a <_ZN6PRTreeIdLi6EEclER11BoundingBox+0x9ba>
    870e:	48 8b 7c 24 40       	mov    0x40(%rsp),%rdi
    8713:	48 8b 74 24 50       	mov    0x50(%rsp),%rsi
    8718:	48 29 fe             	sub    %rdi,%rsi
    871b:	48 85 ff             	test   %rdi,%rdi
    871e:	74 08                	je     8728 <_ZN6PRTreeIdLi6EEclER11BoundingBox+0x948>
    8720:	c5 f8 77             	vzeroupper 
    8723:	e8 e8 99 ff ff       	callq  2110 <_ZdlPvm@plt>
    8728:	48 83 7c 24 60 00    	cmpq   $0x0,0x60(%rsp)
    872e:	74 33                	je     8763 <_ZN6PRTreeIdLi6EEclER11BoundingBox+0x983>
    8730:	48 8b 84 24 a8 00 00 	mov    0xa8(%rsp),%rax
    8737:	00 
    8738:	4c 8b b4 24 88 00 00 	mov    0x88(%rsp),%r14
    873f:	00 
    8740:	48 8d 58 08          	lea    0x8(%rax),%rbx
    8744:	c5 f8 77             	vzeroupper 
    8747:	4c 39 f3             	cmp    %r14,%rbx
    874a:	77 65                	ja     87b1 <_ZN6PRTreeIdLi6EEclER11BoundingBox+0x9d1>
    874c:	48 8b 44 24 68       	mov    0x68(%rsp),%rax
    8751:	48 8b 7c 24 60       	mov    0x60(%rsp),%rdi
    8756:	48 8d 34 c5 00 00 00 	lea    0x0(,%rax,8),%rsi
    875d:	00 
    875e:	e8 ad 99 ff ff       	callq  2110 <_ZdlPvm@plt>
    8763:	48 8b 74 24 30       	mov    0x30(%rsp),%rsi
    8768:	4c 29 ee             	sub    %r13,%rsi
    876b:	4d 85 ed             	test   %r13,%r13
    876e:	74 0b                	je     877b <_ZN6PRTreeIdLi6EEclER11BoundingBox+0x99b>
    8770:	4c 89 ef             	mov    %r13,%rdi
    8773:	c5 f8 77             	vzeroupper 
    8776:	e8 95 99 ff ff       	callq  2110 <_ZdlPvm@plt>
    877b:	49 8b 3f             	mov    (%r15),%rdi
    877e:	49 8b 77 10          	mov    0x10(%r15),%rsi
    8782:	48 29 fe             	sub    %rdi,%rsi
    8785:	48 85 ff             	test   %rdi,%rdi
    8788:	74 22                	je     87ac <_ZN6PRTreeIdLi6EEclER11BoundingBox+0x9cc>
    878a:	c5 f8 77             	vzeroupper 
    878d:	e8 7e 99 ff ff       	callq  2110 <_ZdlPvm@plt>
    8792:	4c 89 e7             	mov    %r12,%rdi
    8795:	e8 56 9a ff ff       	callq  21f0 <_Unwind_Resume@plt>
    879a:	48 8b 44 24 38       	mov    0x38(%rsp),%rax
    879f:	49 89 dd             	mov    %rbx,%r13
    87a2:	48 89 44 24 30       	mov    %rax,0x30(%rsp)
    87a7:	e9 7c ff ff ff       	jmpq   8728 <_ZN6PRTreeIdLi6EEclER11BoundingBox+0x948>
    87ac:	c5 f8 77             	vzeroupper 
    87af:	eb e1                	jmp    8792 <_ZN6PRTreeIdLi6EEclER11BoundingBox+0x9b2>
    87b1:	49 8b 3e             	mov    (%r14),%rdi
    87b4:	be 00 02 00 00       	mov    $0x200,%esi
    87b9:	49 83 c6 08          	add    $0x8,%r14
    87bd:	e8 4e 99 ff ff       	callq  2110 <_ZdlPvm@plt>
    87c2:	eb 83                	jmp    8747 <_ZN6PRTreeIdLi6EEclER11BoundingBox+0x967>
    87c4:	e9 3d ff ff ff       	jmpq   8706 <_ZN6PRTreeIdLi6EEclER11BoundingBox+0x926>
    87c9:	49 89 c4             	mov    %rax,%r12
    87cc:	e9 3d ff ff ff       	jmpq   870e <_ZN6PRTreeIdLi6EEclER11BoundingBox+0x92e>
    87d1:	48 89 c7             	mov    %rax,%rdi
    87d4:	eb 05                	jmp    87db <_ZN6PRTreeIdLi6EEclER11BoundingBox+0x9fb>
    87d6:	49 89 c4             	mov    %rax,%r12
    87d9:	eb a0                	jmp    877b <_ZN6PRTreeIdLi6EEclER11BoundingBox+0x99b>
    87db:	c5 f8 77             	vzeroupper 
    87de:	e8 8d 98 ff ff       	callq  2070 <__cxa_begin_catch@plt>
    87e3:	e8 98 99 ff ff       	callq  2180 <__cxa_rethrow@plt>
    87e8:	49 89 c4             	mov    %rax,%r12
    87eb:	c5 f8 77             	vzeroupper 
    87ee:	e8 cd 99 ff ff       	callq  21c0 <__cxa_end_catch@plt>
    87f3:	4c 89 e7             	mov    %r12,%rdi
    87f6:	e8 75 98 ff ff       	callq  2070 <__cxa_begin_catch@plt>
    87fb:	48 8b 44 24 68       	mov    0x68(%rsp),%rax
    8800:	48 8b 7c 24 60       	mov    0x60(%rsp),%rdi
    8805:	48 8d 34 c5 00 00 00 	lea    0x0(,%rax,8),%rsi
    880c:	00 
    880d:	e8 fe 98 ff ff       	callq  2110 <_ZdlPvm@plt>
    8812:	48 c7 44 24 60 00 00 	movq   $0x0,0x60(%rsp)
    8819:	00 00 
    881b:	48 c7 44 24 68 00 00 	movq   $0x0,0x68(%rsp)
    8822:	00 00 
    8824:	e8 57 99 ff ff       	callq  2180 <__cxa_rethrow@plt>
    8829:	49 89 c4             	mov    %rax,%r12
    882c:	c5 f8 77             	vzeroupper 
    882f:	e8 8c 99 ff ff       	callq  21c0 <__cxa_end_catch@plt>
    8834:	e9 42 ff ff ff       	jmpq   877b <_ZN6PRTreeIdLi6EEclER11BoundingBox+0x99b>
    8839:	0f 1f 80 00 00 00 00 	nopl   0x0(%rax)

0000000000008840 <_ZNSt23mersenne_twister_engineImLm32ELm624ELm397ELm31ELm2567483615ELm11ELm4294967295ELm7ELm2636928640ELm15ELm4022730752ELm18ELm1812433253EE11_M_gen_randEv>:
    8840:	c5 fd 6f 1d d8 79 00 	vmovdqa 0x79d8(%rip),%ymm3        # 10220 <_ZZNSt19_Sp_make_shared_tag5_S_tiEvE5__tag+0x20>
    8847:	00 
    8848:	c5 fd 6f 25 f0 79 00 	vmovdqa 0x79f0(%rip),%ymm4        # 10240 <_ZZNSt19_Sp_make_shared_tag5_S_tiEvE5__tag+0x40>
    884f:	00 
    8850:	48 8d 97 00 07 00 00 	lea    0x700(%rdi),%rdx
    8857:	48 89 f8             	mov    %rdi,%rax
    885a:	c5 fd 6f 2d fe 79 00 	vmovdqa 0x79fe(%rip),%ymm5        # 10260 <_ZZNSt19_Sp_make_shared_tag5_S_tiEvE5__tag+0x60>
    8861:	00 
    8862:	c5 fd 6f 35 16 7a 00 	vmovdqa 0x7a16(%rip),%ymm6        # 10280 <_ZZNSt19_Sp_make_shared_tag5_S_tiEvE5__tag+0x80>
    8869:	00 
    886a:	c5 c1 ef ff          	vpxor  %xmm7,%xmm7,%xmm7
    886e:	66 90                	xchg   %ax,%ax
    8870:	c5 dd db 48 08       	vpand  0x8(%rax),%ymm4,%ymm1
    8875:	c5 e5 db 00          	vpand  (%rax),%ymm3,%ymm0
    8879:	48 83 c0 20          	add    $0x20,%rax
    887d:	c5 fd eb c1          	vpor   %ymm1,%ymm0,%ymm0
    8881:	c5 f5 73 d0 01       	vpsrlq $0x1,%ymm0,%ymm1
    8886:	c5 f5 ef 88 48 0c 00 	vpxor  0xc48(%rax),%ymm1,%ymm1
    888d:	00 
    888e:	c5 fd db c5          	vpand  %ymm5,%ymm0,%ymm0
    8892:	c4 e2 7d 29 c7       	vpcmpeqq %ymm7,%ymm0,%ymm0
    8897:	c5 f5 ef d6          	vpxor  %ymm6,%ymm1,%ymm2
    889b:	c4 e3 6d 4c c1 00    	vpblendvb %ymm0,%ymm1,%ymm2,%ymm0
    88a1:	c5 fe 7f 40 e0       	vmovdqu %ymm0,-0x20(%rax)
    88a6:	48 39 c2             	cmp    %rax,%rdx
    88a9:	75 c5                	jne    8870 <_ZNSt23mersenne_twister_engineImLm32ELm624ELm397ELm31ELm2567483615ELm11ELm4294967295ELm7ELm2636928640ELm15ELm4022730752ELm18ELm1812433253EE11_M_gen_randEv+0x30>
    88ab:	c5 f9 6f 05 ed 79 00 	vmovdqa 0x79ed(%rip),%xmm0        # 102a0 <_ZZNSt19_Sp_make_shared_tag5_S_tiEvE5__tag+0xa0>
    88b2:	00 
    88b3:	c5 f9 6f 0d f5 79 00 	vmovdqa 0x79f5(%rip),%xmm1        # 102b0 <_ZZNSt19_Sp_make_shared_tag5_S_tiEvE5__tag+0xb0>
    88ba:	00 
    88bb:	c5 c1 ef ff          	vpxor  %xmm7,%xmm7,%xmm7
    88bf:	c5 f1 db 8f 08 07 00 	vpand  0x708(%rdi),%xmm1,%xmm1
    88c6:	00 
    88c7:	c5 f9 db 87 00 07 00 	vpand  0x700(%rdi),%xmm0,%xmm0
    88ce:	00 
    88cf:	48 8b 87 10 07 00 00 	mov    0x710(%rdi),%rax
    88d6:	48 8b 97 18 07 00 00 	mov    0x718(%rdi),%rdx
    88dd:	48 25 00 00 00 80    	and    $0xffffffff80000000,%rax
    88e3:	81 e2 ff ff ff 7f    	and    $0x7fffffff,%edx
    88e9:	48 09 d0             	or     %rdx,%rax
    88ec:	48 89 c2             	mov    %rax,%rdx
    88ef:	c5 f9 eb c1          	vpor   %xmm1,%xmm0,%xmm0
    88f3:	48 d1 ea             	shr    %rdx
    88f6:	48 33 97 78 13 00 00 	xor    0x1378(%rdi),%rdx
    88fd:	c5 f1 73 d0 01       	vpsrlq $0x1,%xmm0,%xmm1
    8902:	c5 f9 db 05 b6 79 00 	vpand  0x79b6(%rip),%xmm0,%xmm0        # 102c0 <_ZZNSt19_Sp_make_shared_tag5_S_tiEvE5__tag+0xc0>
    8909:	00 
    890a:	c5 f1 ef 8f 68 13 00 	vpxor  0x1368(%rdi),%xmm1,%xmm1
    8911:	00 
    8912:	c5 f1 ef 15 b6 79 00 	vpxor  0x79b6(%rip),%xmm1,%xmm2        # 102d0 <_ZZNSt19_Sp_make_shared_tag5_S_tiEvE5__tag+0xd0>
    8919:	00 
    891a:	c4 e2 79 29 c7       	vpcmpeqq %xmm7,%xmm0,%xmm0
    891f:	c4 e3 69 4c c1 00    	vpblendvb %xmm0,%xmm1,%xmm2,%xmm0
    8925:	c5 fa 7f 87 00 07 00 	vmovdqu %xmm0,0x700(%rdi)
    892c:	00 
    892d:	a8 01                	test   $0x1,%al
    892f:	74 08                	je     8939 <_ZNSt23mersenne_twister_engineImLm32ELm624ELm397ELm31ELm2567483615ELm11ELm4294967295ELm7ELm2636928640ELm15ELm4022730752ELm18ELm1812433253EE11_M_gen_randEv+0xf9>
    8931:	b8 df b0 08 99       	mov    $0x9908b0df,%eax
    8936:	48 31 c2             	xor    %rax,%rdx
    8939:	48 89 97 10 07 00 00 	mov    %rdx,0x710(%rdi)
    8940:	48 8d 87 18 07 00 00 	lea    0x718(%rdi),%rax
    8947:	48 8d 97 78 13 00 00 	lea    0x1378(%rdi),%rdx
    894e:	c5 e9 ef d2          	vpxor  %xmm2,%xmm2,%xmm2
    8952:	c5 dd db 48 08       	vpand  0x8(%rax),%ymm4,%ymm1
    8957:	48 83 c0 20          	add    $0x20,%rax
    895b:	c5 e5 db 40 e0       	vpand  -0x20(%rax),%ymm3,%ymm0
    8960:	c5 fd eb c1          	vpor   %ymm1,%ymm0,%ymm0
    8964:	c5 f5 73 d0 01       	vpsrlq $0x1,%ymm0,%ymm1
    8969:	c5 f5 ef 88 c8 f8 ff 	vpxor  -0x738(%rax),%ymm1,%ymm1
    8970:	ff 
    8971:	c5 fd db c5          	vpand  %ymm5,%ymm0,%ymm0
    8975:	c4 e2 7d 29 c2       	vpcmpeqq %ymm2,%ymm0,%ymm0
    897a:	c5 f5 ef fe          	vpxor  %ymm6,%ymm1,%ymm7
    897e:	c4 e3 45 4c c1 00    	vpblendvb %ymm0,%ymm1,%ymm7,%ymm0
    8984:	c5 fe 7f 40 e0       	vmovdqu %ymm0,-0x20(%rax)
    8989:	48 39 c2             	cmp    %rax,%rdx
    898c:	75 c4                	jne    8952 <_ZNSt23mersenne_twister_engineImLm32ELm624ELm397ELm31ELm2567483615ELm11ELm4294967295ELm7ELm2636928640ELm15ELm4022730752ELm18ELm1812433253EE11_M_gen_randEv+0x112>
    898e:	48 8b 87 78 13 00 00 	mov    0x1378(%rdi),%rax
    8995:	48 8b 17             	mov    (%rdi),%rdx
    8998:	48 25 00 00 00 80    	and    $0xffffffff80000000,%rax
    899e:	81 e2 ff ff ff 7f    	and    $0x7fffffff,%edx
    89a4:	48 09 d0             	or     %rdx,%rax
    89a7:	48 89 c2             	mov    %rax,%rdx
    89aa:	48 d1 ea             	shr    %rdx
    89ad:	48 33 97 60 0c 00 00 	xor    0xc60(%rdi),%rdx
    89b4:	a8 01                	test   $0x1,%al
    89b6:	74 08                	je     89c0 <_ZNSt23mersenne_twister_engineImLm32ELm624ELm397ELm31ELm2567483615ELm11ELm4294967295ELm7ELm2636928640ELm15ELm4022730752ELm18ELm1812433253EE11_M_gen_randEv+0x180>
    89b8:	b8 df b0 08 99       	mov    $0x9908b0df,%eax
    89bd:	48 31 c2             	xor    %rax,%rdx
    89c0:	48 89 97 78 13 00 00 	mov    %rdx,0x1378(%rdi)
    89c7:	48 c7 87 80 13 00 00 	movq   $0x0,0x1380(%rdi)
    89ce:	00 00 00 00 
    89d2:	c5 f8 77             	vzeroupper 
    89d5:	c3                   	retq   
    89d6:	66 2e 0f 1f 84 00 00 	nopw   %cs:0x0(%rax,%rax,1)
    89dd:	00 00 00 

00000000000089e0 <_ZNSt6vectorISt4pairId11BoundingBoxESaIS2_EE17_M_realloc_insertIJRKS2_EEEvN9__gnu_cxx17__normal_iteratorIPS2_S4_EEDpOT_>:
    89e0:	41 57                	push   %r15
    89e2:	41 56                	push   %r14
    89e4:	48 b9 cd cc cc cc cc 	movabs $0xcccccccccccccccd,%rcx
    89eb:	cc cc cc 
    89ee:	41 55                	push   %r13
    89f0:	41 54                	push   %r12
    89f2:	49 89 fd             	mov    %rdi,%r13
    89f5:	55                   	push   %rbp
    89f6:	53                   	push   %rbx
    89f7:	48 83 ec 28          	sub    $0x28,%rsp
    89fb:	4c 8b 77 08          	mov    0x8(%rdi),%r14
    89ff:	4c 8b 27             	mov    (%rdi),%r12
    8a02:	48 bf 33 33 33 33 33 	movabs $0x333333333333333,%rdi
    8a09:	33 33 03 
    8a0c:	4c 89 f0             	mov    %r14,%rax
    8a0f:	4c 29 e0             	sub    %r12,%rax
    8a12:	48 c1 f8 03          	sar    $0x3,%rax
    8a16:	48 0f af c1          	imul   %rcx,%rax
    8a1a:	48 39 f8             	cmp    %rdi,%rax
    8a1d:	0f 84 99 01 00 00    	je     8bbc <_ZNSt6vectorISt4pairId11BoundingBoxESaIS2_EE17_M_realloc_insertIJRKS2_EEEvN9__gnu_cxx17__normal_iteratorIPS2_S4_EEDpOT_+0x1dc>
    8a23:	48 85 c0             	test   %rax,%rax
    8a26:	b9 01 00 00 00       	mov    $0x1,%ecx
    8a2b:	48 89 f5             	mov    %rsi,%rbp
    8a2e:	48 0f 45 c8          	cmovne %rax,%rcx
    8a32:	48 01 c8             	add    %rcx,%rax
    8a35:	0f 92 c1             	setb   %cl
    8a38:	4c 29 e6             	sub    %r12,%rsi
    8a3b:	0f b6 c9             	movzbl %cl,%ecx
    8a3e:	48 85 c9             	test   %rcx,%rcx
    8a41:	0f 85 69 01 00 00    	jne    8bb0 <_ZNSt6vectorISt4pairId11BoundingBoxESaIS2_EE17_M_realloc_insertIJRKS2_EEEvN9__gnu_cxx17__normal_iteratorIPS2_S4_EEDpOT_+0x1d0>
    8a47:	48 85 c0             	test   %rax,%rax
    8a4a:	0f 85 20 01 00 00    	jne    8b70 <_ZNSt6vectorISt4pairId11BoundingBoxESaIS2_EE17_M_realloc_insertIJRKS2_EEEvN9__gnu_cxx17__normal_iteratorIPS2_S4_EEDpOT_+0x190>
    8a50:	bb 28 00 00 00       	mov    $0x28,%ebx
    8a55:	48 c7 44 24 08 00 00 	movq   $0x0,0x8(%rsp)
    8a5c:	00 00 
    8a5e:	45 31 ff             	xor    %r15d,%r15d
    8a61:	c5 fa 6f 1a          	vmovdqu (%rdx),%xmm3
    8a65:	c5 fa 6f 62 10       	vmovdqu 0x10(%rdx),%xmm4
    8a6a:	48 8b 42 20          	mov    0x20(%rdx),%rax
    8a6e:	49 89 44 37 20       	mov    %rax,0x20(%r15,%rsi,1)
    8a73:	c4 c1 7a 7f 1c 37    	vmovdqu %xmm3,(%r15,%rsi,1)
    8a79:	c4 c1 7a 7f 64 37 10 	vmovdqu %xmm4,0x10(%r15,%rsi,1)
    8a80:	4c 39 e5             	cmp    %r12,%rbp
    8a83:	74 62                	je     8ae7 <_ZNSt6vectorISt4pairId11BoundingBoxESaIS2_EE17_M_realloc_insertIJRKS2_EEEvN9__gnu_cxx17__normal_iteratorIPS2_S4_EEDpOT_+0x107>
    8a85:	4c 89 fa             	mov    %r15,%rdx
    8a88:	4c 89 e0             	mov    %r12,%rax
    8a8b:	0f 1f 44 00 00       	nopl   0x0(%rax,%rax,1)
    8a90:	c5 fa 6f 08          	vmovdqu (%rax),%xmm1
    8a94:	48 83 c0 28          	add    $0x28,%rax
    8a98:	48 83 c2 28          	add    $0x28,%rdx
    8a9c:	c5 fa 7f 4a d8       	vmovdqu %xmm1,-0x28(%rdx)
    8aa1:	c5 fa 6f 50 e8       	vmovdqu -0x18(%rax),%xmm2
    8aa6:	c5 fa 7f 52 e8       	vmovdqu %xmm2,-0x18(%rdx)
    8aab:	48 8b 48 f8          	mov    -0x8(%rax),%rcx
    8aaf:	48 89 4a f8          	mov    %rcx,-0x8(%rdx)
    8ab3:	48 39 e8             	cmp    %rbp,%rax
    8ab6:	75 d8                	jne    8a90 <_ZNSt6vectorISt4pairId11BoundingBoxESaIS2_EE17_M_realloc_insertIJRKS2_EEEvN9__gnu_cxx17__normal_iteratorIPS2_S4_EEDpOT_+0xb0>
    8ab8:	48 8d 45 d8          	lea    -0x28(%rbp),%rax
    8abc:	48 ba cd cc cc cc cc 	movabs $0xccccccccccccccd,%rdx
    8ac3:	cc cc 0c 
    8ac6:	4c 29 e0             	sub    %r12,%rax
    8ac9:	48 c1 e8 03          	shr    $0x3,%rax
    8acd:	48 0f af c2          	imul   %rdx,%rax
    8ad1:	48 ba ff ff ff ff ff 	movabs $0x1fffffffffffffff,%rdx
    8ad8:	ff ff 1f 
    8adb:	48 21 d0             	and    %rdx,%rax
    8ade:	48 8d 44 80 0a       	lea    0xa(%rax,%rax,4),%rax
    8ae3:	49 8d 1c c7          	lea    (%r15,%rax,8),%rbx
    8ae7:	4c 39 f5             	cmp    %r14,%rbp
    8aea:	74 40                	je     8b2c <_ZNSt6vectorISt4pairId11BoundingBoxESaIS2_EE17_M_realloc_insertIJRKS2_EEEvN9__gnu_cxx17__normal_iteratorIPS2_S4_EEDpOT_+0x14c>
    8aec:	49 29 ee             	sub    %rbp,%r14
    8aef:	48 ba cd cc cc cc cc 	movabs $0xccccccccccccccd,%rdx
    8af6:	cc cc 0c 
    8af9:	48 89 df             	mov    %rbx,%rdi
    8afc:	48 89 ee             	mov    %rbp,%rsi
    8aff:	49 8d 46 d8          	lea    -0x28(%r14),%rax
    8b03:	48 c1 e8 03          	shr    $0x3,%rax
    8b07:	48 0f af c2          	imul   %rdx,%rax
    8b0b:	48 ba ff ff ff ff ff 	movabs $0x1fffffffffffffff,%rdx
    8b12:	ff ff 1f 
    8b15:	48 21 d0             	and    %rdx,%rax
    8b18:	4c 8d 74 80 05       	lea    0x5(%rax,%rax,4),%r14
    8b1d:	49 c1 e6 03          	shl    $0x3,%r14
    8b21:	4c 89 f2             	mov    %r14,%rdx
    8b24:	4c 01 f3             	add    %r14,%rbx
    8b27:	e8 94 95 ff ff       	callq  20c0 <memcpy@plt>
    8b2c:	4d 85 e4             	test   %r12,%r12
    8b2f:	74 0f                	je     8b40 <_ZNSt6vectorISt4pairId11BoundingBoxESaIS2_EE17_M_realloc_insertIJRKS2_EEEvN9__gnu_cxx17__normal_iteratorIPS2_S4_EEDpOT_+0x160>
    8b31:	49 8b 75 10          	mov    0x10(%r13),%rsi
    8b35:	4c 89 e7             	mov    %r12,%rdi
    8b38:	4c 29 e6             	sub    %r12,%rsi
    8b3b:	e8 d0 95 ff ff       	callq  2110 <_ZdlPvm@plt>
    8b40:	48 8b 44 24 08       	mov    0x8(%rsp),%rax
    8b45:	c4 c1 f9 6e ef       	vmovq  %r15,%xmm5
    8b4a:	c4 e3 d1 22 c3 01    	vpinsrq $0x1,%rbx,%xmm5,%xmm0
    8b50:	c4 c1 7a 7f 45 00    	vmovdqu %xmm0,0x0(%r13)
    8b56:	49 89 45 10          	mov    %rax,0x10(%r13)
    8b5a:	48 83 c4 28          	add    $0x28,%rsp
    8b5e:	5b                   	pop    %rbx
    8b5f:	5d                   	pop    %rbp
    8b60:	41 5c                	pop    %r12
    8b62:	41 5d                	pop    %r13
    8b64:	41 5e                	pop    %r14
    8b66:	41 5f                	pop    %r15
    8b68:	c3                   	retq   
    8b69:	0f 1f 80 00 00 00 00 	nopl   0x0(%rax)
    8b70:	48 39 f8             	cmp    %rdi,%rax
    8b73:	48 0f 47 c7          	cmova  %rdi,%rax
    8b77:	48 8d 1c 80          	lea    (%rax,%rax,4),%rbx
    8b7b:	48 c1 e3 03          	shl    $0x3,%rbx
    8b7f:	48 89 df             	mov    %rbx,%rdi
    8b82:	48 89 54 24 18       	mov    %rdx,0x18(%rsp)
    8b87:	48 89 74 24 10       	mov    %rsi,0x10(%rsp)
    8b8c:	e8 6f 95 ff ff       	callq  2100 <_Znwm@plt>
    8b91:	49 89 c7             	mov    %rax,%r15
    8b94:	48 01 d8             	add    %rbx,%rax
    8b97:	48 8b 74 24 10       	mov    0x10(%rsp),%rsi
    8b9c:	48 8b 54 24 18       	mov    0x18(%rsp),%rdx
    8ba1:	48 89 44 24 08       	mov    %rax,0x8(%rsp)
    8ba6:	49 8d 5f 28          	lea    0x28(%r15),%rbx
    8baa:	e9 b2 fe ff ff       	jmpq   8a61 <_ZNSt6vectorISt4pairId11BoundingBoxESaIS2_EE17_M_realloc_insertIJRKS2_EEEvN9__gnu_cxx17__normal_iteratorIPS2_S4_EEDpOT_+0x81>
    8baf:	90                   	nop
    8bb0:	48 bb f8 ff ff ff ff 	movabs $0x7ffffffffffffff8,%rbx
    8bb7:	ff ff 7f 
    8bba:	eb c3                	jmp    8b7f <_ZNSt6vectorISt4pairId11BoundingBoxESaIS2_EE17_M_realloc_insertIJRKS2_EEEvN9__gnu_cxx17__normal_iteratorIPS2_S4_EEDpOT_+0x19f>
    8bbc:	48 8d 3d 75 74 00 00 	lea    0x7475(%rip),%rdi        # 10038 <_IO_stdin_used+0x38>
    8bc3:	e8 c8 94 ff ff       	callq  2090 <_ZSt20__throw_length_errorPKc@plt>
    8bc8:	0f 1f 84 00 00 00 00 	nopl   0x0(%rax,%rax,1)
    8bcf:	00 

0000000000008bd0 <_ZSt16__insertion_sortIN9__gnu_cxx17__normal_iteratorIPSt4pairId11BoundingBoxESt6vectorIS4_SaIS4_EEEENS0_5__ops15_Iter_comp_iterIZN12PseudoPRTreeIdLi6EE9constructIS9_EEvRSt10shared_ptrI16PseudoPRTreeNodeIdLi6EEET_SK_iEUlRKS4_SM_E_EEEvSK_SK_T0_>:
    8bd0:	48 39 fe             	cmp    %rdi,%rsi
    8bd3:	0f 84 f9 02 00 00    	je     8ed2 <_ZSt16__insertion_sortIN9__gnu_cxx17__normal_iteratorIPSt4pairId11BoundingBoxESt6vectorIS4_SaIS4_EEEENS0_5__ops15_Iter_comp_iterIZN12PseudoPRTreeIdLi6EE9constructIS9_EEvRSt10shared_ptrI16PseudoPRTreeNodeIdLi6EEET_SK_iEUlRKS4_SM_E_EEEvSK_SK_T0_+0x302>
    8bd9:	48 89 d0             	mov    %rdx,%rax
    8bdc:	48 8d 57 28          	lea    0x28(%rdi),%rdx
    8be0:	49 89 f2             	mov    %rsi,%r10
    8be3:	48 39 f2             	cmp    %rsi,%rdx
    8be6:	0f 84 e6 02 00 00    	je     8ed2 <_ZSt16__insertion_sortIN9__gnu_cxx17__normal_iteratorIPSt4pairId11BoundingBoxESt6vectorIS4_SaIS4_EEEENS0_5__ops15_Iter_comp_iterIZN12PseudoPRTreeIdLi6EE9constructIS9_EEvRSt10shared_ptrI16PseudoPRTreeNodeIdLi6EEET_SK_iEUlRKS4_SM_E_EEEvSK_SK_T0_+0x302>
    8bec:	55                   	push   %rbp
    8bed:	49 89 f8             	mov    %rdi,%r8
    8bf0:	49 bb cd cc cc cc cc 	movabs $0xcccccccccccccccd,%r11
    8bf7:	cc cc cc 
    8bfa:	44 8b 08             	mov    (%rax),%r9d
    8bfd:	48 89 e5             	mov    %rsp,%rbp
    8c00:	48 83 e4 e0          	and    $0xffffffffffffffe0,%rsp
    8c04:	66 66 2e 0f 1f 84 00 	data16 nopw %cs:0x0(%rax,%rax,1)
    8c0b:	00 00 00 00 
    8c0f:	90                   	nop
    8c10:	c5 fb 10 0a          	vmovsd (%rdx),%xmm1
    8c14:	48 8d 4a 28          	lea    0x28(%rdx),%rcx
    8c18:	45 85 c9             	test   %r9d,%r9d
    8c1b:	0f 84 3f 01 00 00    	je     8d60 <_ZSt16__insertion_sortIN9__gnu_cxx17__normal_iteratorIPSt4pairId11BoundingBoxESt6vectorIS4_SaIS4_EEEENS0_5__ops15_Iter_comp_iterIZN12PseudoPRTreeIdLi6EE9constructIS9_EEvRSt10shared_ptrI16PseudoPRTreeNodeIdLi6EEET_SK_iEUlRKS4_SM_E_EEEvSK_SK_T0_+0x190>
    8c21:	41 83 f9 01          	cmp    $0x1,%r9d
    8c25:	0f 84 35 02 00 00    	je     8e60 <_ZSt16__insertion_sortIN9__gnu_cxx17__normal_iteratorIPSt4pairId11BoundingBoxESt6vectorIS4_SaIS4_EEEENS0_5__ops15_Iter_comp_iterIZN12PseudoPRTreeIdLi6EE9constructIS9_EEvRSt10shared_ptrI16PseudoPRTreeNodeIdLi6EEET_SK_iEUlRKS4_SM_E_EEEvSK_SK_T0_+0x290>
    8c2b:	41 83 f9 02          	cmp    $0x2,%r9d
    8c2f:	0f 84 ab 01 00 00    	je     8de0 <_ZSt16__insertion_sortIN9__gnu_cxx17__normal_iteratorIPSt4pairId11BoundingBoxESt6vectorIS4_SaIS4_EEEENS0_5__ops15_Iter_comp_iterIZN12PseudoPRTreeIdLi6EE9constructIS9_EEvRSt10shared_ptrI16PseudoPRTreeNodeIdLi6EEET_SK_iEUlRKS4_SM_E_EEEvSK_SK_T0_+0x210>
    8c35:	c5 fb 10 42 20       	vmovsd 0x20(%rdx),%xmm0
    8c3a:	c5 f9 2f 47 20       	vcomisd 0x20(%rdi),%xmm0
    8c3f:	0f 87 8b 00 00 00    	ja     8cd0 <_ZSt16__insertion_sortIN9__gnu_cxx17__normal_iteratorIPSt4pairId11BoundingBoxESt6vectorIS4_SaIS4_EEEENS0_5__ops15_Iter_comp_iterIZN12PseudoPRTreeIdLi6EE9constructIS9_EEvRSt10shared_ptrI16PseudoPRTreeNodeIdLi6EEET_SK_iEUlRKS4_SM_E_EEEvSK_SK_T0_+0x100>
    8c45:	c5 fb 10 59 f8       	vmovsd -0x8(%rcx),%xmm3
    8c4a:	c5 fb 10 61 e0       	vmovsd -0x20(%rcx),%xmm4
    8c4f:	4c 89 c6             	mov    %r8,%rsi
    8c52:	48 89 d0             	mov    %rdx,%rax
    8c55:	c4 c1 79 2f 58 20    	vcomisd 0x20(%r8),%xmm3
    8c5b:	c5 fb 10 51 e8       	vmovsd -0x18(%rcx),%xmm2
    8c60:	c5 fb 10 69 f0       	vmovsd -0x10(%rcx),%xmm5
    8c65:	76 36                	jbe    8c9d <_ZSt16__insertion_sortIN9__gnu_cxx17__normal_iteratorIPSt4pairId11BoundingBoxESt6vectorIS4_SaIS4_EEEENS0_5__ops15_Iter_comp_iterIZN12PseudoPRTreeIdLi6EE9constructIS9_EEvRSt10shared_ptrI16PseudoPRTreeNodeIdLi6EEET_SK_iEUlRKS4_SM_E_EEEvSK_SK_T0_+0xcd>
    8c67:	66 0f 1f 84 00 00 00 	nopw   0x0(%rax,%rax,1)
    8c6e:	00 00 
    8c70:	c5 fa 6f 76 08       	vmovdqu 0x8(%rsi),%xmm6
    8c75:	48 89 c2             	mov    %rax,%rdx
    8c78:	c5 fb 10 06          	vmovsd (%rsi),%xmm0
    8c7c:	48 89 f0             	mov    %rsi,%rax
    8c7f:	48 8d 76 d8          	lea    -0x28(%rsi),%rsi
    8c83:	c5 fa 7f 72 08       	vmovdqu %xmm6,0x8(%rdx)
    8c88:	c5 fa 6f 7e 40       	vmovdqu 0x40(%rsi),%xmm7
    8c8d:	c5 fb 11 02          	vmovsd %xmm0,(%rdx)
    8c91:	c5 fa 7f 7a 18       	vmovdqu %xmm7,0x18(%rdx)
    8c96:	c5 f9 2f 58 f8       	vcomisd -0x8(%rax),%xmm3
    8c9b:	77 d3                	ja     8c70 <_ZSt16__insertion_sortIN9__gnu_cxx17__normal_iteratorIPSt4pairId11BoundingBoxESt6vectorIS4_SaIS4_EEEENS0_5__ops15_Iter_comp_iterIZN12PseudoPRTreeIdLi6EE9constructIS9_EEvRSt10shared_ptrI16PseudoPRTreeNodeIdLi6EEET_SK_iEUlRKS4_SM_E_EEEvSK_SK_T0_+0xa0>
    8c9d:	c5 e9 14 d5          	vunpcklpd %xmm5,%xmm2,%xmm2
    8ca1:	c5 f1 14 cc          	vunpcklpd %xmm4,%xmm1,%xmm1
    8ca5:	48 89 ca             	mov    %rcx,%rdx
    8ca8:	c5 fb 11 58 20       	vmovsd %xmm3,0x20(%rax)
    8cad:	c4 e3 75 18 ca 01    	vinsertf128 $0x1,%xmm2,%ymm1,%ymm1
    8cb3:	c5 fd 11 08          	vmovupd %ymm1,(%rax)
    8cb7:	49 83 c0 28          	add    $0x28,%r8
    8cbb:	49 39 ca             	cmp    %rcx,%r10
    8cbe:	0f 85 4c ff ff ff    	jne    8c10 <_ZSt16__insertion_sortIN9__gnu_cxx17__normal_iteratorIPSt4pairId11BoundingBoxESt6vectorIS4_SaIS4_EEEENS0_5__ops15_Iter_comp_iterIZN12PseudoPRTreeIdLi6EE9constructIS9_EEvRSt10shared_ptrI16PseudoPRTreeNodeIdLi6EEET_SK_iEUlRKS4_SM_E_EEEvSK_SK_T0_+0x40>
    8cc4:	c5 f8 77             	vzeroupper 
    8cc7:	c9                   	leaveq 
    8cc8:	c3                   	retq   
    8cc9:	0f 1f 80 00 00 00 00 	nopl   0x0(%rax)
    8cd0:	c5 fa 6f 69 d8       	vmovdqu -0x28(%rcx),%xmm5
    8cd5:	c5 fa 6f 61 e8       	vmovdqu -0x18(%rcx),%xmm4
    8cda:	48 89 d6             	mov    %rdx,%rsi
    8cdd:	48 8b 41 f8          	mov    -0x8(%rcx),%rax
    8ce1:	48 29 fe             	sub    %rdi,%rsi
    8ce4:	48 89 44 24 f0       	mov    %rax,-0x10(%rsp)
    8ce9:	48 89 f0             	mov    %rsi,%rax
    8cec:	48 c1 f8 03          	sar    $0x3,%rax
    8cf0:	49 0f af c3          	imul   %r11,%rax
    8cf4:	c5 f9 7f 6c 24 d0    	vmovdqa %xmm5,-0x30(%rsp)
    8cfa:	c5 f9 7f 64 24 e0    	vmovdqa %xmm4,-0x20(%rsp)
    8d00:	48 85 f6             	test   %rsi,%rsi
    8d03:	7e 31                	jle    8d36 <_ZSt16__insertion_sortIN9__gnu_cxx17__normal_iteratorIPSt4pairId11BoundingBoxESt6vectorIS4_SaIS4_EEEENS0_5__ops15_Iter_comp_iterIZN12PseudoPRTreeIdLi6EE9constructIS9_EEvRSt10shared_ptrI16PseudoPRTreeNodeIdLi6EEET_SK_iEUlRKS4_SM_E_EEEvSK_SK_T0_+0x166>
    8d05:	66 66 2e 0f 1f 84 00 	data16 nopw %cs:0x0(%rax,%rax,1)
    8d0c:	00 00 00 00 
    8d10:	48 83 ea 28          	sub    $0x28,%rdx
    8d14:	48 ff c8             	dec    %rax
    8d17:	c5 fb 10 02          	vmovsd (%rdx),%xmm0
    8d1b:	c5 fa 6f 72 08       	vmovdqu 0x8(%rdx),%xmm6
    8d20:	c5 fa 6f 7a 18       	vmovdqu 0x18(%rdx),%xmm7
    8d25:	c5 fb 11 42 28       	vmovsd %xmm0,0x28(%rdx)
    8d2a:	c5 fa 7f 72 30       	vmovdqu %xmm6,0x30(%rdx)
    8d2f:	c5 fa 7f 7a 40       	vmovdqu %xmm7,0x40(%rdx)
    8d34:	75 da                	jne    8d10 <_ZSt16__insertion_sortIN9__gnu_cxx17__normal_iteratorIPSt4pairId11BoundingBoxESt6vectorIS4_SaIS4_EEEENS0_5__ops15_Iter_comp_iterIZN12PseudoPRTreeIdLi6EE9constructIS9_EEvRSt10shared_ptrI16PseudoPRTreeNodeIdLi6EEET_SK_iEUlRKS4_SM_E_EEEvSK_SK_T0_+0x140>
    8d36:	c5 fa 6f 6c 24 d8    	vmovdqu -0x28(%rsp),%xmm5
    8d3c:	c5 fb 11 0f          	vmovsd %xmm1,(%rdi)
    8d40:	48 89 ca             	mov    %rcx,%rdx
    8d43:	c5 fa 6f 5c 24 e8    	vmovdqu -0x18(%rsp),%xmm3
    8d49:	c5 fa 7f 6f 08       	vmovdqu %xmm5,0x8(%rdi)
    8d4e:	c5 fa 7f 5f 18       	vmovdqu %xmm3,0x18(%rdi)
    8d53:	e9 5f ff ff ff       	jmpq   8cb7 <_ZSt16__insertion_sortIN9__gnu_cxx17__normal_iteratorIPSt4pairId11BoundingBoxESt6vectorIS4_SaIS4_EEEENS0_5__ops15_Iter_comp_iterIZN12PseudoPRTreeIdLi6EE9constructIS9_EEvRSt10shared_ptrI16PseudoPRTreeNodeIdLi6EEET_SK_iEUlRKS4_SM_E_EEEvSK_SK_T0_+0xe7>
    8d58:	0f 1f 84 00 00 00 00 	nopl   0x0(%rax,%rax,1)
    8d5f:	00 
    8d60:	c5 fb 10 47 08       	vmovsd 0x8(%rdi),%xmm0
    8d65:	c5 f9 2f 42 08       	vcomisd 0x8(%rdx),%xmm0
    8d6a:	0f 87 60 ff ff ff    	ja     8cd0 <_ZSt16__insertion_sortIN9__gnu_cxx17__normal_iteratorIPSt4pairId11BoundingBoxESt6vectorIS4_SaIS4_EEEENS0_5__ops15_Iter_comp_iterIZN12PseudoPRTreeIdLi6EE9constructIS9_EEvRSt10shared_ptrI16PseudoPRTreeNodeIdLi6EEET_SK_iEUlRKS4_SM_E_EEEvSK_SK_T0_+0x100>
    8d70:	c5 fb 10 61 e0       	vmovsd -0x20(%rcx),%xmm4
    8d75:	c5 fb 10 51 e8       	vmovsd -0x18(%rcx),%xmm2
    8d7a:	4c 89 c6             	mov    %r8,%rsi
    8d7d:	48 89 d0             	mov    %rdx,%rax
    8d80:	c4 c1 79 2f 60 08    	vcomisd 0x8(%r8),%xmm4
    8d86:	c5 fb 10 69 f0       	vmovsd -0x10(%rcx),%xmm5
    8d8b:	c5 fb 10 59 f8       	vmovsd -0x8(%rcx),%xmm3
    8d90:	0f 83 07 ff ff ff    	jae    8c9d <_ZSt16__insertion_sortIN9__gnu_cxx17__normal_iteratorIPSt4pairId11BoundingBoxESt6vectorIS4_SaIS4_EEEENS0_5__ops15_Iter_comp_iterIZN12PseudoPRTreeIdLi6EE9constructIS9_EEvRSt10shared_ptrI16PseudoPRTreeNodeIdLi6EEET_SK_iEUlRKS4_SM_E_EEEvSK_SK_T0_+0xcd>
    8d96:	66 2e 0f 1f 84 00 00 	nopw   %cs:0x0(%rax,%rax,1)
    8d9d:	00 00 00 
    8da0:	c5 fa 6f 76 08       	vmovdqu 0x8(%rsi),%xmm6
    8da5:	48 89 c2             	mov    %rax,%rdx
    8da8:	c5 fb 10 06          	vmovsd (%rsi),%xmm0
    8dac:	48 89 f0             	mov    %rsi,%rax
    8daf:	48 8d 76 d8          	lea    -0x28(%rsi),%rsi
    8db3:	c5 fa 7f 72 08       	vmovdqu %xmm6,0x8(%rdx)
    8db8:	c5 fa 6f 7e 40       	vmovdqu 0x40(%rsi),%xmm7
    8dbd:	c5 fb 11 02          	vmovsd %xmm0,(%rdx)
    8dc1:	c5 fa 7f 7a 18       	vmovdqu %xmm7,0x18(%rdx)
    8dc6:	c5 f9 2f 60 e0       	vcomisd -0x20(%rax),%xmm4
    8dcb:	72 d3                	jb     8da0 <_ZSt16__insertion_sortIN9__gnu_cxx17__normal_iteratorIPSt4pairId11BoundingBoxESt6vectorIS4_SaIS4_EEEENS0_5__ops15_Iter_comp_iterIZN12PseudoPRTreeIdLi6EE9constructIS9_EEvRSt10shared_ptrI16PseudoPRTreeNodeIdLi6EEET_SK_iEUlRKS4_SM_E_EEEvSK_SK_T0_+0x1d0>
    8dcd:	e9 cb fe ff ff       	jmpq   8c9d <_ZSt16__insertion_sortIN9__gnu_cxx17__normal_iteratorIPSt4pairId11BoundingBoxESt6vectorIS4_SaIS4_EEEENS0_5__ops15_Iter_comp_iterIZN12PseudoPRTreeIdLi6EE9constructIS9_EEvRSt10shared_ptrI16PseudoPRTreeNodeIdLi6EEET_SK_iEUlRKS4_SM_E_EEEvSK_SK_T0_+0xcd>
    8dd2:	66 66 2e 0f 1f 84 00 	data16 nopw %cs:0x0(%rax,%rax,1)
    8dd9:	00 00 00 00 
    8ddd:	0f 1f 00             	nopl   (%rax)
    8de0:	c5 fb 10 47 18       	vmovsd 0x18(%rdi),%xmm0
    8de5:	c5 f9 2f 42 18       	vcomisd 0x18(%rdx),%xmm0
    8dea:	0f 87 e0 fe ff ff    	ja     8cd0 <_ZSt16__insertion_sortIN9__gnu_cxx17__normal_iteratorIPSt4pairId11BoundingBoxESt6vectorIS4_SaIS4_EEEENS0_5__ops15_Iter_comp_iterIZN12PseudoPRTreeIdLi6EE9constructIS9_EEvRSt10shared_ptrI16PseudoPRTreeNodeIdLi6EEET_SK_iEUlRKS4_SM_E_EEEvSK_SK_T0_+0x100>
    8df0:	c5 fb 10 69 f0       	vmovsd -0x10(%rcx),%xmm5
    8df5:	c5 fb 10 61 e0       	vmovsd -0x20(%rcx),%xmm4
    8dfa:	4c 89 c6             	mov    %r8,%rsi
    8dfd:	48 89 d0             	mov    %rdx,%rax
    8e00:	c4 c1 79 2f 68 18    	vcomisd 0x18(%r8),%xmm5
    8e06:	c5 fb 10 51 e8       	vmovsd -0x18(%rcx),%xmm2
    8e0b:	c5 fb 10 59 f8       	vmovsd -0x8(%rcx),%xmm3
    8e10:	0f 83 87 fe ff ff    	jae    8c9d <_ZSt16__insertion_sortIN9__gnu_cxx17__normal_iteratorIPSt4pairId11BoundingBoxESt6vectorIS4_SaIS4_EEEENS0_5__ops15_Iter_comp_iterIZN12PseudoPRTreeIdLi6EE9constructIS9_EEvRSt10shared_ptrI16PseudoPRTreeNodeIdLi6EEET_SK_iEUlRKS4_SM_E_EEEvSK_SK_T0_+0xcd>
    8e16:	66 2e 0f 1f 84 00 00 	nopw   %cs:0x0(%rax,%rax,1)
    8e1d:	00 00 00 
    8e20:	c5 fa 6f 76 08       	vmovdqu 0x8(%rsi),%xmm6
    8e25:	48 89 c2             	mov    %rax,%rdx
    8e28:	c5 fb 10 06          	vmovsd (%rsi),%xmm0
    8e2c:	48 89 f0             	mov    %rsi,%rax
    8e2f:	48 8d 76 d8          	lea    -0x28(%rsi),%rsi
    8e33:	c5 fa 7f 72 08       	vmovdqu %xmm6,0x8(%rdx)
    8e38:	c5 fa 6f 7e 40       	vmovdqu 0x40(%rsi),%xmm7
    8e3d:	c5 fb 11 02          	vmovsd %xmm0,(%rdx)
    8e41:	c5 fa 7f 7a 18       	vmovdqu %xmm7,0x18(%rdx)
    8e46:	c5 f9 2f 68 f0       	vcomisd -0x10(%rax),%xmm5
    8e4b:	72 d3                	jb     8e20 <_ZSt16__insertion_sortIN9__gnu_cxx17__normal_iteratorIPSt4pairId11BoundingBoxESt6vectorIS4_SaIS4_EEEENS0_5__ops15_Iter_comp_iterIZN12PseudoPRTreeIdLi6EE9constructIS9_EEvRSt10shared_ptrI16PseudoPRTreeNodeIdLi6EEET_SK_iEUlRKS4_SM_E_EEEvSK_SK_T0_+0x250>
    8e4d:	e9 4b fe ff ff       	jmpq   8c9d <_ZSt16__insertion_sortIN9__gnu_cxx17__normal_iteratorIPSt4pairId11BoundingBoxESt6vectorIS4_SaIS4_EEEENS0_5__ops15_Iter_comp_iterIZN12PseudoPRTreeIdLi6EE9constructIS9_EEvRSt10shared_ptrI16PseudoPRTreeNodeIdLi6EEET_SK_iEUlRKS4_SM_E_EEEvSK_SK_T0_+0xcd>
    8e52:	66 66 2e 0f 1f 84 00 	data16 nopw %cs:0x0(%rax,%rax,1)
    8e59:	00 00 00 00 
    8e5d:	0f 1f 00             	nopl   (%rax)
    8e60:	c5 fb 10 42 10       	vmovsd 0x10(%rdx),%xmm0
    8e65:	c5 f9 2f 47 10       	vcomisd 0x10(%rdi),%xmm0
    8e6a:	0f 87 60 fe ff ff    	ja     8cd0 <_ZSt16__insertion_sortIN9__gnu_cxx17__normal_iteratorIPSt4pairId11BoundingBoxESt6vectorIS4_SaIS4_EEEENS0_5__ops15_Iter_comp_iterIZN12PseudoPRTreeIdLi6EE9constructIS9_EEvRSt10shared_ptrI16PseudoPRTreeNodeIdLi6EEET_SK_iEUlRKS4_SM_E_EEEvSK_SK_T0_+0x100>
    8e70:	c5 fb 10 51 e8       	vmovsd -0x18(%rcx),%xmm2
    8e75:	c5 fb 10 61 e0       	vmovsd -0x20(%rcx),%xmm4
    8e7a:	4c 89 c6             	mov    %r8,%rsi
    8e7d:	48 89 d0             	mov    %rdx,%rax
    8e80:	c4 c1 79 2f 50 10    	vcomisd 0x10(%r8),%xmm2
    8e86:	c5 fb 10 69 f0       	vmovsd -0x10(%rcx),%xmm5
    8e8b:	c5 fb 10 59 f8       	vmovsd -0x8(%rcx),%xmm3
    8e90:	0f 86 07 fe ff ff    	jbe    8c9d <_ZSt16__insertion_sortIN9__gnu_cxx17__normal_iteratorIPSt4pairId11BoundingBoxESt6vectorIS4_SaIS4_EEEENS0_5__ops15_Iter_comp_iterIZN12PseudoPRTreeIdLi6EE9constructIS9_EEvRSt10shared_ptrI16PseudoPRTreeNodeIdLi6EEET_SK_iEUlRKS4_SM_E_EEEvSK_SK_T0_+0xcd>
    8e96:	66 2e 0f 1f 84 00 00 	nopw   %cs:0x0(%rax,%rax,1)
    8e9d:	00 00 00 
    8ea0:	c5 fa 6f 76 08       	vmovdqu 0x8(%rsi),%xmm6
    8ea5:	48 89 c2             	mov    %rax,%rdx
    8ea8:	c5 fb 10 06          	vmovsd (%rsi),%xmm0
    8eac:	48 89 f0             	mov    %rsi,%rax
    8eaf:	48 8d 76 d8          	lea    -0x28(%rsi),%rsi
    8eb3:	c5 fa 7f 72 08       	vmovdqu %xmm6,0x8(%rdx)
    8eb8:	c5 fa 6f 7e 40       	vmovdqu 0x40(%rsi),%xmm7
    8ebd:	c5 fb 11 02          	vmovsd %xmm0,(%rdx)
    8ec1:	c5 fa 7f 7a 18       	vmovdqu %xmm7,0x18(%rdx)
    8ec6:	c5 f9 2f 50 e8       	vcomisd -0x18(%rax),%xmm2
    8ecb:	77 d3                	ja     8ea0 <_ZSt16__insertion_sortIN9__gnu_cxx17__normal_iteratorIPSt4pairId11BoundingBoxESt6vectorIS4_SaIS4_EEEENS0_5__ops15_Iter_comp_iterIZN12PseudoPRTreeIdLi6EE9constructIS9_EEvRSt10shared_ptrI16PseudoPRTreeNodeIdLi6EEET_SK_iEUlRKS4_SM_E_EEEvSK_SK_T0_+0x2d0>
    8ecd:	e9 cb fd ff ff       	jmpq   8c9d <_ZSt16__insertion_sortIN9__gnu_cxx17__normal_iteratorIPSt4pairId11BoundingBoxESt6vectorIS4_SaIS4_EEEENS0_5__ops15_Iter_comp_iterIZN12PseudoPRTreeIdLi6EE9constructIS9_EEvRSt10shared_ptrI16PseudoPRTreeNodeIdLi6EEET_SK_iEUlRKS4_SM_E_EEEvSK_SK_T0_+0xcd>
    8ed2:	c3                   	retq   
    8ed3:	66 2e 0f 1f 84 00 00 	nopw   %cs:0x0(%rax,%rax,1)
    8eda:	00 00 00 
    8edd:	0f 1f 00             	nopl   (%rax)

0000000000008ee0 <_ZNSt6vectorISt4pairIi11BoundingBoxESaIS2_EE17_M_realloc_insertIJRKS2_EEEvN9__gnu_cxx17__normal_iteratorIPS2_S4_EEDpOT_>:
    8ee0:	41 57                	push   %r15
    8ee2:	41 56                	push   %r14
    8ee4:	48 b9 cd cc cc cc cc 	movabs $0xcccccccccccccccd,%rcx
    8eeb:	cc cc cc 
    8eee:	41 55                	push   %r13
    8ef0:	41 54                	push   %r12
    8ef2:	49 89 fd             	mov    %rdi,%r13
    8ef5:	55                   	push   %rbp
    8ef6:	53                   	push   %rbx
    8ef7:	48 83 ec 28          	sub    $0x28,%rsp
    8efb:	4c 8b 77 08          	mov    0x8(%rdi),%r14
    8eff:	4c 8b 27             	mov    (%rdi),%r12
    8f02:	48 bf 33 33 33 33 33 	movabs $0x333333333333333,%rdi
    8f09:	33 33 03 
    8f0c:	4c 89 f0             	mov    %r14,%rax
    8f0f:	4c 29 e0             	sub    %r12,%rax
    8f12:	48 c1 f8 03          	sar    $0x3,%rax
    8f16:	48 0f af c1          	imul   %rcx,%rax
    8f1a:	48 39 f8             	cmp    %rdi,%rax
    8f1d:	0f 84 99 01 00 00    	je     90bc <_ZNSt6vectorISt4pairIi11BoundingBoxESaIS2_EE17_M_realloc_insertIJRKS2_EEEvN9__gnu_cxx17__normal_iteratorIPS2_S4_EEDpOT_+0x1dc>
    8f23:	48 85 c0             	test   %rax,%rax
    8f26:	b9 01 00 00 00       	mov    $0x1,%ecx
    8f2b:	48 89 f5             	mov    %rsi,%rbp
    8f2e:	48 0f 45 c8          	cmovne %rax,%rcx
    8f32:	48 01 c8             	add    %rcx,%rax
    8f35:	0f 92 c1             	setb   %cl
    8f38:	4c 29 e6             	sub    %r12,%rsi
    8f3b:	0f b6 c9             	movzbl %cl,%ecx
    8f3e:	48 85 c9             	test   %rcx,%rcx
    8f41:	0f 85 69 01 00 00    	jne    90b0 <_ZNSt6vectorISt4pairIi11BoundingBoxESaIS2_EE17_M_realloc_insertIJRKS2_EEEvN9__gnu_cxx17__normal_iteratorIPS2_S4_EEDpOT_+0x1d0>
    8f47:	48 85 c0             	test   %rax,%rax
    8f4a:	0f 85 20 01 00 00    	jne    9070 <_ZNSt6vectorISt4pairIi11BoundingBoxESaIS2_EE17_M_realloc_insertIJRKS2_EEEvN9__gnu_cxx17__normal_iteratorIPS2_S4_EEDpOT_+0x190>
    8f50:	bb 28 00 00 00       	mov    $0x28,%ebx
    8f55:	48 c7 44 24 08 00 00 	movq   $0x0,0x8(%rsp)
    8f5c:	00 00 
    8f5e:	45 31 ff             	xor    %r15d,%r15d
    8f61:	c5 fa 6f 1a          	vmovdqu (%rdx),%xmm3
    8f65:	c5 fa 6f 62 10       	vmovdqu 0x10(%rdx),%xmm4
    8f6a:	48 8b 42 20          	mov    0x20(%rdx),%rax
    8f6e:	49 89 44 37 20       	mov    %rax,0x20(%r15,%rsi,1)
    8f73:	c4 c1 7a 7f 1c 37    	vmovdqu %xmm3,(%r15,%rsi,1)
    8f79:	c4 c1 7a 7f 64 37 10 	vmovdqu %xmm4,0x10(%r15,%rsi,1)
    8f80:	4c 39 e5             	cmp    %r12,%rbp
    8f83:	74 62                	je     8fe7 <_ZNSt6vectorISt4pairIi11BoundingBoxESaIS2_EE17_M_realloc_insertIJRKS2_EEEvN9__gnu_cxx17__normal_iteratorIPS2_S4_EEDpOT_+0x107>
    8f85:	4c 89 fa             	mov    %r15,%rdx
    8f88:	4c 89 e0             	mov    %r12,%rax
    8f8b:	0f 1f 44 00 00       	nopl   0x0(%rax,%rax,1)
    8f90:	c5 fa 6f 08          	vmovdqu (%rax),%xmm1
    8f94:	48 83 c0 28          	add    $0x28,%rax
    8f98:	48 83 c2 28          	add    $0x28,%rdx
    8f9c:	c5 fa 7f 4a d8       	vmovdqu %xmm1,-0x28(%rdx)
    8fa1:	c5 fa 6f 50 e8       	vmovdqu -0x18(%rax),%xmm2
    8fa6:	c5 fa 7f 52 e8       	vmovdqu %xmm2,-0x18(%rdx)
    8fab:	48 8b 48 f8          	mov    -0x8(%rax),%rcx
    8faf:	48 89 4a f8          	mov    %rcx,-0x8(%rdx)
    8fb3:	48 39 e8             	cmp    %rbp,%rax
    8fb6:	75 d8                	jne    8f90 <_ZNSt6vectorISt4pairIi11BoundingBoxESaIS2_EE17_M_realloc_insertIJRKS2_EEEvN9__gnu_cxx17__normal_iteratorIPS2_S4_EEDpOT_+0xb0>
    8fb8:	48 8d 45 d8          	lea    -0x28(%rbp),%rax
    8fbc:	48 ba cd cc cc cc cc 	movabs $0xccccccccccccccd,%rdx
    8fc3:	cc cc 0c 
    8fc6:	4c 29 e0             	sub    %r12,%rax
    8fc9:	48 c1 e8 03          	shr    $0x3,%rax
    8fcd:	48 0f af c2          	imul   %rdx,%rax
    8fd1:	48 ba ff ff ff ff ff 	movabs $0x1fffffffffffffff,%rdx
    8fd8:	ff ff 1f 
    8fdb:	48 21 d0             	and    %rdx,%rax
    8fde:	48 8d 44 80 0a       	lea    0xa(%rax,%rax,4),%rax
    8fe3:	49 8d 1c c7          	lea    (%r15,%rax,8),%rbx
    8fe7:	4c 39 f5             	cmp    %r14,%rbp
    8fea:	74 40                	je     902c <_ZNSt6vectorISt4pairIi11BoundingBoxESaIS2_EE17_M_realloc_insertIJRKS2_EEEvN9__gnu_cxx17__normal_iteratorIPS2_S4_EEDpOT_+0x14c>
    8fec:	49 29 ee             	sub    %rbp,%r14
    8fef:	48 ba cd cc cc cc cc 	movabs $0xccccccccccccccd,%rdx
    8ff6:	cc cc 0c 
    8ff9:	48 89 df             	mov    %rbx,%rdi
    8ffc:	48 89 ee             	mov    %rbp,%rsi
    8fff:	49 8d 46 d8          	lea    -0x28(%r14),%rax
    9003:	48 c1 e8 03          	shr    $0x3,%rax
    9007:	48 0f af c2          	imul   %rdx,%rax
    900b:	48 ba ff ff ff ff ff 	movabs $0x1fffffffffffffff,%rdx
    9012:	ff ff 1f 
    9015:	48 21 d0             	and    %rdx,%rax
    9018:	4c 8d 74 80 05       	lea    0x5(%rax,%rax,4),%r14
    901d:	49 c1 e6 03          	shl    $0x3,%r14
    9021:	4c 89 f2             	mov    %r14,%rdx
    9024:	4c 01 f3             	add    %r14,%rbx
    9027:	e8 94 90 ff ff       	callq  20c0 <memcpy@plt>
    902c:	4d 85 e4             	test   %r12,%r12
    902f:	74 0f                	je     9040 <_ZNSt6vectorISt4pairIi11BoundingBoxESaIS2_EE17_M_realloc_insertIJRKS2_EEEvN9__gnu_cxx17__normal_iteratorIPS2_S4_EEDpOT_+0x160>
    9031:	49 8b 75 10          	mov    0x10(%r13),%rsi
    9035:	4c 89 e7             	mov    %r12,%rdi
    9038:	4c 29 e6             	sub    %r12,%rsi
    903b:	e8 d0 90 ff ff       	callq  2110 <_ZdlPvm@plt>
    9040:	48 8b 44 24 08       	mov    0x8(%rsp),%rax
    9045:	c4 c1 f9 6e ef       	vmovq  %r15,%xmm5
    904a:	c4 e3 d1 22 c3 01    	vpinsrq $0x1,%rbx,%xmm5,%xmm0
    9050:	c4 c1 7a 7f 45 00    	vmovdqu %xmm0,0x0(%r13)
    9056:	49 89 45 10          	mov    %rax,0x10(%r13)
    905a:	48 83 c4 28          	add    $0x28,%rsp
    905e:	5b                   	pop    %rbx
    905f:	5d                   	pop    %rbp
    9060:	41 5c                	pop    %r12
    9062:	41 5d                	pop    %r13
    9064:	41 5e                	pop    %r14
    9066:	41 5f                	pop    %r15
    9068:	c3                   	retq   
    9069:	0f 1f 80 00 00 00 00 	nopl   0x0(%rax)
    9070:	48 39 f8             	cmp    %rdi,%rax
    9073:	48 0f 47 c7          	cmova  %rdi,%rax
    9077:	48 8d 1c 80          	lea    (%rax,%rax,4),%rbx
    907b:	48 c1 e3 03          	shl    $0x3,%rbx
    907f:	48 89 df             	mov    %rbx,%rdi
    9082:	48 89 54 24 18       	mov    %rdx,0x18(%rsp)
    9087:	48 89 74 24 10       	mov    %rsi,0x10(%rsp)
    908c:	e8 6f 90 ff ff       	callq  2100 <_Znwm@plt>
    9091:	49 89 c7             	mov    %rax,%r15
    9094:	48 01 d8             	add    %rbx,%rax
    9097:	48 8b 74 24 10       	mov    0x10(%rsp),%rsi
    909c:	48 8b 54 24 18       	mov    0x18(%rsp),%rdx
    90a1:	48 89 44 24 08       	mov    %rax,0x8(%rsp)
    90a6:	49 8d 5f 28          	lea    0x28(%r15),%rbx
    90aa:	e9 b2 fe ff ff       	jmpq   8f61 <_ZNSt6vectorISt4pairIi11BoundingBoxESaIS2_EE17_M_realloc_insertIJRKS2_EEEvN9__gnu_cxx17__normal_iteratorIPS2_S4_EEDpOT_+0x81>
    90af:	90                   	nop
    90b0:	48 bb f8 ff ff ff ff 	movabs $0x7ffffffffffffff8,%rbx
    90b7:	ff ff 7f 
    90ba:	eb c3                	jmp    907f <_ZNSt6vectorISt4pairIi11BoundingBoxESaIS2_EE17_M_realloc_insertIJRKS2_EEEvN9__gnu_cxx17__normal_iteratorIPS2_S4_EEDpOT_+0x19f>
    90bc:	48 8d 3d 75 6f 00 00 	lea    0x6f75(%rip),%rdi        # 10038 <_IO_stdin_used+0x38>
    90c3:	e8 c8 8f ff ff       	callq  2090 <_ZSt20__throw_length_errorPKc@plt>
    90c8:	0f 1f 84 00 00 00 00 	nopl   0x0(%rax,%rax,1)
    90cf:	00 

00000000000090d0 <_ZSt16__insertion_sortIN9__gnu_cxx17__normal_iteratorIPSt4pairIi11BoundingBoxESt6vectorIS4_SaIS4_EEEENS0_5__ops15_Iter_comp_iterIZN12PseudoPRTreeIiLi6EE9constructIS9_EEvRSt10shared_ptrI16PseudoPRTreeNodeIiLi6EEET_SK_iEUlRKS4_SM_E_EEEvSK_SK_T0_>:
    90d0:	49 89 f2             	mov    %rsi,%r10
    90d3:	48 39 fe             	cmp    %rdi,%rsi
    90d6:	0f 84 2b 02 00 00    	je     9307 <_ZSt16__insertion_sortIN9__gnu_cxx17__normal_iteratorIPSt4pairIi11BoundingBoxESt6vectorIS4_SaIS4_EEEENS0_5__ops15_Iter_comp_iterIZN12PseudoPRTreeIiLi6EE9constructIS9_EEvRSt10shared_ptrI16PseudoPRTreeNodeIiLi6EEET_SK_iEUlRKS4_SM_E_EEEvSK_SK_T0_+0x237>
    90dc:	48 8d 47 28          	lea    0x28(%rdi),%rax
    90e0:	48 39 f0             	cmp    %rsi,%rax
    90e3:	0f 84 1e 02 00 00    	je     9307 <_ZSt16__insertion_sortIN9__gnu_cxx17__normal_iteratorIPSt4pairIi11BoundingBoxESt6vectorIS4_SaIS4_EEEENS0_5__ops15_Iter_comp_iterIZN12PseudoPRTreeIiLi6EE9constructIS9_EEvRSt10shared_ptrI16PseudoPRTreeNodeIiLi6EEET_SK_iEUlRKS4_SM_E_EEEvSK_SK_T0_+0x237>
    90e9:	55                   	push   %rbp
    90ea:	48 89 d6             	mov    %rdx,%rsi
    90ed:	49 bb cd cc cc cc cc 	movabs $0xcccccccccccccccd,%r11
    90f4:	cc cc cc 
    90f7:	48 89 c2             	mov    %rax,%rdx
    90fa:	c5 fa 7e 35 de 71 00 	vmovq  0x71de(%rip),%xmm6        # 102e0 <_ZZNSt19_Sp_make_shared_tag5_S_tiEvE5__tag+0xe0>
    9101:	00 
    9102:	8b 0e                	mov    (%rsi),%ecx
    9104:	48 89 e5             	mov    %rsp,%rbp
    9107:	48 83 e4 e0          	and    $0xffffffffffffffe0,%rsp
    910b:	c5 f9 28 fe          	vmovapd %xmm6,%xmm7
    910f:	c5 f9 28 e6          	vmovapd %xmm6,%xmm4
    9113:	c5 f9 28 ee          	vmovapd %xmm6,%xmm5
    9117:	85 c9                	test   %ecx,%ecx
    9119:	0f 84 f0 00 00 00    	je     920f <_ZSt16__insertion_sortIN9__gnu_cxx17__normal_iteratorIPSt4pairIi11BoundingBoxESt6vectorIS4_SaIS4_EEEENS0_5__ops15_Iter_comp_iterIZN12PseudoPRTreeIiLi6EE9constructIS9_EEvRSt10shared_ptrI16PseudoPRTreeNodeIiLi6EEET_SK_iEUlRKS4_SM_E_EEEvSK_SK_T0_+0x13f>
    911f:	90                   	nop
    9120:	83 f9 01             	cmp    $0x1,%ecx
    9123:	0f 84 c7 01 00 00    	je     92f0 <_ZSt16__insertion_sortIN9__gnu_cxx17__normal_iteratorIPSt4pairIi11BoundingBoxESt6vectorIS4_SaIS4_EEEENS0_5__ops15_Iter_comp_iterIZN12PseudoPRTreeIiLi6EE9constructIS9_EEvRSt10shared_ptrI16PseudoPRTreeNodeIiLi6EEET_SK_iEUlRKS4_SM_E_EEEvSK_SK_T0_+0x220>
    9129:	83 f9 02             	cmp    $0x2,%ecx
    912c:	0f 84 ae 01 00 00    	je     92e0 <_ZSt16__insertion_sortIN9__gnu_cxx17__normal_iteratorIPSt4pairIi11BoundingBoxESt6vectorIS4_SaIS4_EEEENS0_5__ops15_Iter_comp_iterIZN12PseudoPRTreeIiLi6EE9constructIS9_EEvRSt10shared_ptrI16PseudoPRTreeNodeIiLi6EEET_SK_iEUlRKS4_SM_E_EEEvSK_SK_T0_+0x210>
    9132:	c5 fb 10 40 20       	vmovsd 0x20(%rax),%xmm0
    9137:	c5 fb 10 4f 20       	vmovsd 0x20(%rdi),%xmm1
    913c:	c5 f9 57 c6          	vxorpd %xmm6,%xmm0,%xmm0
    9140:	c5 f1 57 ce          	vxorpd %xmm6,%xmm1,%xmm1
    9144:	44 8b 08             	mov    (%rax),%r9d
    9147:	4c 8d 40 28          	lea    0x28(%rax),%r8
    914b:	c5 f9 2f c8          	vcomisd %xmm0,%xmm1
    914f:	0f 87 d5 00 00 00    	ja     922a <_ZSt16__insertion_sortIN9__gnu_cxx17__normal_iteratorIPSt4pairIi11BoundingBoxESt6vectorIS4_SaIS4_EEEENS0_5__ops15_Iter_comp_iterIZN12PseudoPRTreeIiLi6EE9constructIS9_EEvRSt10shared_ptrI16PseudoPRTreeNodeIiLi6EEET_SK_iEUlRKS4_SM_E_EEEvSK_SK_T0_+0x15a>
    9155:	c5 7b 10 48 10       	vmovsd 0x10(%rax),%xmm9
    915a:	c5 7b 10 50 20       	vmovsd 0x20(%rax),%xmm10
    915f:	c5 fb 10 50 08       	vmovsd 0x8(%rax),%xmm2
    9164:	c5 fb 10 58 18       	vmovsd 0x18(%rax),%xmm3
    9169:	c5 29 57 c4          	vxorpd %xmm4,%xmm10,%xmm8
    916d:	c5 31 57 dd          	vxorpd %xmm5,%xmm9,%xmm11
    9171:	eb 51                	jmp    91c4 <_ZSt16__insertion_sortIN9__gnu_cxx17__normal_iteratorIPSt4pairIi11BoundingBoxESt6vectorIS4_SaIS4_EEEENS0_5__ops15_Iter_comp_iterIZN12PseudoPRTreeIiLi6EE9constructIS9_EEvRSt10shared_ptrI16PseudoPRTreeNodeIiLi6EEET_SK_iEUlRKS4_SM_E_EEEvSK_SK_T0_+0xf4>
    9173:	66 66 2e 0f 1f 84 00 	data16 nopw %cs:0x0(%rax,%rax,1)
    917a:	00 00 00 00 
    917e:	66 90                	xchg   %ax,%ax
    9180:	83 f9 01             	cmp    $0x1,%ecx
    9183:	0f 84 37 01 00 00    	je     92c0 <_ZSt16__insertion_sortIN9__gnu_cxx17__normal_iteratorIPSt4pairIi11BoundingBoxESt6vectorIS4_SaIS4_EEEENS0_5__ops15_Iter_comp_iterIZN12PseudoPRTreeIiLi6EE9constructIS9_EEvRSt10shared_ptrI16PseudoPRTreeNodeIiLi6EEET_SK_iEUlRKS4_SM_E_EEEvSK_SK_T0_+0x1f0>
    9189:	83 f9 02             	cmp    $0x2,%ecx
    918c:	0f 84 1e 01 00 00    	je     92b0 <_ZSt16__insertion_sortIN9__gnu_cxx17__normal_iteratorIPSt4pairIi11BoundingBoxESt6vectorIS4_SaIS4_EEEENS0_5__ops15_Iter_comp_iterIZN12PseudoPRTreeIiLi6EE9constructIS9_EEvRSt10shared_ptrI16PseudoPRTreeNodeIiLi6EEET_SK_iEUlRKS4_SM_E_EEEvSK_SK_T0_+0x1e0>
    9192:	c5 fb 10 40 f8       	vmovsd -0x8(%rax),%xmm0
    9197:	c5 3b 11 c1          	vmovsd %xmm8,%xmm8,%xmm1
    919b:	c5 f9 57 c4          	vxorpd %xmm4,%xmm0,%xmm0
    919f:	48 83 e8 28          	sub    $0x28,%rax
    91a3:	c5 f9 2f c1          	vcomisd %xmm1,%xmm0
    91a7:	76 35                	jbe    91de <_ZSt16__insertion_sortIN9__gnu_cxx17__normal_iteratorIPSt4pairIi11BoundingBoxESt6vectorIS4_SaIS4_EEEENS0_5__ops15_Iter_comp_iterIZN12PseudoPRTreeIiLi6EE9constructIS9_EEvRSt10shared_ptrI16PseudoPRTreeNodeIiLi6EEET_SK_iEUlRKS4_SM_E_EEEvSK_SK_T0_+0x10e>
    91a9:	c5 fa 6f 48 08       	vmovdqu 0x8(%rax),%xmm1
    91ae:	c5 fa 6f 40 18       	vmovdqu 0x18(%rax),%xmm0
    91b3:	8b 10                	mov    (%rax),%edx
    91b5:	89 50 28             	mov    %edx,0x28(%rax)
    91b8:	8b 0e                	mov    (%rsi),%ecx
    91ba:	c5 fa 7f 48 30       	vmovdqu %xmm1,0x30(%rax)
    91bf:	c5 fa 7f 40 40       	vmovdqu %xmm0,0x40(%rax)
    91c4:	48 89 c2             	mov    %rax,%rdx
    91c7:	85 c9                	test   %ecx,%ecx
    91c9:	75 b5                	jne    9180 <_ZSt16__insertion_sortIN9__gnu_cxx17__normal_iteratorIPSt4pairIi11BoundingBoxESt6vectorIS4_SaIS4_EEEENS0_5__ops15_Iter_comp_iterIZN12PseudoPRTreeIiLi6EE9constructIS9_EEvRSt10shared_ptrI16PseudoPRTreeNodeIiLi6EEET_SK_iEUlRKS4_SM_E_EEEvSK_SK_T0_+0xb0>
    91cb:	c5 fb 10 40 e0       	vmovsd -0x20(%rax),%xmm0
    91d0:	c5 eb 10 ca          	vmovsd %xmm2,%xmm2,%xmm1
    91d4:	48 83 e8 28          	sub    $0x28,%rax
    91d8:	c5 f9 2f c1          	vcomisd %xmm1,%xmm0
    91dc:	77 cb                	ja     91a9 <_ZSt16__insertion_sortIN9__gnu_cxx17__normal_iteratorIPSt4pairIi11BoundingBoxESt6vectorIS4_SaIS4_EEEENS0_5__ops15_Iter_comp_iterIZN12PseudoPRTreeIiLi6EE9constructIS9_EEvRSt10shared_ptrI16PseudoPRTreeNodeIiLi6EEET_SK_iEUlRKS4_SM_E_EEEvSK_SK_T0_+0xd9>
    91de:	c4 c1 61 14 da       	vunpcklpd %xmm10,%xmm3,%xmm3
    91e3:	c4 c1 69 14 d1       	vunpcklpd %xmm9,%xmm2,%xmm2
    91e8:	44 89 0a             	mov    %r9d,(%rdx)
    91eb:	c4 e3 6d 18 d3 01    	vinsertf128 $0x1,%xmm3,%ymm2,%ymm2
    91f1:	c5 fd 11 52 08       	vmovupd %ymm2,0x8(%rdx)
    91f6:	4d 39 c2             	cmp    %r8,%r10
    91f9:	0f 84 a5 00 00 00    	je     92a4 <_ZSt16__insertion_sortIN9__gnu_cxx17__normal_iteratorIPSt4pairIi11BoundingBoxESt6vectorIS4_SaIS4_EEEENS0_5__ops15_Iter_comp_iterIZN12PseudoPRTreeIiLi6EE9constructIS9_EEvRSt10shared_ptrI16PseudoPRTreeNodeIiLi6EEET_SK_iEUlRKS4_SM_E_EEEvSK_SK_T0_+0x1d4>
    91ff:	8b 0e                	mov    (%rsi),%ecx
    9201:	4c 89 c0             	mov    %r8,%rax
    9204:	48 89 c2             	mov    %rax,%rdx
    9207:	85 c9                	test   %ecx,%ecx
    9209:	0f 85 11 ff ff ff    	jne    9120 <_ZSt16__insertion_sortIN9__gnu_cxx17__normal_iteratorIPSt4pairIi11BoundingBoxESt6vectorIS4_SaIS4_EEEENS0_5__ops15_Iter_comp_iterIZN12PseudoPRTreeIiLi6EE9constructIS9_EEvRSt10shared_ptrI16PseudoPRTreeNodeIiLi6EEET_SK_iEUlRKS4_SM_E_EEEvSK_SK_T0_+0x50>
    920f:	c5 fb 10 40 08       	vmovsd 0x8(%rax),%xmm0
    9214:	c5 fb 10 4f 08       	vmovsd 0x8(%rdi),%xmm1
    9219:	4c 8d 40 28          	lea    0x28(%rax),%r8
    921d:	44 8b 08             	mov    (%rax),%r9d
    9220:	c5 f9 2f c8          	vcomisd %xmm0,%xmm1
    9224:	0f 86 2b ff ff ff    	jbe    9155 <_ZSt16__insertion_sortIN9__gnu_cxx17__normal_iteratorIPSt4pairIi11BoundingBoxESt6vectorIS4_SaIS4_EEEENS0_5__ops15_Iter_comp_iterIZN12PseudoPRTreeIiLi6EE9constructIS9_EEvRSt10shared_ptrI16PseudoPRTreeNodeIiLi6EEET_SK_iEUlRKS4_SM_E_EEEvSK_SK_T0_+0x85>
    922a:	c5 fa 6f 18          	vmovdqu (%rax),%xmm3
    922e:	48 8b 48 20          	mov    0x20(%rax),%rcx
    9232:	48 89 4c 24 f0       	mov    %rcx,-0x10(%rsp)
    9237:	c5 f9 7f 5c 24 d0    	vmovdqa %xmm3,-0x30(%rsp)
    923d:	c5 fa 6f 58 10       	vmovdqu 0x10(%rax),%xmm3
    9242:	48 29 f8             	sub    %rdi,%rax
    9245:	48 89 c1             	mov    %rax,%rcx
    9248:	48 c1 f9 03          	sar    $0x3,%rcx
    924c:	49 0f af cb          	imul   %r11,%rcx
    9250:	c5 f9 7f 5c 24 e0    	vmovdqa %xmm3,-0x20(%rsp)
    9256:	48 85 c0             	test   %rax,%rax
    9259:	7e 27                	jle    9282 <_ZSt16__insertion_sortIN9__gnu_cxx17__normal_iteratorIPSt4pairIi11BoundingBoxESt6vectorIS4_SaIS4_EEEENS0_5__ops15_Iter_comp_iterIZN12PseudoPRTreeIiLi6EE9constructIS9_EEvRSt10shared_ptrI16PseudoPRTreeNodeIiLi6EEET_SK_iEUlRKS4_SM_E_EEEvSK_SK_T0_+0x1b2>
    925b:	0f 1f 44 00 00       	nopl   0x0(%rax,%rax,1)
    9260:	c5 fa 6f 5a e0       	vmovdqu -0x20(%rdx),%xmm3
    9265:	48 83 ea 28          	sub    $0x28,%rdx
    9269:	48 ff c9             	dec    %rcx
    926c:	c5 fa 6f 52 18       	vmovdqu 0x18(%rdx),%xmm2
    9271:	8b 02                	mov    (%rdx),%eax
    9273:	89 42 28             	mov    %eax,0x28(%rdx)
    9276:	c5 fa 7f 5a 30       	vmovdqu %xmm3,0x30(%rdx)
    927b:	c5 fa 7f 52 40       	vmovdqu %xmm2,0x40(%rdx)
    9280:	75 de                	jne    9260 <_ZSt16__insertion_sortIN9__gnu_cxx17__normal_iteratorIPSt4pairIi11BoundingBoxESt6vectorIS4_SaIS4_EEEENS0_5__ops15_Iter_comp_iterIZN12PseudoPRTreeIiLi6EE9constructIS9_EEvRSt10shared_ptrI16PseudoPRTreeNodeIiLi6EEET_SK_iEUlRKS4_SM_E_EEEvSK_SK_T0_+0x190>
    9282:	c5 fa 6f 5c 24 d8    	vmovdqu -0x28(%rsp),%xmm3
    9288:	44 89 0f             	mov    %r9d,(%rdi)
    928b:	c5 fa 6f 54 24 e8    	vmovdqu -0x18(%rsp),%xmm2
    9291:	c5 fa 7f 5f 08       	vmovdqu %xmm3,0x8(%rdi)
    9296:	c5 fa 7f 57 18       	vmovdqu %xmm2,0x18(%rdi)
    929b:	4d 39 c2             	cmp    %r8,%r10
    929e:	0f 85 5b ff ff ff    	jne    91ff <_ZSt16__insertion_sortIN9__gnu_cxx17__normal_iteratorIPSt4pairIi11BoundingBoxESt6vectorIS4_SaIS4_EEEENS0_5__ops15_Iter_comp_iterIZN12PseudoPRTreeIiLi6EE9constructIS9_EEvRSt10shared_ptrI16PseudoPRTreeNodeIiLi6EEET_SK_iEUlRKS4_SM_E_EEEvSK_SK_T0_+0x12f>
    92a4:	c5 f8 77             	vzeroupper 
    92a7:	c9                   	leaveq 
    92a8:	c3                   	retq   
    92a9:	0f 1f 80 00 00 00 00 	nopl   0x0(%rax)
    92b0:	c5 fb 10 40 f0       	vmovsd -0x10(%rax),%xmm0
    92b5:	c5 e3 10 cb          	vmovsd %xmm3,%xmm3,%xmm1
    92b9:	e9 e1 fe ff ff       	jmpq   919f <_ZSt16__insertion_sortIN9__gnu_cxx17__normal_iteratorIPSt4pairIi11BoundingBoxESt6vectorIS4_SaIS4_EEEENS0_5__ops15_Iter_comp_iterIZN12PseudoPRTreeIiLi6EE9constructIS9_EEvRSt10shared_ptrI16PseudoPRTreeNodeIiLi6EEET_SK_iEUlRKS4_SM_E_EEEvSK_SK_T0_+0xcf>
    92be:	66 90                	xchg   %ax,%ax
    92c0:	c5 fb 10 40 e8       	vmovsd -0x18(%rax),%xmm0
    92c5:	c5 23 11 d9          	vmovsd %xmm11,%xmm11,%xmm1
    92c9:	c5 f9 57 c5          	vxorpd %xmm5,%xmm0,%xmm0
    92cd:	e9 cd fe ff ff       	jmpq   919f <_ZSt16__insertion_sortIN9__gnu_cxx17__normal_iteratorIPSt4pairIi11BoundingBoxESt6vectorIS4_SaIS4_EEEENS0_5__ops15_Iter_comp_iterIZN12PseudoPRTreeIiLi6EE9constructIS9_EEvRSt10shared_ptrI16PseudoPRTreeNodeIiLi6EEET_SK_iEUlRKS4_SM_E_EEEvSK_SK_T0_+0xcf>
    92d2:	66 66 2e 0f 1f 84 00 	data16 nopw %cs:0x0(%rax,%rax,1)
    92d9:	00 00 00 00 
    92dd:	0f 1f 00             	nopl   (%rax)
    92e0:	c5 fb 10 40 18       	vmovsd 0x18(%rax),%xmm0
    92e5:	c5 fb 10 4f 18       	vmovsd 0x18(%rdi),%xmm1
    92ea:	e9 55 fe ff ff       	jmpq   9144 <_ZSt16__insertion_sortIN9__gnu_cxx17__normal_iteratorIPSt4pairIi11BoundingBoxESt6vectorIS4_SaIS4_EEEENS0_5__ops15_Iter_comp_iterIZN12PseudoPRTreeIiLi6EE9constructIS9_EEvRSt10shared_ptrI16PseudoPRTreeNodeIiLi6EEET_SK_iEUlRKS4_SM_E_EEEvSK_SK_T0_+0x74>
    92ef:	90                   	nop
    92f0:	c5 fb 10 40 10       	vmovsd 0x10(%rax),%xmm0
    92f5:	c5 fb 10 4f 10       	vmovsd 0x10(%rdi),%xmm1
    92fa:	c5 f9 57 c7          	vxorpd %xmm7,%xmm0,%xmm0
    92fe:	c5 f1 57 cf          	vxorpd %xmm7,%xmm1,%xmm1
    9302:	e9 3d fe ff ff       	jmpq   9144 <_ZSt16__insertion_sortIN9__gnu_cxx17__normal_iteratorIPSt4pairIi11BoundingBoxESt6vectorIS4_SaIS4_EEEENS0_5__ops15_Iter_comp_iterIZN12PseudoPRTreeIiLi6EE9constructIS9_EEvRSt10shared_ptrI16PseudoPRTreeNodeIiLi6EEET_SK_iEUlRKS4_SM_E_EEEvSK_SK_T0_+0x74>
    9307:	c3                   	retq   
    9308:	0f 1f 84 00 00 00 00 	nopl   0x0(%rax,%rax,1)
    930f:	00 

0000000000009310 <_ZSt22__move_median_to_firstIN9__gnu_cxx17__normal_iteratorIPSt4pairId11BoundingBoxESt6vectorIS4_SaIS4_EEEENS0_5__ops15_Iter_comp_iterIZN12PseudoPRTreeIdLi6EE9constructIS9_EEvRSt10shared_ptrI16PseudoPRTreeNodeIdLi6EEET_SK_iEUlRKS4_SM_E_EEEvSK_SK_SK_SK_T0_>:
    9310:	41 8b 00             	mov    (%r8),%eax
    9313:	85 c0                	test   %eax,%eax
    9315:	0f 84 a5 00 00 00    	je     93c0 <_ZSt22__move_median_to_firstIN9__gnu_cxx17__normal_iteratorIPSt4pairId11BoundingBoxESt6vectorIS4_SaIS4_EEEENS0_5__ops15_Iter_comp_iterIZN12PseudoPRTreeIdLi6EE9constructIS9_EEvRSt10shared_ptrI16PseudoPRTreeNodeIdLi6EEET_SK_iEUlRKS4_SM_E_EEEvSK_SK_SK_SK_T0_+0xb0>
    931b:	83 f8 01             	cmp    $0x1,%eax
    931e:	0f 84 bc 01 00 00    	je     94e0 <_ZSt22__move_median_to_firstIN9__gnu_cxx17__normal_iteratorIPSt4pairId11BoundingBoxESt6vectorIS4_SaIS4_EEEENS0_5__ops15_Iter_comp_iterIZN12PseudoPRTreeIdLi6EE9constructIS9_EEvRSt10shared_ptrI16PseudoPRTreeNodeIdLi6EEET_SK_iEUlRKS4_SM_E_EEEvSK_SK_SK_SK_T0_+0x1d0>
    9324:	83 f8 02             	cmp    $0x2,%eax
    9327:	0f 84 03 01 00 00    	je     9430 <_ZSt22__move_median_to_firstIN9__gnu_cxx17__normal_iteratorIPSt4pairId11BoundingBoxESt6vectorIS4_SaIS4_EEEENS0_5__ops15_Iter_comp_iterIZN12PseudoPRTreeIdLi6EE9constructIS9_EEvRSt10shared_ptrI16PseudoPRTreeNodeIdLi6EEET_SK_iEUlRKS4_SM_E_EEEvSK_SK_SK_SK_T0_+0x120>
    932d:	c5 fb 10 56 20       	vmovsd 0x20(%rsi),%xmm2
    9332:	c5 fb 10 42 20       	vmovsd 0x20(%rdx),%xmm0
    9337:	c5 f9 2f d0          	vcomisd %xmm0,%xmm2
    933b:	0f 87 5f 01 00 00    	ja     94a0 <_ZSt22__move_median_to_firstIN9__gnu_cxx17__normal_iteratorIPSt4pairId11BoundingBoxESt6vectorIS4_SaIS4_EEEENS0_5__ops15_Iter_comp_iterIZN12PseudoPRTreeIdLi6EE9constructIS9_EEvRSt10shared_ptrI16PseudoPRTreeNodeIdLi6EEET_SK_iEUlRKS4_SM_E_EEEvSK_SK_SK_SK_T0_+0x190>
    9341:	c5 fb 10 49 20       	vmovsd 0x20(%rcx),%xmm1
    9346:	c5 f9 2f 4e 20       	vcomisd 0x20(%rsi),%xmm1
    934b:	0f 82 8a 00 00 00    	jb     93db <_ZSt22__move_median_to_firstIN9__gnu_cxx17__normal_iteratorIPSt4pairId11BoundingBoxESt6vectorIS4_SaIS4_EEEENS0_5__ops15_Iter_comp_iterIZN12PseudoPRTreeIdLi6EE9constructIS9_EEvRSt10shared_ptrI16PseudoPRTreeNodeIdLi6EEET_SK_iEUlRKS4_SM_E_EEEvSK_SK_SK_SK_T0_+0xcb>
    9351:	c5 fa 7e 15 87 6f 00 	vmovq  0x6f87(%rip),%xmm2        # 102e0 <_ZZNSt19_Sp_make_shared_tag5_S_tiEvE5__tag+0xe0>
    9358:	00 
    9359:	c5 f1 57 ca          	vxorpd %xmm2,%xmm1,%xmm1
    935d:	c5 f9 57 c2          	vxorpd %xmm2,%xmm0,%xmm0
    9361:	c5 fb 10 17          	vmovsd (%rdi),%xmm2
    9365:	c5 f9 2f c8          	vcomisd %xmm0,%xmm1
    9369:	0f 86 a1 01 00 00    	jbe    9510 <_ZSt22__move_median_to_firstIN9__gnu_cxx17__normal_iteratorIPSt4pairId11BoundingBoxESt6vectorIS4_SaIS4_EEEENS0_5__ops15_Iter_comp_iterIZN12PseudoPRTreeIdLi6EE9constructIS9_EEvRSt10shared_ptrI16PseudoPRTreeNodeIdLi6EEET_SK_iEUlRKS4_SM_E_EEEvSK_SK_SK_SK_T0_+0x200>
    936f:	c5 fb 10 01          	vmovsd (%rcx),%xmm0
    9373:	c5 fb 11 07          	vmovsd %xmm0,(%rdi)
    9377:	c5 fb 11 11          	vmovsd %xmm2,(%rcx)
    937b:	c5 fa 6f 61 08       	vmovdqu 0x8(%rcx),%xmm4
    9380:	c5 fb 10 47 08       	vmovsd 0x8(%rdi),%xmm0
    9385:	c5 fb 10 57 10       	vmovsd 0x10(%rdi),%xmm2
    938a:	c5 fb 10 4f 18       	vmovsd 0x18(%rdi),%xmm1
    938f:	c5 fb 10 5f 20       	vmovsd 0x20(%rdi),%xmm3
    9394:	c5 fa 7f 67 08       	vmovdqu %xmm4,0x8(%rdi)
    9399:	c5 fa 6f 69 18       	vmovdqu 0x18(%rcx),%xmm5
    939e:	c5 f9 14 c2          	vunpcklpd %xmm2,%xmm0,%xmm0
    93a2:	c5 f1 14 cb          	vunpcklpd %xmm3,%xmm1,%xmm1
    93a6:	c4 e3 7d 18 c1 01    	vinsertf128 $0x1,%xmm1,%ymm0,%ymm0
    93ac:	c5 fa 7f 6f 18       	vmovdqu %xmm5,0x18(%rdi)
    93b1:	c5 fd 11 41 08       	vmovupd %ymm0,0x8(%rcx)
    93b6:	c5 f8 77             	vzeroupper 
    93b9:	c3                   	retq   
    93ba:	66 0f 1f 44 00 00    	nopw   0x0(%rax,%rax,1)
    93c0:	c5 fb 10 56 08       	vmovsd 0x8(%rsi),%xmm2
    93c5:	c5 fb 10 42 08       	vmovsd 0x8(%rdx),%xmm0
    93ca:	c5 fb 10 49 08       	vmovsd 0x8(%rcx),%xmm1
    93cf:	c5 f9 2f c2          	vcomisd %xmm2,%xmm0
    93d3:	77 74                	ja     9449 <_ZSt22__move_median_to_firstIN9__gnu_cxx17__normal_iteratorIPSt4pairId11BoundingBoxESt6vectorIS4_SaIS4_EEEENS0_5__ops15_Iter_comp_iterIZN12PseudoPRTreeIdLi6EE9constructIS9_EEvRSt10shared_ptrI16PseudoPRTreeNodeIdLi6EEET_SK_iEUlRKS4_SM_E_EEEvSK_SK_SK_SK_T0_+0x139>
    93d5:	c5 f9 2f ca          	vcomisd %xmm2,%xmm1
    93d9:	76 86                	jbe    9361 <_ZSt22__move_median_to_firstIN9__gnu_cxx17__normal_iteratorIPSt4pairId11BoundingBoxESt6vectorIS4_SaIS4_EEEENS0_5__ops15_Iter_comp_iterIZN12PseudoPRTreeIdLi6EE9constructIS9_EEvRSt10shared_ptrI16PseudoPRTreeNodeIdLi6EEET_SK_iEUlRKS4_SM_E_EEEvSK_SK_SK_SK_T0_+0x51>
    93db:	c5 fb 10 07          	vmovsd (%rdi),%xmm0
    93df:	c5 fb 10 0e          	vmovsd (%rsi),%xmm1
    93e3:	c5 fb 11 0f          	vmovsd %xmm1,(%rdi)
    93e7:	c5 fa 6f 76 08       	vmovdqu 0x8(%rsi),%xmm6
    93ec:	c5 fb 11 06          	vmovsd %xmm0,(%rsi)
    93f0:	c5 fb 10 47 08       	vmovsd 0x8(%rdi),%xmm0
    93f5:	c5 fb 10 57 10       	vmovsd 0x10(%rdi),%xmm2
    93fa:	c5 fb 10 4f 18       	vmovsd 0x18(%rdi),%xmm1
    93ff:	c5 fb 10 5f 20       	vmovsd 0x20(%rdi),%xmm3
    9404:	c5 fa 7f 77 08       	vmovdqu %xmm6,0x8(%rdi)
    9409:	c5 fa 6f 7e 18       	vmovdqu 0x18(%rsi),%xmm7
    940e:	c5 f9 14 c2          	vunpcklpd %xmm2,%xmm0,%xmm0
    9412:	c5 f1 14 cb          	vunpcklpd %xmm3,%xmm1,%xmm1
    9416:	c4 e3 7d 18 c1 01    	vinsertf128 $0x1,%xmm1,%ymm0,%ymm0
    941c:	c5 fa 7f 7f 18       	vmovdqu %xmm7,0x18(%rdi)
    9421:	c5 fd 11 46 08       	vmovupd %ymm0,0x8(%rsi)
    9426:	c5 f8 77             	vzeroupper 
    9429:	c3                   	retq   
    942a:	66 0f 1f 44 00 00    	nopw   0x0(%rax,%rax,1)
    9430:	c5 fb 10 56 18       	vmovsd 0x18(%rsi),%xmm2
    9435:	c5 fb 10 42 18       	vmovsd 0x18(%rdx),%xmm0
    943a:	c5 f9 2f c2          	vcomisd %xmm2,%xmm0
    943e:	0f 86 1c 01 00 00    	jbe    9560 <_ZSt22__move_median_to_firstIN9__gnu_cxx17__normal_iteratorIPSt4pairId11BoundingBoxESt6vectorIS4_SaIS4_EEEENS0_5__ops15_Iter_comp_iterIZN12PseudoPRTreeIdLi6EE9constructIS9_EEvRSt10shared_ptrI16PseudoPRTreeNodeIdLi6EEET_SK_iEUlRKS4_SM_E_EEEvSK_SK_SK_SK_T0_+0x250>
    9444:	c5 fb 10 49 18       	vmovsd 0x18(%rcx),%xmm1
    9449:	c5 f9 2f c8          	vcomisd %xmm0,%xmm1
    944d:	76 6c                	jbe    94bb <_ZSt22__move_median_to_firstIN9__gnu_cxx17__normal_iteratorIPSt4pairId11BoundingBoxESt6vectorIS4_SaIS4_EEEENS0_5__ops15_Iter_comp_iterIZN12PseudoPRTreeIdLi6EE9constructIS9_EEvRSt10shared_ptrI16PseudoPRTreeNodeIdLi6EEET_SK_iEUlRKS4_SM_E_EEEvSK_SK_SK_SK_T0_+0x1ab>
    944f:	c5 fb 10 0a          	vmovsd (%rdx),%xmm1
    9453:	c5 fb 10 07          	vmovsd (%rdi),%xmm0
    9457:	c5 fb 11 0f          	vmovsd %xmm1,(%rdi)
    945b:	c5 fa 6f 62 08       	vmovdqu 0x8(%rdx),%xmm4
    9460:	c5 fb 11 02          	vmovsd %xmm0,(%rdx)
    9464:	c5 fb 10 47 08       	vmovsd 0x8(%rdi),%xmm0
    9469:	c5 fb 10 57 10       	vmovsd 0x10(%rdi),%xmm2
    946e:	c5 fb 10 4f 18       	vmovsd 0x18(%rdi),%xmm1
    9473:	c5 fb 10 5f 20       	vmovsd 0x20(%rdi),%xmm3
    9478:	c5 fa 7f 67 08       	vmovdqu %xmm4,0x8(%rdi)
    947d:	c5 fa 6f 6a 18       	vmovdqu 0x18(%rdx),%xmm5
    9482:	c5 f9 14 c2          	vunpcklpd %xmm2,%xmm0,%xmm0
    9486:	c5 f1 14 cb          	vunpcklpd %xmm3,%xmm1,%xmm1
    948a:	c4 e3 7d 18 c1 01    	vinsertf128 $0x1,%xmm1,%ymm0,%ymm0
    9490:	c5 fa 7f 6f 18       	vmovdqu %xmm5,0x18(%rdi)
    9495:	c5 fd 11 42 08       	vmovupd %ymm0,0x8(%rdx)
    949a:	c5 f8 77             	vzeroupper 
    949d:	c3                   	retq   
    949e:	66 90                	xchg   %ax,%ax
    94a0:	c5 fb 10 49 20       	vmovsd 0x20(%rcx),%xmm1
    94a5:	c5 f9 2f c1          	vcomisd %xmm1,%xmm0
    94a9:	77 a4                	ja     944f <_ZSt22__move_median_to_firstIN9__gnu_cxx17__normal_iteratorIPSt4pairId11BoundingBoxESt6vectorIS4_SaIS4_EEEENS0_5__ops15_Iter_comp_iterIZN12PseudoPRTreeIdLi6EE9constructIS9_EEvRSt10shared_ptrI16PseudoPRTreeNodeIdLi6EEET_SK_iEUlRKS4_SM_E_EEEvSK_SK_SK_SK_T0_+0x13f>
    94ab:	c5 fa 7e 05 2d 6e 00 	vmovq  0x6e2d(%rip),%xmm0        # 102e0 <_ZZNSt19_Sp_make_shared_tag5_S_tiEvE5__tag+0xe0>
    94b2:	00 
    94b3:	c5 e9 57 d0          	vxorpd %xmm0,%xmm2,%xmm2
    94b7:	c5 f1 57 c8          	vxorpd %xmm0,%xmm1,%xmm1
    94bb:	c5 fb 10 07          	vmovsd (%rdi),%xmm0
    94bf:	c5 f9 2f ca          	vcomisd %xmm2,%xmm1
    94c3:	0f 86 16 ff ff ff    	jbe    93df <_ZSt22__move_median_to_firstIN9__gnu_cxx17__normal_iteratorIPSt4pairId11BoundingBoxESt6vectorIS4_SaIS4_EEEENS0_5__ops15_Iter_comp_iterIZN12PseudoPRTreeIdLi6EE9constructIS9_EEvRSt10shared_ptrI16PseudoPRTreeNodeIdLi6EEET_SK_iEUlRKS4_SM_E_EEEvSK_SK_SK_SK_T0_+0xcf>
    94c9:	c5 fb 10 09          	vmovsd (%rcx),%xmm1
    94cd:	c5 fb 11 0f          	vmovsd %xmm1,(%rdi)
    94d1:	c5 fb 11 01          	vmovsd %xmm0,(%rcx)
    94d5:	e9 a1 fe ff ff       	jmpq   937b <_ZSt22__move_median_to_firstIN9__gnu_cxx17__normal_iteratorIPSt4pairId11BoundingBoxESt6vectorIS4_SaIS4_EEEENS0_5__ops15_Iter_comp_iterIZN12PseudoPRTreeIdLi6EE9constructIS9_EEvRSt10shared_ptrI16PseudoPRTreeNodeIdLi6EEET_SK_iEUlRKS4_SM_E_EEEvSK_SK_SK_SK_T0_+0x6b>
    94da:	66 0f 1f 44 00 00    	nopw   0x0(%rax,%rax,1)
    94e0:	c5 fb 10 56 10       	vmovsd 0x10(%rsi),%xmm2
    94e5:	c5 fb 10 42 10       	vmovsd 0x10(%rdx),%xmm0
    94ea:	c5 f9 2f d0          	vcomisd %xmm0,%xmm2
    94ee:	0f 86 8c 00 00 00    	jbe    9580 <_ZSt22__move_median_to_firstIN9__gnu_cxx17__normal_iteratorIPSt4pairId11BoundingBoxESt6vectorIS4_SaIS4_EEEENS0_5__ops15_Iter_comp_iterIZN12PseudoPRTreeIdLi6EE9constructIS9_EEvRSt10shared_ptrI16PseudoPRTreeNodeIdLi6EEET_SK_iEUlRKS4_SM_E_EEEvSK_SK_SK_SK_T0_+0x270>
    94f4:	c5 fb 10 49 10       	vmovsd 0x10(%rcx),%xmm1
    94f9:	c5 f9 2f c1          	vcomisd %xmm1,%xmm0
    94fd:	0f 87 4c ff ff ff    	ja     944f <_ZSt22__move_median_to_firstIN9__gnu_cxx17__normal_iteratorIPSt4pairId11BoundingBoxESt6vectorIS4_SaIS4_EEEENS0_5__ops15_Iter_comp_iterIZN12PseudoPRTreeIdLi6EE9constructIS9_EEvRSt10shared_ptrI16PseudoPRTreeNodeIdLi6EEET_SK_iEUlRKS4_SM_E_EEEvSK_SK_SK_SK_T0_+0x13f>
    9503:	eb a6                	jmp    94ab <_ZSt22__move_median_to_firstIN9__gnu_cxx17__normal_iteratorIPSt4pairId11BoundingBoxESt6vectorIS4_SaIS4_EEEENS0_5__ops15_Iter_comp_iterIZN12PseudoPRTreeIdLi6EE9constructIS9_EEvRSt10shared_ptrI16PseudoPRTreeNodeIdLi6EEET_SK_iEUlRKS4_SM_E_EEEvSK_SK_SK_SK_T0_+0x19b>
    9505:	66 66 2e 0f 1f 84 00 	data16 nopw %cs:0x0(%rax,%rax,1)
    950c:	00 00 00 00 
    9510:	c5 fb 10 02          	vmovsd (%rdx),%xmm0
    9514:	c5 fb 11 07          	vmovsd %xmm0,(%rdi)
    9518:	c5 fa 6f 72 08       	vmovdqu 0x8(%rdx),%xmm6
    951d:	c5 fb 11 12          	vmovsd %xmm2,(%rdx)
    9521:	c5 fb 10 47 08       	vmovsd 0x8(%rdi),%xmm0
    9526:	c5 fb 10 57 10       	vmovsd 0x10(%rdi),%xmm2
    952b:	c5 fb 10 4f 18       	vmovsd 0x18(%rdi),%xmm1
    9530:	c5 fb 10 5f 20       	vmovsd 0x20(%rdi),%xmm3
    9535:	c5 fa 7f 77 08       	vmovdqu %xmm6,0x8(%rdi)
    953a:	c5 fa 6f 7a 18       	vmovdqu 0x18(%rdx),%xmm7
    953f:	c5 f9 14 c2          	vunpcklpd %xmm2,%xmm0,%xmm0
    9543:	c5 f1 14 cb          	vunpcklpd %xmm3,%xmm1,%xmm1
    9547:	c4 e3 7d 18 c1 01    	vinsertf128 $0x1,%xmm1,%ymm0,%ymm0
    954d:	c5 fa 7f 7f 18       	vmovdqu %xmm7,0x18(%rdi)
    9552:	c5 fd 11 42 08       	vmovupd %ymm0,0x8(%rdx)
    9557:	c5 f8 77             	vzeroupper 
    955a:	c3                   	retq   
    955b:	0f 1f 44 00 00       	nopl   0x0(%rax,%rax,1)
    9560:	c5 fb 10 49 18       	vmovsd 0x18(%rcx),%xmm1
    9565:	c5 f9 2f 4e 18       	vcomisd 0x18(%rsi),%xmm1
    956a:	0f 87 6b fe ff ff    	ja     93db <_ZSt22__move_median_to_firstIN9__gnu_cxx17__normal_iteratorIPSt4pairId11BoundingBoxESt6vectorIS4_SaIS4_EEEENS0_5__ops15_Iter_comp_iterIZN12PseudoPRTreeIdLi6EE9constructIS9_EEvRSt10shared_ptrI16PseudoPRTreeNodeIdLi6EEET_SK_iEUlRKS4_SM_E_EEEvSK_SK_SK_SK_T0_+0xcb>
    9570:	e9 ec fd ff ff       	jmpq   9361 <_ZSt22__move_median_to_firstIN9__gnu_cxx17__normal_iteratorIPSt4pairId11BoundingBoxESt6vectorIS4_SaIS4_EEEENS0_5__ops15_Iter_comp_iterIZN12PseudoPRTreeIdLi6EE9constructIS9_EEvRSt10shared_ptrI16PseudoPRTreeNodeIdLi6EEET_SK_iEUlRKS4_SM_E_EEEvSK_SK_SK_SK_T0_+0x51>
    9575:	66 66 2e 0f 1f 84 00 	data16 nopw %cs:0x0(%rax,%rax,1)
    957c:	00 00 00 00 
    9580:	c5 fb 10 49 10       	vmovsd 0x10(%rcx),%xmm1
    9585:	c5 f9 2f 4e 10       	vcomisd 0x10(%rsi),%xmm1
    958a:	0f 82 4b fe ff ff    	jb     93db <_ZSt22__move_median_to_firstIN9__gnu_cxx17__normal_iteratorIPSt4pairId11BoundingBoxESt6vectorIS4_SaIS4_EEEENS0_5__ops15_Iter_comp_iterIZN12PseudoPRTreeIdLi6EE9constructIS9_EEvRSt10shared_ptrI16PseudoPRTreeNodeIdLi6EEET_SK_iEUlRKS4_SM_E_EEEvSK_SK_SK_SK_T0_+0xcb>
    9590:	e9 bc fd ff ff       	jmpq   9351 <_ZSt22__move_median_to_firstIN9__gnu_cxx17__normal_iteratorIPSt4pairId11BoundingBoxESt6vectorIS4_SaIS4_EEEENS0_5__ops15_Iter_comp_iterIZN12PseudoPRTreeIdLi6EE9constructIS9_EEvRSt10shared_ptrI16PseudoPRTreeNodeIdLi6EEET_SK_iEUlRKS4_SM_E_EEEvSK_SK_SK_SK_T0_+0x41>
    9595:	66 2e 0f 1f 84 00 00 	nopw   %cs:0x0(%rax,%rax,1)
    959c:	00 00 00 
    959f:	90                   	nop

00000000000095a0 <_ZSt22__move_median_to_firstIN9__gnu_cxx17__normal_iteratorIPSt4pairIi11BoundingBoxESt6vectorIS4_SaIS4_EEEENS0_5__ops15_Iter_comp_iterIZN12PseudoPRTreeIiLi6EE9constructIS9_EEvRSt10shared_ptrI16PseudoPRTreeNodeIiLi6EEET_SK_iEUlRKS4_SM_E_EEEvSK_SK_SK_SK_T0_>:
    95a0:	41 8b 00             	mov    (%r8),%eax
    95a3:	85 c0                	test   %eax,%eax
    95a5:	0f 84 95 00 00 00    	je     9640 <_ZSt22__move_median_to_firstIN9__gnu_cxx17__normal_iteratorIPSt4pairIi11BoundingBoxESt6vectorIS4_SaIS4_EEEENS0_5__ops15_Iter_comp_iterIZN12PseudoPRTreeIiLi6EE9constructIS9_EEvRSt10shared_ptrI16PseudoPRTreeNodeIiLi6EEET_SK_iEUlRKS4_SM_E_EEEvSK_SK_SK_SK_T0_+0xa0>
    95ab:	83 f8 01             	cmp    $0x1,%eax
    95ae:	0f 84 1c 02 00 00    	je     97d0 <_ZSt22__move_median_to_firstIN9__gnu_cxx17__normal_iteratorIPSt4pairIi11BoundingBoxESt6vectorIS4_SaIS4_EEEENS0_5__ops15_Iter_comp_iterIZN12PseudoPRTreeIiLi6EE9constructIS9_EEvRSt10shared_ptrI16PseudoPRTreeNodeIiLi6EEET_SK_iEUlRKS4_SM_E_EEEvSK_SK_SK_SK_T0_+0x230>
    95b4:	83 f8 02             	cmp    $0x2,%eax
    95b7:	0f 84 f3 00 00 00    	je     96b0 <_ZSt22__move_median_to_firstIN9__gnu_cxx17__normal_iteratorIPSt4pairIi11BoundingBoxESt6vectorIS4_SaIS4_EEEENS0_5__ops15_Iter_comp_iterIZN12PseudoPRTreeIiLi6EE9constructIS9_EEvRSt10shared_ptrI16PseudoPRTreeNodeIiLi6EEET_SK_iEUlRKS4_SM_E_EEEvSK_SK_SK_SK_T0_+0x110>
    95bd:	c5 fb 10 56 20       	vmovsd 0x20(%rsi),%xmm2
    95c2:	c5 fb 10 42 20       	vmovsd 0x20(%rdx),%xmm0
    95c7:	c5 f9 2f d0          	vcomisd %xmm0,%xmm2
    95cb:	0f 87 4f 01 00 00    	ja     9720 <_ZSt22__move_median_to_firstIN9__gnu_cxx17__normal_iteratorIPSt4pairIi11BoundingBoxESt6vectorIS4_SaIS4_EEEENS0_5__ops15_Iter_comp_iterIZN12PseudoPRTreeIiLi6EE9constructIS9_EEvRSt10shared_ptrI16PseudoPRTreeNodeIiLi6EEET_SK_iEUlRKS4_SM_E_EEEvSK_SK_SK_SK_T0_+0x180>
    95d1:	c5 fb 10 49 20       	vmovsd 0x20(%rcx),%xmm1
    95d6:	c5 f9 2f 4e 20       	vcomisd 0x20(%rsi),%xmm1
    95db:	72 7e                	jb     965b <_ZSt22__move_median_to_firstIN9__gnu_cxx17__normal_iteratorIPSt4pairIi11BoundingBoxESt6vectorIS4_SaIS4_EEEENS0_5__ops15_Iter_comp_iterIZN12PseudoPRTreeIiLi6EE9constructIS9_EEvRSt10shared_ptrI16PseudoPRTreeNodeIiLi6EEET_SK_iEUlRKS4_SM_E_EEEvSK_SK_SK_SK_T0_+0xbb>
    95dd:	c5 fa 7e 15 fb 6c 00 	vmovq  0x6cfb(%rip),%xmm2        # 102e0 <_ZZNSt19_Sp_make_shared_tag5_S_tiEvE5__tag+0xe0>
    95e4:	00 
    95e5:	c5 f1 57 ca          	vxorpd %xmm2,%xmm1,%xmm1
    95e9:	c5 f9 57 c2          	vxorpd %xmm2,%xmm0,%xmm0
    95ed:	c5 fb 10 57 08       	vmovsd 0x8(%rdi),%xmm2
    95f2:	c5 fb 10 67 10       	vmovsd 0x10(%rdi),%xmm4
    95f7:	c5 f9 2f c8          	vcomisd %xmm0,%xmm1
    95fb:	c5 fb 10 5f 18       	vmovsd 0x18(%rdi),%xmm3
    9600:	c5 fb 10 6f 20       	vmovsd 0x20(%rdi),%xmm5
    9605:	8b 07                	mov    (%rdi),%eax
    9607:	0f 86 f3 01 00 00    	jbe    9800 <_ZSt22__move_median_to_firstIN9__gnu_cxx17__normal_iteratorIPSt4pairIi11BoundingBoxESt6vectorIS4_SaIS4_EEEENS0_5__ops15_Iter_comp_iterIZN12PseudoPRTreeIiLi6EE9constructIS9_EEvRSt10shared_ptrI16PseudoPRTreeNodeIiLi6EEET_SK_iEUlRKS4_SM_E_EEEvSK_SK_SK_SK_T0_+0x260>
    960d:	c5 fa 6f 71 08       	vmovdqu 0x8(%rcx),%xmm6
    9612:	8b 11                	mov    (%rcx),%edx
    9614:	c5 e1 14 dd          	vunpcklpd %xmm5,%xmm3,%xmm3
    9618:	c5 e9 14 d4          	vunpcklpd %xmm4,%xmm2,%xmm2
    961c:	c4 e3 6d 18 d3 01    	vinsertf128 $0x1,%xmm3,%ymm2,%ymm2
    9622:	89 17                	mov    %edx,(%rdi)
    9624:	89 01                	mov    %eax,(%rcx)
    9626:	c5 fa 7f 77 08       	vmovdqu %xmm6,0x8(%rdi)
    962b:	c5 fa 6f 79 18       	vmovdqu 0x18(%rcx),%xmm7
    9630:	c5 fa 7f 7f 18       	vmovdqu %xmm7,0x18(%rdi)
    9635:	c5 fd 11 51 08       	vmovupd %ymm2,0x8(%rcx)
    963a:	c5 f8 77             	vzeroupper 
    963d:	c3                   	retq   
    963e:	66 90                	xchg   %ax,%ax
    9640:	c5 fb 10 56 08       	vmovsd 0x8(%rsi),%xmm2
    9645:	c5 fb 10 42 08       	vmovsd 0x8(%rdx),%xmm0
    964a:	c5 fb 10 49 08       	vmovsd 0x8(%rcx),%xmm1
    964f:	c5 f9 2f c2          	vcomisd %xmm2,%xmm0
    9653:	77 74                	ja     96c9 <_ZSt22__move_median_to_firstIN9__gnu_cxx17__normal_iteratorIPSt4pairIi11BoundingBoxESt6vectorIS4_SaIS4_EEEENS0_5__ops15_Iter_comp_iterIZN12PseudoPRTreeIiLi6EE9constructIS9_EEvRSt10shared_ptrI16PseudoPRTreeNodeIiLi6EEET_SK_iEUlRKS4_SM_E_EEEvSK_SK_SK_SK_T0_+0x129>
    9655:	c5 f9 2f ca          	vcomisd %xmm2,%xmm1
    9659:	76 92                	jbe    95ed <_ZSt22__move_median_to_firstIN9__gnu_cxx17__normal_iteratorIPSt4pairIi11BoundingBoxESt6vectorIS4_SaIS4_EEEENS0_5__ops15_Iter_comp_iterIZN12PseudoPRTreeIiLi6EE9constructIS9_EEvRSt10shared_ptrI16PseudoPRTreeNodeIiLi6EEET_SK_iEUlRKS4_SM_E_EEEvSK_SK_SK_SK_T0_+0x4d>
    965b:	c5 fa 6f 76 08       	vmovdqu 0x8(%rsi),%xmm6
    9660:	8b 16                	mov    (%rsi),%edx
    9662:	8b 07                	mov    (%rdi),%eax
    9664:	c5 fb 10 47 08       	vmovsd 0x8(%rdi),%xmm0
    9669:	c5 fb 10 57 10       	vmovsd 0x10(%rdi),%xmm2
    966e:	c5 fb 10 4f 18       	vmovsd 0x18(%rdi),%xmm1
    9673:	c5 fb 10 5f 20       	vmovsd 0x20(%rdi),%xmm3
    9678:	89 17                	mov    %edx,(%rdi)
    967a:	89 06                	mov    %eax,(%rsi)
    967c:	c5 fa 7f 77 08       	vmovdqu %xmm6,0x8(%rdi)
    9681:	c5 fa 6f 7e 18       	vmovdqu 0x18(%rsi),%xmm7
    9686:	c5 f9 14 c2          	vunpcklpd %xmm2,%xmm0,%xmm0
    968a:	c5 f1 14 cb          	vunpcklpd %xmm3,%xmm1,%xmm1
    968e:	c4 e3 7d 18 c1 01    	vinsertf128 $0x1,%xmm1,%ymm0,%ymm0
    9694:	c5 fa 7f 7f 18       	vmovdqu %xmm7,0x18(%rdi)
    9699:	c5 fd 11 46 08       	vmovupd %ymm0,0x8(%rsi)
    969e:	c5 f8 77             	vzeroupper 
    96a1:	c3                   	retq   
    96a2:	66 66 2e 0f 1f 84 00 	data16 nopw %cs:0x0(%rax,%rax,1)
    96a9:	00 00 00 00 
    96ad:	0f 1f 00             	nopl   (%rax)
    96b0:	c5 fb 10 56 18       	vmovsd 0x18(%rsi),%xmm2
    96b5:	c5 fb 10 42 18       	vmovsd 0x18(%rdx),%xmm0
    96ba:	c5 f9 2f c2          	vcomisd %xmm2,%xmm0
    96be:	0f 86 7c 01 00 00    	jbe    9840 <_ZSt22__move_median_to_firstIN9__gnu_cxx17__normal_iteratorIPSt4pairIi11BoundingBoxESt6vectorIS4_SaIS4_EEEENS0_5__ops15_Iter_comp_iterIZN12PseudoPRTreeIiLi6EE9constructIS9_EEvRSt10shared_ptrI16PseudoPRTreeNodeIiLi6EEET_SK_iEUlRKS4_SM_E_EEEvSK_SK_SK_SK_T0_+0x2a0>
    96c4:	c5 fb 10 49 18       	vmovsd 0x18(%rcx),%xmm1
    96c9:	c5 f9 2f c8          	vcomisd %xmm0,%xmm1
    96cd:	76 6c                	jbe    973b <_ZSt22__move_median_to_firstIN9__gnu_cxx17__normal_iteratorIPSt4pairIi11BoundingBoxESt6vectorIS4_SaIS4_EEEENS0_5__ops15_Iter_comp_iterIZN12PseudoPRTreeIiLi6EE9constructIS9_EEvRSt10shared_ptrI16PseudoPRTreeNodeIiLi6EEET_SK_iEUlRKS4_SM_E_EEEvSK_SK_SK_SK_T0_+0x19b>
    96cf:	c5 fa 6f 72 08       	vmovdqu 0x8(%rdx),%xmm6
    96d4:	8b 0a                	mov    (%rdx),%ecx
    96d6:	8b 07                	mov    (%rdi),%eax
    96d8:	c5 fb 10 47 08       	vmovsd 0x8(%rdi),%xmm0
    96dd:	c5 fb 10 57 10       	vmovsd 0x10(%rdi),%xmm2
    96e2:	c5 fb 10 4f 18       	vmovsd 0x18(%rdi),%xmm1
    96e7:	c5 fb 10 5f 20       	vmovsd 0x20(%rdi),%xmm3
    96ec:	89 0f                	mov    %ecx,(%rdi)
    96ee:	89 02                	mov    %eax,(%rdx)
    96f0:	c5 fa 7f 77 08       	vmovdqu %xmm6,0x8(%rdi)
    96f5:	c5 fa 6f 7a 18       	vmovdqu 0x18(%rdx),%xmm7
    96fa:	c5 f9 14 c2          	vunpcklpd %xmm2,%xmm0,%xmm0
    96fe:	c5 f1 14 cb          	vunpcklpd %xmm3,%xmm1,%xmm1
    9702:	c4 e3 7d 18 c1 01    	vinsertf128 $0x1,%xmm1,%ymm0,%ymm0
    9708:	c5 fa 7f 7f 18       	vmovdqu %xmm7,0x18(%rdi)
    970d:	c5 fd 11 42 08       	vmovupd %ymm0,0x8(%rdx)
    9712:	c5 f8 77             	vzeroupper 
    9715:	c3                   	retq   
    9716:	66 2e 0f 1f 84 00 00 	nopw   %cs:0x0(%rax,%rax,1)
    971d:	00 00 00 
    9720:	c5 fb 10 49 20       	vmovsd 0x20(%rcx),%xmm1
    9725:	c5 f9 2f c1          	vcomisd %xmm1,%xmm0
    9729:	77 a4                	ja     96cf <_ZSt22__move_median_to_firstIN9__gnu_cxx17__normal_iteratorIPSt4pairIi11BoundingBoxESt6vectorIS4_SaIS4_EEEENS0_5__ops15_Iter_comp_iterIZN12PseudoPRTreeIiLi6EE9constructIS9_EEvRSt10shared_ptrI16PseudoPRTreeNodeIiLi6EEET_SK_iEUlRKS4_SM_E_EEEvSK_SK_SK_SK_T0_+0x12f>
    972b:	c5 fa 7e 05 ad 6b 00 	vmovq  0x6bad(%rip),%xmm0        # 102e0 <_ZZNSt19_Sp_make_shared_tag5_S_tiEvE5__tag+0xe0>
    9732:	00 
    9733:	c5 e9 57 d0          	vxorpd %xmm0,%xmm2,%xmm2
    9737:	c5 f1 57 c8          	vxorpd %xmm0,%xmm1,%xmm1
    973b:	c5 fb 10 47 08       	vmovsd 0x8(%rdi),%xmm0
    9740:	c5 fb 10 67 10       	vmovsd 0x10(%rdi),%xmm4
    9745:	c5 f9 2f ca          	vcomisd %xmm2,%xmm1
    9749:	c5 fb 10 5f 18       	vmovsd 0x18(%rdi),%xmm3
    974e:	c5 fb 10 6f 20       	vmovsd 0x20(%rdi),%xmm5
    9753:	8b 07                	mov    (%rdi),%eax
    9755:	76 39                	jbe    9790 <_ZSt22__move_median_to_firstIN9__gnu_cxx17__normal_iteratorIPSt4pairIi11BoundingBoxESt6vectorIS4_SaIS4_EEEENS0_5__ops15_Iter_comp_iterIZN12PseudoPRTreeIiLi6EE9constructIS9_EEvRSt10shared_ptrI16PseudoPRTreeNodeIiLi6EEET_SK_iEUlRKS4_SM_E_EEEvSK_SK_SK_SK_T0_+0x1f0>
    9757:	c5 fa 6f 71 08       	vmovdqu 0x8(%rcx),%xmm6
    975c:	8b 11                	mov    (%rcx),%edx
    975e:	c5 e1 14 dd          	vunpcklpd %xmm5,%xmm3,%xmm3
    9762:	c5 f9 14 c4          	vunpcklpd %xmm4,%xmm0,%xmm0
    9766:	c4 e3 7d 18 c3 01    	vinsertf128 $0x1,%xmm3,%ymm0,%ymm0
    976c:	89 17                	mov    %edx,(%rdi)
    976e:	89 01                	mov    %eax,(%rcx)
    9770:	c5 fa 7f 77 08       	vmovdqu %xmm6,0x8(%rdi)
    9775:	c5 fa 6f 79 18       	vmovdqu 0x18(%rcx),%xmm7
    977a:	c5 fa 7f 7f 18       	vmovdqu %xmm7,0x18(%rdi)
    977f:	c5 fd 11 41 08       	vmovupd %ymm0,0x8(%rcx)
    9784:	c5 f8 77             	vzeroupper 
    9787:	c3                   	retq   
    9788:	0f 1f 84 00 00 00 00 	nopl   0x0(%rax,%rax,1)
    978f:	00 
    9790:	c5 fa 6f 76 08       	vmovdqu 0x8(%rsi),%xmm6
    9795:	8b 16                	mov    (%rsi),%edx
    9797:	c5 e1 14 dd          	vunpcklpd %xmm5,%xmm3,%xmm3
    979b:	c5 f9 14 c4          	vunpcklpd %xmm4,%xmm0,%xmm0
    979f:	c4 e3 7d 18 c3 01    	vinsertf128 $0x1,%xmm3,%ymm0,%ymm0
    97a5:	89 17                	mov    %edx,(%rdi)
    97a7:	89 06                	mov    %eax,(%rsi)
    97a9:	c5 fa 7f 77 08       	vmovdqu %xmm6,0x8(%rdi)
    97ae:	c5 fa 6f 7e 18       	vmovdqu 0x18(%rsi),%xmm7
    97b3:	c5 fa 7f 7f 18       	vmovdqu %xmm7,0x18(%rdi)
    97b8:	c5 fd 11 46 08       	vmovupd %ymm0,0x8(%rsi)
    97bd:	c5 f8 77             	vzeroupper 
    97c0:	c3                   	retq   
    97c1:	66 66 2e 0f 1f 84 00 	data16 nopw %cs:0x0(%rax,%rax,1)
    97c8:	00 00 00 00 
    97cc:	0f 1f 40 00          	nopl   0x0(%rax)
    97d0:	c5 fb 10 56 10       	vmovsd 0x10(%rsi),%xmm2
    97d5:	c5 fb 10 42 10       	vmovsd 0x10(%rdx),%xmm0
    97da:	c5 f9 2f d0          	vcomisd %xmm0,%xmm2
    97de:	0f 86 7c 00 00 00    	jbe    9860 <_ZSt22__move_median_to_firstIN9__gnu_cxx17__normal_iteratorIPSt4pairIi11BoundingBoxESt6vectorIS4_SaIS4_EEEENS0_5__ops15_Iter_comp_iterIZN12PseudoPRTreeIiLi6EE9constructIS9_EEvRSt10shared_ptrI16PseudoPRTreeNodeIiLi6EEET_SK_iEUlRKS4_SM_E_EEEvSK_SK_SK_SK_T0_+0x2c0>
    97e4:	c5 fb 10 49 10       	vmovsd 0x10(%rcx),%xmm1
    97e9:	c5 f9 2f c1          	vcomisd %xmm1,%xmm0
    97ed:	0f 87 dc fe ff ff    	ja     96cf <_ZSt22__move_median_to_firstIN9__gnu_cxx17__normal_iteratorIPSt4pairIi11BoundingBoxESt6vectorIS4_SaIS4_EEEENS0_5__ops15_Iter_comp_iterIZN12PseudoPRTreeIiLi6EE9constructIS9_EEvRSt10shared_ptrI16PseudoPRTreeNodeIiLi6EEET_SK_iEUlRKS4_SM_E_EEEvSK_SK_SK_SK_T0_+0x12f>
    97f3:	e9 33 ff ff ff       	jmpq   972b <_ZSt22__move_median_to_firstIN9__gnu_cxx17__normal_iteratorIPSt4pairIi11BoundingBoxESt6vectorIS4_SaIS4_EEEENS0_5__ops15_Iter_comp_iterIZN12PseudoPRTreeIiLi6EE9constructIS9_EEvRSt10shared_ptrI16PseudoPRTreeNodeIiLi6EEET_SK_iEUlRKS4_SM_E_EEEvSK_SK_SK_SK_T0_+0x18b>
    97f8:	0f 1f 84 00 00 00 00 	nopl   0x0(%rax,%rax,1)
    97ff:	00 
    9800:	c5 fa 6f 72 08       	vmovdqu 0x8(%rdx),%xmm6
    9805:	8b 0a                	mov    (%rdx),%ecx
    9807:	c5 e1 14 dd          	vunpcklpd %xmm5,%xmm3,%xmm3
    980b:	c5 e9 14 d4          	vunpcklpd %xmm4,%xmm2,%xmm2
    980f:	c4 e3 6d 18 d3 01    	vinsertf128 $0x1,%xmm3,%ymm2,%ymm2
    9815:	89 0f                	mov    %ecx,(%rdi)
    9817:	89 02                	mov    %eax,(%rdx)
    9819:	c5 fa 7f 77 08       	vmovdqu %xmm6,0x8(%rdi)
    981e:	c5 fa 6f 7a 18       	vmovdqu 0x18(%rdx),%xmm7
    9823:	c5 fa 7f 7f 18       	vmovdqu %xmm7,0x18(%rdi)
    9828:	c5 fd 11 52 08       	vmovupd %ymm2,0x8(%rdx)
    982d:	c5 f8 77             	vzeroupper 
    9830:	c3                   	retq   
    9831:	66 66 2e 0f 1f 84 00 	data16 nopw %cs:0x0(%rax,%rax,1)
    9838:	00 00 00 00 
    983c:	0f 1f 40 00          	nopl   0x0(%rax)
    9840:	c5 fb 10 49 18       	vmovsd 0x18(%rcx),%xmm1
    9845:	c5 f9 2f 4e 18       	vcomisd 0x18(%rsi),%xmm1
    984a:	0f 87 0b fe ff ff    	ja     965b <_ZSt22__move_median_to_firstIN9__gnu_cxx17__normal_iteratorIPSt4pairIi11BoundingBoxESt6vectorIS4_SaIS4_EEEENS0_5__ops15_Iter_comp_iterIZN12PseudoPRTreeIiLi6EE9constructIS9_EEvRSt10shared_ptrI16PseudoPRTreeNodeIiLi6EEET_SK_iEUlRKS4_SM_E_EEEvSK_SK_SK_SK_T0_+0xbb>
    9850:	e9 98 fd ff ff       	jmpq   95ed <_ZSt22__move_median_to_firstIN9__gnu_cxx17__normal_iteratorIPSt4pairIi11BoundingBoxESt6vectorIS4_SaIS4_EEEENS0_5__ops15_Iter_comp_iterIZN12PseudoPRTreeIiLi6EE9constructIS9_EEvRSt10shared_ptrI16PseudoPRTreeNodeIiLi6EEET_SK_iEUlRKS4_SM_E_EEEvSK_SK_SK_SK_T0_+0x4d>
    9855:	66 66 2e 0f 1f 84 00 	data16 nopw %cs:0x0(%rax,%rax,1)
    985c:	00 00 00 00 
    9860:	c5 fb 10 49 10       	vmovsd 0x10(%rcx),%xmm1
    9865:	c5 f9 2f 4e 10       	vcomisd 0x10(%rsi),%xmm1
    986a:	0f 82 eb fd ff ff    	jb     965b <_ZSt22__move_median_to_firstIN9__gnu_cxx17__normal_iteratorIPSt4pairIi11BoundingBoxESt6vectorIS4_SaIS4_EEEENS0_5__ops15_Iter_comp_iterIZN12PseudoPRTreeIiLi6EE9constructIS9_EEvRSt10shared_ptrI16PseudoPRTreeNodeIiLi6EEET_SK_iEUlRKS4_SM_E_EEEvSK_SK_SK_SK_T0_+0xbb>
    9870:	e9 68 fd ff ff       	jmpq   95dd <_ZSt22__move_median_to_firstIN9__gnu_cxx17__normal_iteratorIPSt4pairIi11BoundingBoxESt6vectorIS4_SaIS4_EEEENS0_5__ops15_Iter_comp_iterIZN12PseudoPRTreeIiLi6EE9constructIS9_EEvRSt10shared_ptrI16PseudoPRTreeNodeIiLi6EEET_SK_iEUlRKS4_SM_E_EEEvSK_SK_SK_SK_T0_+0x3d>
    9875:	66 2e 0f 1f 84 00 00 	nopw   %cs:0x0(%rax,%rax,1)
    987c:	00 00 00 
    987f:	90                   	nop

0000000000009880 <_ZSt13__adjust_heapIN9__gnu_cxx17__normal_iteratorIPSt4pairId11BoundingBoxESt6vectorIS4_SaIS4_EEEElS4_NS0_5__ops15_Iter_comp_iterIZN12PseudoPRTreeIdLi6EE9constructIS9_EEvRSt10shared_ptrI16PseudoPRTreeNodeIdLi6EEET_SK_iEUlRKS4_SM_E_EEEvSK_T0_SP_T1_T2_>:
    9880:	48 8d 42 ff          	lea    -0x1(%rdx),%rax
    9884:	55                   	push   %rbp
    9885:	49 89 d3             	mov    %rdx,%r11
    9888:	49 89 c0             	mov    %rax,%r8
    988b:	48 89 e5             	mov    %rsp,%rbp
    988e:	41 54                	push   %r12
    9890:	53                   	push   %rbx
    9891:	49 c1 e8 3f          	shr    $0x3f,%r8
    9895:	48 89 cb             	mov    %rcx,%rbx
    9898:	49 01 c0             	add    %rax,%r8
    989b:	49 d1 f8             	sar    %r8
    989e:	4c 39 c6             	cmp    %r8,%rsi
    98a1:	0f 8d 39 05 00 00    	jge    9de0 <_ZSt13__adjust_heapIN9__gnu_cxx17__normal_iteratorIPSt4pairId11BoundingBoxESt6vectorIS4_SaIS4_EEEElS4_NS0_5__ops15_Iter_comp_iterIZN12PseudoPRTreeIdLi6EE9constructIS9_EEvRSt10shared_ptrI16PseudoPRTreeNodeIdLi6EEET_SK_iEUlRKS4_SM_E_EEEvSK_T0_SP_T1_T2_+0x560>
    98a7:	8b 01                	mov    (%rcx),%eax
    98a9:	85 c0                	test   %eax,%eax
    98ab:	0f 84 3f 04 00 00    	je     9cf0 <_ZSt13__adjust_heapIN9__gnu_cxx17__normal_iteratorIPSt4pairId11BoundingBoxESt6vectorIS4_SaIS4_EEEElS4_NS0_5__ops15_Iter_comp_iterIZN12PseudoPRTreeIdLi6EE9constructIS9_EEvRSt10shared_ptrI16PseudoPRTreeNodeIdLi6EEET_SK_iEUlRKS4_SM_E_EEEvSK_T0_SP_T1_T2_+0x470>
    98b1:	49 89 f1             	mov    %rsi,%r9
    98b4:	83 f8 01             	cmp    $0x1,%eax
    98b7:	0f 84 86 00 00 00    	je     9943 <_ZSt13__adjust_heapIN9__gnu_cxx17__normal_iteratorIPSt4pairId11BoundingBoxESt6vectorIS4_SaIS4_EEEElS4_NS0_5__ops15_Iter_comp_iterIZN12PseudoPRTreeIdLi6EE9constructIS9_EEvRSt10shared_ptrI16PseudoPRTreeNodeIdLi6EEET_SK_iEUlRKS4_SM_E_EEEvSK_T0_SP_T1_T2_+0xc3>
    98bd:	83 f8 02             	cmp    $0x2,%eax
    98c0:	0f 84 6a 03 00 00    	je     9c30 <_ZSt13__adjust_heapIN9__gnu_cxx17__normal_iteratorIPSt4pairId11BoundingBoxESt6vectorIS4_SaIS4_EEEElS4_NS0_5__ops15_Iter_comp_iterIZN12PseudoPRTreeIdLi6EE9constructIS9_EEvRSt10shared_ptrI16PseudoPRTreeNodeIdLi6EEET_SK_iEUlRKS4_SM_E_EEEvSK_T0_SP_T1_T2_+0x3b0>
    98c6:	66 2e 0f 1f 84 00 00 	nopw   %cs:0x0(%rax,%rax,1)
    98cd:	00 00 00 
    98d0:	4d 8d 51 01          	lea    0x1(%r9),%r10
    98d4:	4b 8d 0c 12          	lea    (%r10,%r10,1),%rcx
    98d8:	4e 8d 14 d1          	lea    (%rcx,%r10,8),%r10
    98dc:	4c 8d 64 89 fb       	lea    -0x5(%rcx,%rcx,4),%r12
    98e1:	48 8d 41 ff          	lea    -0x1(%rcx),%rax
    98e5:	4e 8d 14 d7          	lea    (%rdi,%r10,8),%r10
    98e9:	4a 8d 14 e7          	lea    (%rdi,%r12,8),%rdx
    98ed:	c4 c1 7b 10 42 20    	vmovsd 0x20(%r10),%xmm0
    98f3:	c4 a1 79 2f 44 e7 20 	vcomisd 0x20(%rdi,%r12,8),%xmm0
    98fa:	0f 87 a0 03 00 00    	ja     9ca0 <_ZSt13__adjust_heapIN9__gnu_cxx17__normal_iteratorIPSt4pairId11BoundingBoxESt6vectorIS4_SaIS4_EEEElS4_NS0_5__ops15_Iter_comp_iterIZN12PseudoPRTreeIdLi6EE9constructIS9_EEvRSt10shared_ptrI16PseudoPRTreeNodeIdLi6EEET_SK_iEUlRKS4_SM_E_EEEvSK_T0_SP_T1_T2_+0x420>
    9900:	c4 c1 7a 6f 6a 08    	vmovdqu 0x8(%r10),%xmm5
    9906:	4b 8d 04 89          	lea    (%r9,%r9,4),%rax
    990a:	c4 c1 7b 10 02       	vmovsd (%r10),%xmm0
    990f:	48 8d 04 c7          	lea    (%rdi,%rax,8),%rax
    9913:	c5 fa 7f 68 08       	vmovdqu %xmm5,0x8(%rax)
    9918:	c4 c1 7a 6f 62 18    	vmovdqu 0x18(%r10),%xmm4
    991e:	c5 fb 11 00          	vmovsd %xmm0,(%rax)
    9922:	c5 fa 7f 60 18       	vmovdqu %xmm4,0x18(%rax)
    9927:	49 39 c8             	cmp    %rcx,%r8
    992a:	7e 73                	jle    999f <_ZSt13__adjust_heapIN9__gnu_cxx17__normal_iteratorIPSt4pairId11BoundingBoxESt6vectorIS4_SaIS4_EEEElS4_NS0_5__ops15_Iter_comp_iterIZN12PseudoPRTreeIdLi6EE9constructIS9_EEvRSt10shared_ptrI16PseudoPRTreeNodeIdLi6EEET_SK_iEUlRKS4_SM_E_EEEvSK_T0_SP_T1_T2_+0x11f>
    992c:	49 89 c9             	mov    %rcx,%r9
    992f:	eb 9f                	jmp    98d0 <_ZSt13__adjust_heapIN9__gnu_cxx17__normal_iteratorIPSt4pairId11BoundingBoxESt6vectorIS4_SaIS4_EEEElS4_NS0_5__ops15_Iter_comp_iterIZN12PseudoPRTreeIdLi6EE9constructIS9_EEvRSt10shared_ptrI16PseudoPRTreeNodeIdLi6EEET_SK_iEUlRKS4_SM_E_EEEvSK_T0_SP_T1_T2_+0x50>
    9931:	66 66 2e 0f 1f 84 00 	data16 nopw %cs:0x0(%rax,%rax,1)
    9938:	00 00 00 00 
    993c:	0f 1f 40 00          	nopl   0x0(%rax)
    9940:	49 89 c9             	mov    %rcx,%r9
    9943:	4d 8d 51 01          	lea    0x1(%r9),%r10
    9947:	4b 8d 0c 12          	lea    (%r10,%r10,1),%rcx
    994b:	4e 8d 14 d1          	lea    (%rcx,%r10,8),%r10
    994f:	4c 8d 64 89 fb       	lea    -0x5(%rcx,%rcx,4),%r12
    9954:	48 8d 41 ff          	lea    -0x1(%rcx),%rax
    9958:	4e 8d 14 d7          	lea    (%rdi,%r10,8),%r10
    995c:	4a 8d 14 e7          	lea    (%rdi,%r12,8),%rdx
    9960:	c4 c1 7b 10 42 10    	vmovsd 0x10(%r10),%xmm0
    9966:	c4 a1 79 2f 44 e7 10 	vcomisd 0x10(%rdi,%r12,8),%xmm0
    996d:	0f 87 2d 01 00 00    	ja     9aa0 <_ZSt13__adjust_heapIN9__gnu_cxx17__normal_iteratorIPSt4pairId11BoundingBoxESt6vectorIS4_SaIS4_EEEElS4_NS0_5__ops15_Iter_comp_iterIZN12PseudoPRTreeIdLi6EE9constructIS9_EEvRSt10shared_ptrI16PseudoPRTreeNodeIdLi6EEET_SK_iEUlRKS4_SM_E_EEEvSK_T0_SP_T1_T2_+0x220>
    9973:	c4 c1 7a 6f 52 08    	vmovdqu 0x8(%r10),%xmm2
    9979:	4b 8d 04 89          	lea    (%r9,%r9,4),%rax
    997d:	c4 c1 7b 10 02       	vmovsd (%r10),%xmm0
    9982:	48 8d 04 c7          	lea    (%rdi,%rax,8),%rax
    9986:	c5 fa 7f 50 08       	vmovdqu %xmm2,0x8(%rax)
    998b:	c4 c1 7a 6f 52 18    	vmovdqu 0x18(%r10),%xmm2
    9991:	c5 fb 11 00          	vmovsd %xmm0,(%rax)
    9995:	c5 fa 7f 50 18       	vmovdqu %xmm2,0x18(%rax)
    999a:	49 39 c8             	cmp    %rcx,%r8
    999d:	7f a1                	jg     9940 <_ZSt13__adjust_heapIN9__gnu_cxx17__normal_iteratorIPSt4pairId11BoundingBoxESt6vectorIS4_SaIS4_EEEElS4_NS0_5__ops15_Iter_comp_iterIZN12PseudoPRTreeIdLi6EE9constructIS9_EEvRSt10shared_ptrI16PseudoPRTreeNodeIdLi6EEET_SK_iEUlRKS4_SM_E_EEEvSK_T0_SP_T1_T2_+0xc0>
    999f:	4c 89 d2             	mov    %r10,%rdx
    99a2:	48 89 c8             	mov    %rcx,%rax
    99a5:	41 f6 c3 01          	test   $0x1,%r11b
    99a9:	75 1a                	jne    99c5 <_ZSt13__adjust_heapIN9__gnu_cxx17__normal_iteratorIPSt4pairId11BoundingBoxESt6vectorIS4_SaIS4_EEEElS4_NS0_5__ops15_Iter_comp_iterIZN12PseudoPRTreeIdLi6EE9constructIS9_EEvRSt10shared_ptrI16PseudoPRTreeNodeIdLi6EEET_SK_iEUlRKS4_SM_E_EEEvSK_T0_SP_T1_T2_+0x145>
    99ab:	49 83 eb 02          	sub    $0x2,%r11
    99af:	4c 89 d9             	mov    %r11,%rcx
    99b2:	48 c1 e9 3f          	shr    $0x3f,%rcx
    99b6:	49 01 cb             	add    %rcx,%r11
    99b9:	49 d1 fb             	sar    %r11
    99bc:	49 39 c3             	cmp    %rax,%r11
    99bf:	0f 84 cb 03 00 00    	je     9d90 <_ZSt13__adjust_heapIN9__gnu_cxx17__normal_iteratorIPSt4pairId11BoundingBoxESt6vectorIS4_SaIS4_EEEElS4_NS0_5__ops15_Iter_comp_iterIZN12PseudoPRTreeIdLi6EE9constructIS9_EEvRSt10shared_ptrI16PseudoPRTreeNodeIdLi6EEET_SK_iEUlRKS4_SM_E_EEEvSK_T0_SP_T1_T2_+0x510>
    99c5:	4c 8d 40 ff          	lea    -0x1(%rax),%r8
    99c9:	c5 fb 10 45 10       	vmovsd 0x10(%rbp),%xmm0
    99ce:	c5 fb 10 65 18       	vmovsd 0x18(%rbp),%xmm4
    99d3:	4c 89 c1             	mov    %r8,%rcx
    99d6:	c5 fb 10 55 20       	vmovsd 0x20(%rbp),%xmm2
    99db:	c5 fb 10 6d 28       	vmovsd 0x28(%rbp),%xmm5
    99e0:	48 c1 e9 3f          	shr    $0x3f,%rcx
    99e4:	c5 fb 10 5d 30       	vmovsd 0x30(%rbp),%xmm3
    99e9:	4c 01 c1             	add    %r8,%rcx
    99ec:	48 d1 f9             	sar    %rcx
    99ef:	48 39 f0             	cmp    %rsi,%rax
    99f2:	0f 8e 83 00 00 00    	jle    9a7b <_ZSt13__adjust_heapIN9__gnu_cxx17__normal_iteratorIPSt4pairId11BoundingBoxESt6vectorIS4_SaIS4_EEEElS4_NS0_5__ops15_Iter_comp_iterIZN12PseudoPRTreeIdLi6EE9constructIS9_EEvRSt10shared_ptrI16PseudoPRTreeNodeIdLi6EEET_SK_iEUlRKS4_SM_E_EEEvSK_T0_SP_T1_T2_+0x1fb>
    99f8:	8b 13                	mov    (%rbx),%edx
    99fa:	85 d2                	test   %edx,%edx
    99fc:	0f 84 20 01 00 00    	je     9b22 <_ZSt13__adjust_heapIN9__gnu_cxx17__normal_iteratorIPSt4pairId11BoundingBoxESt6vectorIS4_SaIS4_EEEElS4_NS0_5__ops15_Iter_comp_iterIZN12PseudoPRTreeIdLi6EE9constructIS9_EEvRSt10shared_ptrI16PseudoPRTreeNodeIdLi6EEET_SK_iEUlRKS4_SM_E_EEEvSK_T0_SP_T1_T2_+0x2a2>
    9a02:	83 fa 01             	cmp    $0x1,%edx
    9a05:	0f 84 77 01 00 00    	je     9b82 <_ZSt13__adjust_heapIN9__gnu_cxx17__normal_iteratorIPSt4pairId11BoundingBoxESt6vectorIS4_SaIS4_EEEElS4_NS0_5__ops15_Iter_comp_iterIZN12PseudoPRTreeIdLi6EE9constructIS9_EEvRSt10shared_ptrI16PseudoPRTreeNodeIdLi6EEET_SK_iEUlRKS4_SM_E_EEEvSK_T0_SP_T1_T2_+0x302>
    9a0b:	83 fa 02             	cmp    $0x2,%edx
    9a0e:	75 52                	jne    9a62 <_ZSt13__adjust_heapIN9__gnu_cxx17__normal_iteratorIPSt4pairId11BoundingBoxESt6vectorIS4_SaIS4_EEEElS4_NS0_5__ops15_Iter_comp_iterIZN12PseudoPRTreeIdLi6EE9constructIS9_EEvRSt10shared_ptrI16PseudoPRTreeNodeIdLi6EEET_SK_iEUlRKS4_SM_E_EEEvSK_T0_SP_T1_T2_+0x1e2>
    9a10:	e9 cd 01 00 00       	jmpq   9be2 <_ZSt13__adjust_heapIN9__gnu_cxx17__normal_iteratorIPSt4pairId11BoundingBoxESt6vectorIS4_SaIS4_EEEElS4_NS0_5__ops15_Iter_comp_iterIZN12PseudoPRTreeIdLi6EE9constructIS9_EEvRSt10shared_ptrI16PseudoPRTreeNodeIdLi6EEET_SK_iEUlRKS4_SM_E_EEEvSK_T0_SP_T1_T2_+0x362>
    9a15:	66 66 2e 0f 1f 84 00 	data16 nopw %cs:0x0(%rax,%rax,1)
    9a1c:	00 00 00 00 
    9a20:	c4 c1 7a 6f 70 08    	vmovdqu 0x8(%r8),%xmm6
    9a26:	c4 c1 7b 10 08       	vmovsd (%r8),%xmm1
    9a2b:	c5 fa 7f 72 08       	vmovdqu %xmm6,0x8(%rdx)
    9a30:	c4 c1 7a 6f 78 18    	vmovdqu 0x18(%r8),%xmm7
    9a36:	c5 fb 11 0a          	vmovsd %xmm1,(%rdx)
    9a3a:	c5 fa 7f 7a 18       	vmovdqu %xmm7,0x18(%rdx)
    9a3f:	48 8d 51 ff          	lea    -0x1(%rcx),%rdx
    9a43:	48 89 d0             	mov    %rdx,%rax
    9a46:	48 c1 e8 3f          	shr    $0x3f,%rax
    9a4a:	48 01 d0             	add    %rdx,%rax
    9a4d:	48 d1 f8             	sar    %rax
    9a50:	48 89 c2             	mov    %rax,%rdx
    9a53:	48 89 c8             	mov    %rcx,%rax
    9a56:	48 39 f1             	cmp    %rsi,%rcx
    9a59:	0f 8e 81 02 00 00    	jle    9ce0 <_ZSt13__adjust_heapIN9__gnu_cxx17__normal_iteratorIPSt4pairId11BoundingBoxESt6vectorIS4_SaIS4_EEEElS4_NS0_5__ops15_Iter_comp_iterIZN12PseudoPRTreeIdLi6EE9constructIS9_EEvRSt10shared_ptrI16PseudoPRTreeNodeIdLi6EEET_SK_iEUlRKS4_SM_E_EEEvSK_T0_SP_T1_T2_+0x460>
    9a5f:	48 89 d1             	mov    %rdx,%rcx
    9a62:	4c 8d 0c 89          	lea    (%rcx,%rcx,4),%r9
    9a66:	48 8d 04 80          	lea    (%rax,%rax,4),%rax
    9a6a:	c4 a1 79 2f 5c cf 20 	vcomisd 0x20(%rdi,%r9,8),%xmm3
    9a71:	4e 8d 04 cf          	lea    (%rdi,%r9,8),%r8
    9a75:	48 8d 14 c7          	lea    (%rdi,%rax,8),%rdx
    9a79:	72 a5                	jb     9a20 <_ZSt13__adjust_heapIN9__gnu_cxx17__normal_iteratorIPSt4pairId11BoundingBoxESt6vectorIS4_SaIS4_EEEElS4_NS0_5__ops15_Iter_comp_iterIZN12PseudoPRTreeIdLi6EE9constructIS9_EEvRSt10shared_ptrI16PseudoPRTreeNodeIdLi6EEET_SK_iEUlRKS4_SM_E_EEEvSK_T0_SP_T1_T2_+0x1a0>
    9a7b:	c5 e9 14 d5          	vunpcklpd %xmm5,%xmm2,%xmm2
    9a7f:	c5 f9 14 c4          	vunpcklpd %xmm4,%xmm0,%xmm0
    9a83:	c5 fb 11 5a 20       	vmovsd %xmm3,0x20(%rdx)
    9a88:	c4 e3 7d 18 c2 01    	vinsertf128 $0x1,%xmm2,%ymm0,%ymm0
    9a8e:	c5 fd 11 02          	vmovupd %ymm0,(%rdx)
    9a92:	c5 f8 77             	vzeroupper 
    9a95:	5b                   	pop    %rbx
    9a96:	41 5c                	pop    %r12
    9a98:	5d                   	pop    %rbp
    9a99:	c3                   	retq   
    9a9a:	66 0f 1f 44 00 00    	nopw   0x0(%rax,%rax,1)
    9aa0:	c5 fa 6f 6a 08       	vmovdqu 0x8(%rdx),%xmm5
    9aa5:	4b 8d 0c 89          	lea    (%r9,%r9,4),%rcx
    9aa9:	c5 fb 10 02          	vmovsd (%rdx),%xmm0
    9aad:	48 8d 0c cf          	lea    (%rdi,%rcx,8),%rcx
    9ab1:	c5 fa 7f 69 08       	vmovdqu %xmm5,0x8(%rcx)
    9ab6:	c5 fa 6f 62 18       	vmovdqu 0x18(%rdx),%xmm4
    9abb:	c5 fb 11 01          	vmovsd %xmm0,(%rcx)
    9abf:	c5 fa 7f 61 18       	vmovdqu %xmm4,0x18(%rcx)
    9ac4:	49 39 c0             	cmp    %rax,%r8
    9ac7:	0f 8e d8 fe ff ff    	jle    99a5 <_ZSt13__adjust_heapIN9__gnu_cxx17__normal_iteratorIPSt4pairId11BoundingBoxESt6vectorIS4_SaIS4_EEEElS4_NS0_5__ops15_Iter_comp_iterIZN12PseudoPRTreeIdLi6EE9constructIS9_EEvRSt10shared_ptrI16PseudoPRTreeNodeIdLi6EEET_SK_iEUlRKS4_SM_E_EEEvSK_T0_SP_T1_T2_+0x125>
    9acd:	49 89 c1             	mov    %rax,%r9
    9ad0:	e9 6e fe ff ff       	jmpq   9943 <_ZSt13__adjust_heapIN9__gnu_cxx17__normal_iteratorIPSt4pairId11BoundingBoxESt6vectorIS4_SaIS4_EEEElS4_NS0_5__ops15_Iter_comp_iterIZN12PseudoPRTreeIdLi6EE9constructIS9_EEvRSt10shared_ptrI16PseudoPRTreeNodeIdLi6EEET_SK_iEUlRKS4_SM_E_EEEvSK_T0_SP_T1_T2_+0xc3>
    9ad5:	66 66 2e 0f 1f 84 00 	data16 nopw %cs:0x0(%rax,%rax,1)
    9adc:	00 00 00 00 
    9ae0:	c4 c1 7a 6f 70 08    	vmovdqu 0x8(%r8),%xmm6
    9ae6:	c4 c1 7b 10 08       	vmovsd (%r8),%xmm1
    9aeb:	c5 fa 7f 72 08       	vmovdqu %xmm6,0x8(%rdx)
    9af0:	c4 c1 7a 6f 78 18    	vmovdqu 0x18(%r8),%xmm7
    9af6:	c5 fb 11 0a          	vmovsd %xmm1,(%rdx)
    9afa:	c5 fa 7f 7a 18       	vmovdqu %xmm7,0x18(%rdx)
    9aff:	48 8d 51 ff          	lea    -0x1(%rcx),%rdx
    9b03:	48 89 d0             	mov    %rdx,%rax
    9b06:	48 c1 e8 3f          	shr    $0x3f,%rax
    9b0a:	48 01 d0             	add    %rdx,%rax
    9b0d:	48 d1 f8             	sar    %rax
    9b10:	48 89 c2             	mov    %rax,%rdx
    9b13:	48 89 c8             	mov    %rcx,%rax
    9b16:	48 39 ce             	cmp    %rcx,%rsi
    9b19:	0f 8d c1 01 00 00    	jge    9ce0 <_ZSt13__adjust_heapIN9__gnu_cxx17__normal_iteratorIPSt4pairId11BoundingBoxESt6vectorIS4_SaIS4_EEEElS4_NS0_5__ops15_Iter_comp_iterIZN12PseudoPRTreeIdLi6EE9constructIS9_EEvRSt10shared_ptrI16PseudoPRTreeNodeIdLi6EEET_SK_iEUlRKS4_SM_E_EEEvSK_T0_SP_T1_T2_+0x460>
    9b1f:	48 89 d1             	mov    %rdx,%rcx
    9b22:	4c 8d 0c 89          	lea    (%rcx,%rcx,4),%r9
    9b26:	48 8d 04 80          	lea    (%rax,%rax,4),%rax
    9b2a:	c4 a1 79 2f 64 cf 08 	vcomisd 0x8(%rdi,%r9,8),%xmm4
    9b31:	4e 8d 04 cf          	lea    (%rdi,%r9,8),%r8
    9b35:	48 8d 14 c7          	lea    (%rdi,%rax,8),%rdx
    9b39:	77 a5                	ja     9ae0 <_ZSt13__adjust_heapIN9__gnu_cxx17__normal_iteratorIPSt4pairId11BoundingBoxESt6vectorIS4_SaIS4_EEEElS4_NS0_5__ops15_Iter_comp_iterIZN12PseudoPRTreeIdLi6EE9constructIS9_EEvRSt10shared_ptrI16PseudoPRTreeNodeIdLi6EEET_SK_iEUlRKS4_SM_E_EEEvSK_T0_SP_T1_T2_+0x260>
    9b3b:	e9 3b ff ff ff       	jmpq   9a7b <_ZSt13__adjust_heapIN9__gnu_cxx17__normal_iteratorIPSt4pairId11BoundingBoxESt6vectorIS4_SaIS4_EEEElS4_NS0_5__ops15_Iter_comp_iterIZN12PseudoPRTreeIdLi6EE9constructIS9_EEvRSt10shared_ptrI16PseudoPRTreeNodeIdLi6EEET_SK_iEUlRKS4_SM_E_EEEvSK_T0_SP_T1_T2_+0x1fb>
    9b40:	c4 c1 7a 6f 70 08    	vmovdqu 0x8(%r8),%xmm6
    9b46:	c4 c1 7b 10 08       	vmovsd (%r8),%xmm1
    9b4b:	c5 fa 7f 72 08       	vmovdqu %xmm6,0x8(%rdx)
    9b50:	c4 c1 7a 6f 78 18    	vmovdqu 0x18(%r8),%xmm7
    9b56:	c5 fb 11 0a          	vmovsd %xmm1,(%rdx)
    9b5a:	c5 fa 7f 7a 18       	vmovdqu %xmm7,0x18(%rdx)
    9b5f:	48 8d 51 ff          	lea    -0x1(%rcx),%rdx
    9b63:	48 89 d0             	mov    %rdx,%rax
    9b66:	48 c1 e8 3f          	shr    $0x3f,%rax
    9b6a:	48 01 d0             	add    %rdx,%rax
    9b6d:	48 d1 f8             	sar    %rax
    9b70:	48 89 c2             	mov    %rax,%rdx
    9b73:	48 89 c8             	mov    %rcx,%rax
    9b76:	48 39 ce             	cmp    %rcx,%rsi
    9b79:	0f 8d 61 01 00 00    	jge    9ce0 <_ZSt13__adjust_heapIN9__gnu_cxx17__normal_iteratorIPSt4pairId11BoundingBoxESt6vectorIS4_SaIS4_EEEElS4_NS0_5__ops15_Iter_comp_iterIZN12PseudoPRTreeIdLi6EE9constructIS9_EEvRSt10shared_ptrI16PseudoPRTreeNodeIdLi6EEET_SK_iEUlRKS4_SM_E_EEEvSK_T0_SP_T1_T2_+0x460>
    9b7f:	48 89 d1             	mov    %rdx,%rcx
    9b82:	4c 8d 0c 89          	lea    (%rcx,%rcx,4),%r9
    9b86:	48 8d 04 80          	lea    (%rax,%rax,4),%rax
    9b8a:	c4 a1 79 2f 54 cf 10 	vcomisd 0x10(%rdi,%r9,8),%xmm2
    9b91:	4e 8d 04 cf          	lea    (%rdi,%r9,8),%r8
    9b95:	48 8d 14 c7          	lea    (%rdi,%rax,8),%rdx
    9b99:	72 a5                	jb     9b40 <_ZSt13__adjust_heapIN9__gnu_cxx17__normal_iteratorIPSt4pairId11BoundingBoxESt6vectorIS4_SaIS4_EEEElS4_NS0_5__ops15_Iter_comp_iterIZN12PseudoPRTreeIdLi6EE9constructIS9_EEvRSt10shared_ptrI16PseudoPRTreeNodeIdLi6EEET_SK_iEUlRKS4_SM_E_EEEvSK_T0_SP_T1_T2_+0x2c0>
    9b9b:	e9 db fe ff ff       	jmpq   9a7b <_ZSt13__adjust_heapIN9__gnu_cxx17__normal_iteratorIPSt4pairId11BoundingBoxESt6vectorIS4_SaIS4_EEEElS4_NS0_5__ops15_Iter_comp_iterIZN12PseudoPRTreeIdLi6EE9constructIS9_EEvRSt10shared_ptrI16PseudoPRTreeNodeIdLi6EEET_SK_iEUlRKS4_SM_E_EEEvSK_T0_SP_T1_T2_+0x1fb>
    9ba0:	c4 c1 7a 6f 70 08    	vmovdqu 0x8(%r8),%xmm6
    9ba6:	c4 c1 7b 10 08       	vmovsd (%r8),%xmm1
    9bab:	c5 fa 7f 72 08       	vmovdqu %xmm6,0x8(%rdx)
    9bb0:	c4 c1 7a 6f 78 18    	vmovdqu 0x18(%r8),%xmm7
    9bb6:	c5 fb 11 0a          	vmovsd %xmm1,(%rdx)
    9bba:	c5 fa 7f 7a 18       	vmovdqu %xmm7,0x18(%rdx)
    9bbf:	48 8d 51 ff          	lea    -0x1(%rcx),%rdx
    9bc3:	48 89 d0             	mov    %rdx,%rax
    9bc6:	48 c1 e8 3f          	shr    $0x3f,%rax
    9bca:	48 01 d0             	add    %rdx,%rax
    9bcd:	48 d1 f8             	sar    %rax
    9bd0:	48 89 c2             	mov    %rax,%rdx
    9bd3:	48 89 c8             	mov    %rcx,%rax
    9bd6:	48 39 ce             	cmp    %rcx,%rsi
    9bd9:	0f 8d 01 01 00 00    	jge    9ce0 <_ZSt13__adjust_heapIN9__gnu_cxx17__normal_iteratorIPSt4pairId11BoundingBoxESt6vectorIS4_SaIS4_EEEElS4_NS0_5__ops15_Iter_comp_iterIZN12PseudoPRTreeIdLi6EE9constructIS9_EEvRSt10shared_ptrI16PseudoPRTreeNodeIdLi6EEET_SK_iEUlRKS4_SM_E_EEEvSK_T0_SP_T1_T2_+0x460>
    9bdf:	48 89 d1             	mov    %rdx,%rcx
    9be2:	4c 8d 0c 89          	lea    (%rcx,%rcx,4),%r9
    9be6:	48 8d 04 80          	lea    (%rax,%rax,4),%rax
    9bea:	c4 a1 79 2f 6c cf 18 	vcomisd 0x18(%rdi,%r9,8),%xmm5
    9bf1:	4e 8d 04 cf          	lea    (%rdi,%r9,8),%r8
    9bf5:	48 8d 14 c7          	lea    (%rdi,%rax,8),%rdx
    9bf9:	77 a5                	ja     9ba0 <_ZSt13__adjust_heapIN9__gnu_cxx17__normal_iteratorIPSt4pairId11BoundingBoxESt6vectorIS4_SaIS4_EEEElS4_NS0_5__ops15_Iter_comp_iterIZN12PseudoPRTreeIdLi6EE9constructIS9_EEvRSt10shared_ptrI16PseudoPRTreeNodeIdLi6EEET_SK_iEUlRKS4_SM_E_EEEvSK_T0_SP_T1_T2_+0x320>
    9bfb:	e9 7b fe ff ff       	jmpq   9a7b <_ZSt13__adjust_heapIN9__gnu_cxx17__normal_iteratorIPSt4pairId11BoundingBoxESt6vectorIS4_SaIS4_EEEElS4_NS0_5__ops15_Iter_comp_iterIZN12PseudoPRTreeIdLi6EE9constructIS9_EEvRSt10shared_ptrI16PseudoPRTreeNodeIdLi6EEET_SK_iEUlRKS4_SM_E_EEEvSK_T0_SP_T1_T2_+0x1fb>
    9c00:	c5 fa 6f 62 08       	vmovdqu 0x8(%rdx),%xmm4
    9c05:	4b 8d 0c 89          	lea    (%r9,%r9,4),%rcx
    9c09:	c5 fb 10 02          	vmovsd (%rdx),%xmm0
    9c0d:	48 8d 0c cf          	lea    (%rdi,%rcx,8),%rcx
    9c11:	c5 fa 7f 61 08       	vmovdqu %xmm4,0x8(%rcx)
    9c16:	c5 fa 6f 5a 18       	vmovdqu 0x18(%rdx),%xmm3
    9c1b:	c5 fb 11 01          	vmovsd %xmm0,(%rcx)
    9c1f:	c5 fa 7f 59 18       	vmovdqu %xmm3,0x18(%rcx)
    9c24:	49 39 c0             	cmp    %rax,%r8
    9c27:	0f 8e 78 fd ff ff    	jle    99a5 <_ZSt13__adjust_heapIN9__gnu_cxx17__normal_iteratorIPSt4pairId11BoundingBoxESt6vectorIS4_SaIS4_EEEElS4_NS0_5__ops15_Iter_comp_iterIZN12PseudoPRTreeIdLi6EE9constructIS9_EEvRSt10shared_ptrI16PseudoPRTreeNodeIdLi6EEET_SK_iEUlRKS4_SM_E_EEEvSK_T0_SP_T1_T2_+0x125>
    9c2d:	49 89 c1             	mov    %rax,%r9
    9c30:	4d 8d 51 01          	lea    0x1(%r9),%r10
    9c34:	4b 8d 0c 12          	lea    (%r10,%r10,1),%rcx
    9c38:	48 8d 54 89 fb       	lea    -0x5(%rcx,%rcx,4),%rdx
    9c3d:	4e 8d 14 d1          	lea    (%rcx,%r10,8),%r10
    9c41:	48 8d 41 ff          	lea    -0x1(%rcx),%rax
    9c45:	48 8d 14 d7          	lea    (%rdi,%rdx,8),%rdx
    9c49:	4e 8d 24 d7          	lea    (%rdi,%r10,8),%r12
    9c4d:	c5 fb 10 42 18       	vmovsd 0x18(%rdx),%xmm0
    9c52:	c4 a1 79 2f 44 d7 18 	vcomisd 0x18(%rdi,%r10,8),%xmm0
    9c59:	77 a5                	ja     9c00 <_ZSt13__adjust_heapIN9__gnu_cxx17__normal_iteratorIPSt4pairId11BoundingBoxESt6vectorIS4_SaIS4_EEEElS4_NS0_5__ops15_Iter_comp_iterIZN12PseudoPRTreeIdLi6EE9constructIS9_EEvRSt10shared_ptrI16PseudoPRTreeNodeIdLi6EEET_SK_iEUlRKS4_SM_E_EEEvSK_T0_SP_T1_T2_+0x380>
    9c5b:	c4 c1 7a 6f 6c 24 08 	vmovdqu 0x8(%r12),%xmm5
    9c62:	4b 8d 04 89          	lea    (%r9,%r9,4),%rax
    9c66:	c4 c1 7b 10 04 24    	vmovsd (%r12),%xmm0
    9c6c:	48 8d 04 c7          	lea    (%rdi,%rax,8),%rax
    9c70:	c5 fa 7f 68 08       	vmovdqu %xmm5,0x8(%rax)
    9c75:	c4 c1 7a 6f 6c 24 18 	vmovdqu 0x18(%r12),%xmm5
    9c7c:	c5 fb 11 00          	vmovsd %xmm0,(%rax)
    9c80:	c5 fa 7f 68 18       	vmovdqu %xmm5,0x18(%rax)
    9c85:	49 39 c8             	cmp    %rcx,%r8
    9c88:	0f 8e 62 01 00 00    	jle    9df0 <_ZSt13__adjust_heapIN9__gnu_cxx17__normal_iteratorIPSt4pairId11BoundingBoxESt6vectorIS4_SaIS4_EEEElS4_NS0_5__ops15_Iter_comp_iterIZN12PseudoPRTreeIdLi6EE9constructIS9_EEvRSt10shared_ptrI16PseudoPRTreeNodeIdLi6EEET_SK_iEUlRKS4_SM_E_EEEvSK_T0_SP_T1_T2_+0x570>
    9c8e:	49 89 c9             	mov    %rcx,%r9
    9c91:	eb 9d                	jmp    9c30 <_ZSt13__adjust_heapIN9__gnu_cxx17__normal_iteratorIPSt4pairId11BoundingBoxESt6vectorIS4_SaIS4_EEEElS4_NS0_5__ops15_Iter_comp_iterIZN12PseudoPRTreeIdLi6EE9constructIS9_EEvRSt10shared_ptrI16PseudoPRTreeNodeIdLi6EEET_SK_iEUlRKS4_SM_E_EEEvSK_T0_SP_T1_T2_+0x3b0>
    9c93:	66 66 2e 0f 1f 84 00 	data16 nopw %cs:0x0(%rax,%rax,1)
    9c9a:	00 00 00 00 
    9c9e:	66 90                	xchg   %ax,%ax
    9ca0:	c5 fa 6f 5a 08       	vmovdqu 0x8(%rdx),%xmm3
    9ca5:	4b 8d 0c 89          	lea    (%r9,%r9,4),%rcx
    9ca9:	c5 fb 10 02          	vmovsd (%rdx),%xmm0
    9cad:	48 8d 0c cf          	lea    (%rdi,%rcx,8),%rcx
    9cb1:	c5 fa 7f 59 08       	vmovdqu %xmm3,0x8(%rcx)
    9cb6:	c5 fa 6f 52 18       	vmovdqu 0x18(%rdx),%xmm2
    9cbb:	c5 fb 11 01          	vmovsd %xmm0,(%rcx)
    9cbf:	c5 fa 7f 51 18       	vmovdqu %xmm2,0x18(%rcx)
    9cc4:	49 39 c0             	cmp    %rax,%r8
    9cc7:	0f 8e d8 fc ff ff    	jle    99a5 <_ZSt13__adjust_heapIN9__gnu_cxx17__normal_iteratorIPSt4pairId11BoundingBoxESt6vectorIS4_SaIS4_EEEElS4_NS0_5__ops15_Iter_comp_iterIZN12PseudoPRTreeIdLi6EE9constructIS9_EEvRSt10shared_ptrI16PseudoPRTreeNodeIdLi6EEET_SK_iEUlRKS4_SM_E_EEEvSK_T0_SP_T1_T2_+0x125>
    9ccd:	49 89 c1             	mov    %rax,%r9
    9cd0:	e9 fb fb ff ff       	jmpq   98d0 <_ZSt13__adjust_heapIN9__gnu_cxx17__normal_iteratorIPSt4pairId11BoundingBoxESt6vectorIS4_SaIS4_EEEElS4_NS0_5__ops15_Iter_comp_iterIZN12PseudoPRTreeIdLi6EE9constructIS9_EEvRSt10shared_ptrI16PseudoPRTreeNodeIdLi6EEET_SK_iEUlRKS4_SM_E_EEEvSK_T0_SP_T1_T2_+0x50>
    9cd5:	66 66 2e 0f 1f 84 00 	data16 nopw %cs:0x0(%rax,%rax,1)
    9cdc:	00 00 00 00 
    9ce0:	4c 89 c2             	mov    %r8,%rdx
    9ce3:	e9 93 fd ff ff       	jmpq   9a7b <_ZSt13__adjust_heapIN9__gnu_cxx17__normal_iteratorIPSt4pairId11BoundingBoxESt6vectorIS4_SaIS4_EEEElS4_NS0_5__ops15_Iter_comp_iterIZN12PseudoPRTreeIdLi6EE9constructIS9_EEvRSt10shared_ptrI16PseudoPRTreeNodeIdLi6EEET_SK_iEUlRKS4_SM_E_EEEvSK_T0_SP_T1_T2_+0x1fb>
    9ce8:	0f 1f 84 00 00 00 00 	nopl   0x0(%rax,%rax,1)
    9cef:	00 
    9cf0:	48 89 f1             	mov    %rsi,%rcx
    9cf3:	eb 3b                	jmp    9d30 <_ZSt13__adjust_heapIN9__gnu_cxx17__normal_iteratorIPSt4pairId11BoundingBoxESt6vectorIS4_SaIS4_EEEElS4_NS0_5__ops15_Iter_comp_iterIZN12PseudoPRTreeIdLi6EE9constructIS9_EEvRSt10shared_ptrI16PseudoPRTreeNodeIdLi6EEET_SK_iEUlRKS4_SM_E_EEEvSK_T0_SP_T1_T2_+0x4b0>
    9cf5:	66 66 2e 0f 1f 84 00 	data16 nopw %cs:0x0(%rax,%rax,1)
    9cfc:	00 00 00 00 
    9d00:	c5 fa 6f 6a 08       	vmovdqu 0x8(%rdx),%xmm5
    9d05:	48 8d 0c 89          	lea    (%rcx,%rcx,4),%rcx
    9d09:	c5 fb 10 02          	vmovsd (%rdx),%xmm0
    9d0d:	48 8d 0c cf          	lea    (%rdi,%rcx,8),%rcx
    9d11:	c5 fa 7f 69 08       	vmovdqu %xmm5,0x8(%rcx)
    9d16:	c5 fa 6f 62 18       	vmovdqu 0x18(%rdx),%xmm4
    9d1b:	c5 fb 11 01          	vmovsd %xmm0,(%rcx)
    9d1f:	c5 fa 7f 61 18       	vmovdqu %xmm4,0x18(%rcx)
    9d24:	49 39 c0             	cmp    %rax,%r8
    9d27:	0f 8e 78 fc ff ff    	jle    99a5 <_ZSt13__adjust_heapIN9__gnu_cxx17__normal_iteratorIPSt4pairId11BoundingBoxESt6vectorIS4_SaIS4_EEEElS4_NS0_5__ops15_Iter_comp_iterIZN12PseudoPRTreeIdLi6EE9constructIS9_EEvRSt10shared_ptrI16PseudoPRTreeNodeIdLi6EEET_SK_iEUlRKS4_SM_E_EEEvSK_T0_SP_T1_T2_+0x125>
    9d2d:	48 89 c1             	mov    %rax,%rcx
    9d30:	48 8d 51 01          	lea    0x1(%rcx),%rdx
    9d34:	48 8d 04 12          	lea    (%rdx,%rdx,1),%rax
    9d38:	4c 8d 4c 80 fb       	lea    -0x5(%rax,%rax,4),%r9
    9d3d:	4c 8d 14 d0          	lea    (%rax,%rdx,8),%r10
    9d41:	4c 8d 60 ff          	lea    -0x1(%rax),%r12
    9d45:	4e 8d 0c cf          	lea    (%rdi,%r9,8),%r9
    9d49:	4a 8d 14 d7          	lea    (%rdi,%r10,8),%rdx
    9d4d:	c4 c1 7b 10 41 08    	vmovsd 0x8(%r9),%xmm0
    9d53:	c4 a1 79 2f 44 d7 08 	vcomisd 0x8(%rdi,%r10,8),%xmm0
    9d5a:	76 a4                	jbe    9d00 <_ZSt13__adjust_heapIN9__gnu_cxx17__normal_iteratorIPSt4pairId11BoundingBoxESt6vectorIS4_SaIS4_EEEElS4_NS0_5__ops15_Iter_comp_iterIZN12PseudoPRTreeIdLi6EE9constructIS9_EEvRSt10shared_ptrI16PseudoPRTreeNodeIdLi6EEET_SK_iEUlRKS4_SM_E_EEEvSK_T0_SP_T1_T2_+0x480>
    9d5c:	c4 c1 7a 6f 59 08    	vmovdqu 0x8(%r9),%xmm3
    9d62:	48 8d 04 89          	lea    (%rcx,%rcx,4),%rax
    9d66:	c4 c1 7b 10 01       	vmovsd (%r9),%xmm0
    9d6b:	48 8d 04 c7          	lea    (%rdi,%rax,8),%rax
    9d6f:	c5 fa 7f 58 08       	vmovdqu %xmm3,0x8(%rax)
    9d74:	c4 c1 7a 6f 51 18    	vmovdqu 0x18(%r9),%xmm2
    9d7a:	c5 fb 11 00          	vmovsd %xmm0,(%rax)
    9d7e:	c5 fa 7f 50 18       	vmovdqu %xmm2,0x18(%rax)
    9d83:	4d 39 e0             	cmp    %r12,%r8
    9d86:	7e 48                	jle    9dd0 <_ZSt13__adjust_heapIN9__gnu_cxx17__normal_iteratorIPSt4pairId11BoundingBoxESt6vectorIS4_SaIS4_EEEElS4_NS0_5__ops15_Iter_comp_iterIZN12PseudoPRTreeIdLi6EE9constructIS9_EEvRSt10shared_ptrI16PseudoPRTreeNodeIdLi6EEET_SK_iEUlRKS4_SM_E_EEEvSK_T0_SP_T1_T2_+0x550>
    9d88:	4c 89 e0             	mov    %r12,%rax
    9d8b:	eb a0                	jmp    9d2d <_ZSt13__adjust_heapIN9__gnu_cxx17__normal_iteratorIPSt4pairId11BoundingBoxESt6vectorIS4_SaIS4_EEEElS4_NS0_5__ops15_Iter_comp_iterIZN12PseudoPRTreeIdLi6EE9constructIS9_EEvRSt10shared_ptrI16PseudoPRTreeNodeIdLi6EEET_SK_iEUlRKS4_SM_E_EEEvSK_T0_SP_T1_T2_+0x4ad>
    9d8d:	0f 1f 00             	nopl   (%rax)
    9d90:	48 8d 44 00 01       	lea    0x1(%rax,%rax,1),%rax
    9d95:	48 8d 0c 80          	lea    (%rax,%rax,4),%rcx
    9d99:	48 8d 0c cf          	lea    (%rdi,%rcx,8),%rcx
    9d9d:	c5 fa 6f 59 08       	vmovdqu 0x8(%rcx),%xmm3
    9da2:	c5 fb 10 01          	vmovsd (%rcx),%xmm0
    9da6:	c5 fa 7f 5a 08       	vmovdqu %xmm3,0x8(%rdx)
    9dab:	c5 fa 6f 59 18       	vmovdqu 0x18(%rcx),%xmm3
    9db0:	c5 fb 11 02          	vmovsd %xmm0,(%rdx)
    9db4:	c5 fa 7f 5a 18       	vmovdqu %xmm3,0x18(%rdx)
    9db9:	48 89 ca             	mov    %rcx,%rdx
    9dbc:	e9 04 fc ff ff       	jmpq   99c5 <_ZSt13__adjust_heapIN9__gnu_cxx17__normal_iteratorIPSt4pairId11BoundingBoxESt6vectorIS4_SaIS4_EEEElS4_NS0_5__ops15_Iter_comp_iterIZN12PseudoPRTreeIdLi6EE9constructIS9_EEvRSt10shared_ptrI16PseudoPRTreeNodeIdLi6EEET_SK_iEUlRKS4_SM_E_EEEvSK_T0_SP_T1_T2_+0x145>
    9dc1:	66 66 2e 0f 1f 84 00 	data16 nopw %cs:0x0(%rax,%rax,1)
    9dc8:	00 00 00 00 
    9dcc:	0f 1f 40 00          	nopl   0x0(%rax)
    9dd0:	4c 89 ca             	mov    %r9,%rdx
    9dd3:	4c 89 e0             	mov    %r12,%rax
    9dd6:	e9 ca fb ff ff       	jmpq   99a5 <_ZSt13__adjust_heapIN9__gnu_cxx17__normal_iteratorIPSt4pairId11BoundingBoxESt6vectorIS4_SaIS4_EEEElS4_NS0_5__ops15_Iter_comp_iterIZN12PseudoPRTreeIdLi6EE9constructIS9_EEvRSt10shared_ptrI16PseudoPRTreeNodeIdLi6EEET_SK_iEUlRKS4_SM_E_EEEvSK_T0_SP_T1_T2_+0x125>
    9ddb:	0f 1f 44 00 00       	nopl   0x0(%rax,%rax,1)
    9de0:	48 8d 04 b6          	lea    (%rsi,%rsi,4),%rax
    9de4:	48 8d 14 c7          	lea    (%rdi,%rax,8),%rdx
    9de8:	48 89 f0             	mov    %rsi,%rax
    9deb:	e9 b5 fb ff ff       	jmpq   99a5 <_ZSt13__adjust_heapIN9__gnu_cxx17__normal_iteratorIPSt4pairId11BoundingBoxESt6vectorIS4_SaIS4_EEEElS4_NS0_5__ops15_Iter_comp_iterIZN12PseudoPRTreeIdLi6EE9constructIS9_EEvRSt10shared_ptrI16PseudoPRTreeNodeIdLi6EEET_SK_iEUlRKS4_SM_E_EEEvSK_T0_SP_T1_T2_+0x125>
    9df0:	4c 89 e2             	mov    %r12,%rdx
    9df3:	48 89 c8             	mov    %rcx,%rax
    9df6:	e9 aa fb ff ff       	jmpq   99a5 <_ZSt13__adjust_heapIN9__gnu_cxx17__normal_iteratorIPSt4pairId11BoundingBoxESt6vectorIS4_SaIS4_EEEElS4_NS0_5__ops15_Iter_comp_iterIZN12PseudoPRTreeIdLi6EE9constructIS9_EEvRSt10shared_ptrI16PseudoPRTreeNodeIdLi6EEET_SK_iEUlRKS4_SM_E_EEEvSK_T0_SP_T1_T2_+0x125>
    9dfb:	0f 1f 44 00 00       	nopl   0x0(%rax,%rax,1)

0000000000009e00 <_ZSt13__heap_selectIN9__gnu_cxx17__normal_iteratorIPSt4pairId11BoundingBoxESt6vectorIS4_SaIS4_EEEENS0_5__ops15_Iter_comp_iterIZN12PseudoPRTreeIdLi6EE9constructIS9_EEvRSt10shared_ptrI16PseudoPRTreeNodeIdLi6EEET_SK_iEUlRKS4_SM_E_EEEvSK_SK_SK_T0_>:
    9e00:	48 89 f0             	mov    %rsi,%rax
    9e03:	41 57                	push   %r15
    9e05:	41 56                	push   %r14
    9e07:	49 89 cf             	mov    %rcx,%r15
    9e0a:	48 29 f8             	sub    %rdi,%rax
    9e0d:	41 55                	push   %r13
    9e0f:	49 89 d5             	mov    %rdx,%r13
    9e12:	41 54                	push   %r12
    9e14:	49 89 c6             	mov    %rax,%r14
    9e17:	55                   	push   %rbp
    9e18:	48 ba cd cc cc cc cc 	movabs $0xcccccccccccccccd,%rdx
    9e1f:	cc cc cc 
    9e22:	53                   	push   %rbx
    9e23:	49 c1 fe 03          	sar    $0x3,%r14
    9e27:	48 83 ec 38          	sub    $0x38,%rsp
    9e2b:	48 89 fd             	mov    %rdi,%rbp
    9e2e:	48 89 f3             	mov    %rsi,%rbx
    9e31:	4c 0f af f2          	imul   %rdx,%r14
    9e35:	48 83 f8 28          	cmp    $0x28,%rax
    9e39:	7e 74                	jle    9eaf <_ZSt13__heap_selectIN9__gnu_cxx17__normal_iteratorIPSt4pairId11BoundingBoxESt6vectorIS4_SaIS4_EEEENS0_5__ops15_Iter_comp_iterIZN12PseudoPRTreeIdLi6EE9constructIS9_EEvRSt10shared_ptrI16PseudoPRTreeNodeIdLi6EEET_SK_iEUlRKS4_SM_E_EEEvSK_SK_SK_T0_+0xaf>
    9e3b:	49 8d 46 fe          	lea    -0x2(%r14),%rax
    9e3f:	49 89 c4             	mov    %rax,%r12
    9e42:	49 c1 ec 3f          	shr    $0x3f,%r12
    9e46:	49 01 c4             	add    %rax,%r12
    9e49:	49 d1 fc             	sar    %r12
    9e4c:	eb 05                	jmp    9e53 <_ZSt13__heap_selectIN9__gnu_cxx17__normal_iteratorIPSt4pairId11BoundingBoxESt6vectorIS4_SaIS4_EEEENS0_5__ops15_Iter_comp_iterIZN12PseudoPRTreeIdLi6EE9constructIS9_EEvRSt10shared_ptrI16PseudoPRTreeNodeIdLi6EEET_SK_iEUlRKS4_SM_E_EEEvSK_SK_SK_T0_+0x53>
    9e4e:	66 90                	xchg   %ax,%ax
    9e50:	49 ff cc             	dec    %r12
    9e53:	4b 8d 04 a4          	lea    (%r12,%r12,4),%rax
    9e57:	48 83 ec 08          	sub    $0x8,%rsp
    9e5b:	4c 89 f9             	mov    %r15,%rcx
    9e5e:	4c 89 f2             	mov    %r14,%rdx
    9e61:	48 c1 e0 03          	shl    $0x3,%rax
    9e65:	4c 89 e6             	mov    %r12,%rsi
    9e68:	48 89 ef             	mov    %rbp,%rdi
    9e6b:	c5 fa 6f 5c 05 00    	vmovdqu 0x0(%rbp,%rax,1),%xmm3
    9e71:	c5 fa 6f 64 05 10    	vmovdqu 0x10(%rbp,%rax,1),%xmm4
    9e77:	48 8b 44 05 20       	mov    0x20(%rbp,%rax,1),%rax
    9e7c:	48 89 44 24 28       	mov    %rax,0x28(%rsp)
    9e81:	c5 fa 7f 5c 24 08    	vmovdqu %xmm3,0x8(%rsp)
    9e87:	c5 fa 7f 64 24 18    	vmovdqu %xmm4,0x18(%rsp)
    9e8d:	ff 74 24 28          	pushq  0x28(%rsp)
    9e91:	ff 74 24 28          	pushq  0x28(%rsp)
    9e95:	ff 74 24 28          	pushq  0x28(%rsp)
    9e99:	ff 74 24 28          	pushq  0x28(%rsp)
    9e9d:	ff 74 24 28          	pushq  0x28(%rsp)
    9ea1:	e8 da f9 ff ff       	callq  9880 <_ZSt13__adjust_heapIN9__gnu_cxx17__normal_iteratorIPSt4pairId11BoundingBoxESt6vectorIS4_SaIS4_EEEElS4_NS0_5__ops15_Iter_comp_iterIZN12PseudoPRTreeIdLi6EE9constructIS9_EEvRSt10shared_ptrI16PseudoPRTreeNodeIdLi6EEET_SK_iEUlRKS4_SM_E_EEEvSK_T0_SP_T1_T2_>
    9ea6:	48 83 c4 30          	add    $0x30,%rsp
    9eaa:	4d 85 e4             	test   %r12,%r12
    9ead:	75 a1                	jne    9e50 <_ZSt13__heap_selectIN9__gnu_cxx17__normal_iteratorIPSt4pairId11BoundingBoxESt6vectorIS4_SaIS4_EEEENS0_5__ops15_Iter_comp_iterIZN12PseudoPRTreeIdLi6EE9constructIS9_EEvRSt10shared_ptrI16PseudoPRTreeNodeIdLi6EEET_SK_iEUlRKS4_SM_E_EEEvSK_SK_SK_T0_+0x50>
    9eaf:	49 39 dd             	cmp    %rbx,%r13
    9eb2:	0f 86 e3 00 00 00    	jbe    9f9b <_ZSt13__heap_selectIN9__gnu_cxx17__normal_iteratorIPSt4pairId11BoundingBoxESt6vectorIS4_SaIS4_EEEENS0_5__ops15_Iter_comp_iterIZN12PseudoPRTreeIdLi6EE9constructIS9_EEvRSt10shared_ptrI16PseudoPRTreeNodeIdLi6EEET_SK_iEUlRKS4_SM_E_EEEvSK_SK_SK_T0_+0x19b>
    9eb8:	c5 fa 7e 15 20 64 00 	vmovq  0x6420(%rip),%xmm2        # 102e0 <_ZZNSt19_Sp_make_shared_tag5_S_tiEvE5__tag+0xe0>
    9ebf:	00 
    9ec0:	eb 45                	jmp    9f07 <_ZSt13__heap_selectIN9__gnu_cxx17__normal_iteratorIPSt4pairId11BoundingBoxESt6vectorIS4_SaIS4_EEEENS0_5__ops15_Iter_comp_iterIZN12PseudoPRTreeIdLi6EE9constructIS9_EEvRSt10shared_ptrI16PseudoPRTreeNodeIdLi6EEET_SK_iEUlRKS4_SM_E_EEEvSK_SK_SK_T0_+0x107>
    9ec2:	66 66 2e 0f 1f 84 00 	data16 nopw %cs:0x0(%rax,%rax,1)
    9ec9:	00 00 00 00 
    9ecd:	0f 1f 00             	nopl   (%rax)
    9ed0:	83 f8 01             	cmp    $0x1,%eax
    9ed3:	0f 84 e7 00 00 00    	je     9fc0 <_ZSt13__heap_selectIN9__gnu_cxx17__normal_iteratorIPSt4pairId11BoundingBoxESt6vectorIS4_SaIS4_EEEENS0_5__ops15_Iter_comp_iterIZN12PseudoPRTreeIdLi6EE9constructIS9_EEvRSt10shared_ptrI16PseudoPRTreeNodeIdLi6EEET_SK_iEUlRKS4_SM_E_EEEvSK_SK_SK_T0_+0x1c0>
    9ed9:	83 f8 02             	cmp    $0x2,%eax
    9edc:	0f 84 ce 00 00 00    	je     9fb0 <_ZSt13__heap_selectIN9__gnu_cxx17__normal_iteratorIPSt4pairId11BoundingBoxESt6vectorIS4_SaIS4_EEEENS0_5__ops15_Iter_comp_iterIZN12PseudoPRTreeIdLi6EE9constructIS9_EEvRSt10shared_ptrI16PseudoPRTreeNodeIdLi6EEET_SK_iEUlRKS4_SM_E_EEEvSK_SK_SK_T0_+0x1b0>
    9ee2:	c5 fb 10 43 20       	vmovsd 0x20(%rbx),%xmm0
    9ee7:	c5 fb 10 4d 20       	vmovsd 0x20(%rbp),%xmm1
    9eec:	c5 f9 57 c2          	vxorpd %xmm2,%xmm0,%xmm0
    9ef0:	c5 f1 57 ca          	vxorpd %xmm2,%xmm1,%xmm1
    9ef4:	c5 f9 2f c8          	vcomisd %xmm0,%xmm1
    9ef8:	77 24                	ja     9f1e <_ZSt13__heap_selectIN9__gnu_cxx17__normal_iteratorIPSt4pairId11BoundingBoxESt6vectorIS4_SaIS4_EEEENS0_5__ops15_Iter_comp_iterIZN12PseudoPRTreeIdLi6EE9constructIS9_EEvRSt10shared_ptrI16PseudoPRTreeNodeIdLi6EEET_SK_iEUlRKS4_SM_E_EEEvSK_SK_SK_T0_+0x11e>
    9efa:	48 83 c3 28          	add    $0x28,%rbx
    9efe:	49 39 dd             	cmp    %rbx,%r13
    9f01:	0f 86 94 00 00 00    	jbe    9f9b <_ZSt13__heap_selectIN9__gnu_cxx17__normal_iteratorIPSt4pairId11BoundingBoxESt6vectorIS4_SaIS4_EEEENS0_5__ops15_Iter_comp_iterIZN12PseudoPRTreeIdLi6EE9constructIS9_EEvRSt10shared_ptrI16PseudoPRTreeNodeIdLi6EEET_SK_iEUlRKS4_SM_E_EEEvSK_SK_SK_T0_+0x19b>
    9f07:	41 8b 07             	mov    (%r15),%eax
    9f0a:	85 c0                	test   %eax,%eax
    9f0c:	75 c2                	jne    9ed0 <_ZSt13__heap_selectIN9__gnu_cxx17__normal_iteratorIPSt4pairId11BoundingBoxESt6vectorIS4_SaIS4_EEEENS0_5__ops15_Iter_comp_iterIZN12PseudoPRTreeIdLi6EE9constructIS9_EEvRSt10shared_ptrI16PseudoPRTreeNodeIdLi6EEET_SK_iEUlRKS4_SM_E_EEEvSK_SK_SK_T0_+0xd0>
    9f0e:	c5 fb 10 43 08       	vmovsd 0x8(%rbx),%xmm0
    9f13:	c5 fb 10 4d 08       	vmovsd 0x8(%rbp),%xmm1
    9f18:	c5 f9 2f c8          	vcomisd %xmm0,%xmm1
    9f1c:	76 dc                	jbe    9efa <_ZSt13__heap_selectIN9__gnu_cxx17__normal_iteratorIPSt4pairId11BoundingBoxESt6vectorIS4_SaIS4_EEEENS0_5__ops15_Iter_comp_iterIZN12PseudoPRTreeIdLi6EE9constructIS9_EEvRSt10shared_ptrI16PseudoPRTreeNodeIdLi6EEET_SK_iEUlRKS4_SM_E_EEEvSK_SK_SK_T0_+0xfa>
    9f1e:	c5 fb 10 45 00       	vmovsd 0x0(%rbp),%xmm0
    9f23:	c5 fa 6f 2b          	vmovdqu (%rbx),%xmm5
    9f27:	48 83 ec 08          	sub    $0x8,%rsp
    9f2b:	4c 89 f9             	mov    %r15,%rcx
    9f2e:	c5 fa 6f 73 10       	vmovdqu 0x10(%rbx),%xmm6
    9f33:	48 8b 43 20          	mov    0x20(%rbx),%rax
    9f37:	4c 89 f2             	mov    %r14,%rdx
    9f3a:	31 f6                	xor    %esi,%esi
    9f3c:	48 89 ef             	mov    %rbp,%rdi
    9f3f:	48 83 c3 28          	add    $0x28,%rbx
    9f43:	48 89 44 24 28       	mov    %rax,0x28(%rsp)
    9f48:	c5 fb 11 43 d8       	vmovsd %xmm0,-0x28(%rbx)
    9f4d:	c5 fa 6f 7d 08       	vmovdqu 0x8(%rbp),%xmm7
    9f52:	c5 fa 7f 6c 24 08    	vmovdqu %xmm5,0x8(%rsp)
    9f58:	c5 fa 7f 74 24 18    	vmovdqu %xmm6,0x18(%rsp)
    9f5e:	c5 fa 7f 7b e0       	vmovdqu %xmm7,-0x20(%rbx)
    9f63:	c5 fa 6f 6d 18       	vmovdqu 0x18(%rbp),%xmm5
    9f68:	c5 fa 7f 6b f0       	vmovdqu %xmm5,-0x10(%rbx)
    9f6d:	ff 74 24 28          	pushq  0x28(%rsp)
    9f71:	ff 74 24 28          	pushq  0x28(%rsp)
    9f75:	ff 74 24 28          	pushq  0x28(%rsp)
    9f79:	ff 74 24 28          	pushq  0x28(%rsp)
    9f7d:	ff 74 24 28          	pushq  0x28(%rsp)
    9f81:	e8 fa f8 ff ff       	callq  9880 <_ZSt13__adjust_heapIN9__gnu_cxx17__normal_iteratorIPSt4pairId11BoundingBoxESt6vectorIS4_SaIS4_EEEElS4_NS0_5__ops15_Iter_comp_iterIZN12PseudoPRTreeIdLi6EE9constructIS9_EEvRSt10shared_ptrI16PseudoPRTreeNodeIdLi6EEET_SK_iEUlRKS4_SM_E_EEEvSK_T0_SP_T1_T2_>
    9f86:	c5 fa 7e 15 52 63 00 	vmovq  0x6352(%rip),%xmm2        # 102e0 <_ZZNSt19_Sp_make_shared_tag5_S_tiEvE5__tag+0xe0>
    9f8d:	00 
    9f8e:	48 83 c4 30          	add    $0x30,%rsp
    9f92:	49 39 dd             	cmp    %rbx,%r13
    9f95:	0f 87 6c ff ff ff    	ja     9f07 <_ZSt13__heap_selectIN9__gnu_cxx17__normal_iteratorIPSt4pairId11BoundingBoxESt6vectorIS4_SaIS4_EEEENS0_5__ops15_Iter_comp_iterIZN12PseudoPRTreeIdLi6EE9constructIS9_EEvRSt10shared_ptrI16PseudoPRTreeNodeIdLi6EEET_SK_iEUlRKS4_SM_E_EEEvSK_SK_SK_T0_+0x107>
    9f9b:	48 83 c4 38          	add    $0x38,%rsp
    9f9f:	5b                   	pop    %rbx
    9fa0:	5d                   	pop    %rbp
    9fa1:	41 5c                	pop    %r12
    9fa3:	41 5d                	pop    %r13
    9fa5:	41 5e                	pop    %r14
    9fa7:	41 5f                	pop    %r15
    9fa9:	c3                   	retq   
    9faa:	66 0f 1f 44 00 00    	nopw   0x0(%rax,%rax,1)
    9fb0:	c5 fb 10 43 18       	vmovsd 0x18(%rbx),%xmm0
    9fb5:	c5 fb 10 4d 18       	vmovsd 0x18(%rbp),%xmm1
    9fba:	e9 35 ff ff ff       	jmpq   9ef4 <_ZSt13__heap_selectIN9__gnu_cxx17__normal_iteratorIPSt4pairId11BoundingBoxESt6vectorIS4_SaIS4_EEEENS0_5__ops15_Iter_comp_iterIZN12PseudoPRTreeIdLi6EE9constructIS9_EEvRSt10shared_ptrI16PseudoPRTreeNodeIdLi6EEET_SK_iEUlRKS4_SM_E_EEEvSK_SK_SK_T0_+0xf4>
    9fbf:	90                   	nop
    9fc0:	c5 fb 10 43 10       	vmovsd 0x10(%rbx),%xmm0
    9fc5:	c5 fb 10 4d 10       	vmovsd 0x10(%rbp),%xmm1
    9fca:	c5 f9 57 05 0e 63 00 	vxorpd 0x630e(%rip),%xmm0,%xmm0        # 102e0 <_ZZNSt19_Sp_make_shared_tag5_S_tiEvE5__tag+0xe0>
    9fd1:	00 
    9fd2:	c5 f1 57 0d 06 63 00 	vxorpd 0x6306(%rip),%xmm1,%xmm1        # 102e0 <_ZZNSt19_Sp_make_shared_tag5_S_tiEvE5__tag+0xe0>
    9fd9:	00 
    9fda:	e9 15 ff ff ff       	jmpq   9ef4 <_ZSt13__heap_selectIN9__gnu_cxx17__normal_iteratorIPSt4pairId11BoundingBoxESt6vectorIS4_SaIS4_EEEENS0_5__ops15_Iter_comp_iterIZN12PseudoPRTreeIdLi6EE9constructIS9_EEvRSt10shared_ptrI16PseudoPRTreeNodeIdLi6EEET_SK_iEUlRKS4_SM_E_EEEvSK_SK_SK_T0_+0xf4>
    9fdf:	90                   	nop

0000000000009fe0 <_ZSt13__introselectIN9__gnu_cxx17__normal_iteratorIPSt4pairId11BoundingBoxESt6vectorIS4_SaIS4_EEEElNS0_5__ops15_Iter_comp_iterIZN12PseudoPRTreeIdLi6EE9constructIS9_EEvRSt10shared_ptrI16PseudoPRTreeNodeIdLi6EEET_SK_iEUlRKS4_SM_E_EEEvSK_SK_SK_T0_T1_>:
    9fe0:	55                   	push   %rbp
    9fe1:	48 89 d0             	mov    %rdx,%rax
    9fe4:	48 89 e5             	mov    %rsp,%rbp
    9fe7:	41 57                	push   %r15
    9fe9:	41 56                	push   %r14
    9feb:	48 29 f8             	sub    %rdi,%rax
    9fee:	41 55                	push   %r13
    9ff0:	41 54                	push   %r12
    9ff2:	49 89 fd             	mov    %rdi,%r13
    9ff5:	4d 89 c4             	mov    %r8,%r12
    9ff8:	53                   	push   %rbx
    9ff9:	49 89 d6             	mov    %rdx,%r14
    9ffc:	48 83 e4 e0          	and    $0xffffffffffffffe0,%rsp
    a000:	48 83 ec 20          	sub    $0x20,%rsp
    a004:	48 89 74 24 10       	mov    %rsi,0x10(%rsp)
    a009:	48 83 f8 78          	cmp    $0x78,%rax
    a00d:	0f 8e 0b 02 00 00    	jle    a21e <_ZSt13__introselectIN9__gnu_cxx17__normal_iteratorIPSt4pairId11BoundingBoxESt6vectorIS4_SaIS4_EEEElNS0_5__ops15_Iter_comp_iterIZN12PseudoPRTreeIdLi6EE9constructIS9_EEvRSt10shared_ptrI16PseudoPRTreeNodeIdLi6EEET_SK_iEUlRKS4_SM_E_EEEvSK_SK_SK_T0_T1_+0x23e>
    a013:	49 89 cf             	mov    %rcx,%r15
    a016:	48 85 c9             	test   %rcx,%rcx
    a019:	0f 84 1e 02 00 00    	je     a23d <_ZSt13__introselectIN9__gnu_cxx17__normal_iteratorIPSt4pairId11BoundingBoxESt6vectorIS4_SaIS4_EEEElNS0_5__ops15_Iter_comp_iterIZN12PseudoPRTreeIdLi6EE9constructIS9_EEvRSt10shared_ptrI16PseudoPRTreeNodeIdLi6EEET_SK_iEUlRKS4_SM_E_EEEvSK_SK_SK_T0_T1_+0x25d>
    a01f:	90                   	nop
    a020:	48 bb cd cc cc cc cc 	movabs $0xcccccccccccccccd,%rbx
    a027:	cc cc cc 
    a02a:	48 c1 f8 03          	sar    $0x3,%rax
    a02e:	49 8d 4e d8          	lea    -0x28(%r14),%rcx
    a032:	4d 89 e0             	mov    %r12,%r8
    a035:	48 0f af c3          	imul   %rbx,%rax
    a039:	49 8d 5d 28          	lea    0x28(%r13),%rbx
    a03d:	4c 89 ef             	mov    %r13,%rdi
    a040:	49 ff cf             	dec    %r15
    a043:	48 89 de             	mov    %rbx,%rsi
    a046:	48 d1 f8             	sar    %rax
    a049:	48 8d 04 80          	lea    (%rax,%rax,4),%rax
    a04d:	49 8d 54 c5 00       	lea    0x0(%r13,%rax,8),%rdx
    a052:	e8 b9 f2 ff ff       	callq  9310 <_ZSt22__move_median_to_firstIN9__gnu_cxx17__normal_iteratorIPSt4pairId11BoundingBoxESt6vectorIS4_SaIS4_EEEENS0_5__ops15_Iter_comp_iterIZN12PseudoPRTreeIdLi6EE9constructIS9_EEvRSt10shared_ptrI16PseudoPRTreeNodeIdLi6EEET_SK_iEUlRKS4_SM_E_EEEvSK_SK_SK_SK_T0_>
    a057:	41 8b 34 24          	mov    (%r12),%esi
    a05b:	48 89 da             	mov    %rbx,%rdx
    a05e:	4c 89 f0             	mov    %r14,%rax
    a061:	85 f6                	test   %esi,%esi
    a063:	0f 84 b5 00 00 00    	je     a11e <_ZSt13__introselectIN9__gnu_cxx17__normal_iteratorIPSt4pairId11BoundingBoxESt6vectorIS4_SaIS4_EEEElNS0_5__ops15_Iter_comp_iterIZN12PseudoPRTreeIdLi6EE9constructIS9_EEvRSt10shared_ptrI16PseudoPRTreeNodeIdLi6EEET_SK_iEUlRKS4_SM_E_EEEvSK_SK_SK_T0_T1_+0x13e>
    a069:	0f 1f 80 00 00 00 00 	nopl   0x0(%rax)
    a070:	83 fe 01             	cmp    $0x1,%esi
    a073:	0f 84 57 01 00 00    	je     a1d0 <_ZSt13__introselectIN9__gnu_cxx17__normal_iteratorIPSt4pairId11BoundingBoxESt6vectorIS4_SaIS4_EEEElNS0_5__ops15_Iter_comp_iterIZN12PseudoPRTreeIdLi6EE9constructIS9_EEvRSt10shared_ptrI16PseudoPRTreeNodeIdLi6EEET_SK_iEUlRKS4_SM_E_EEEvSK_SK_SK_T0_T1_+0x1f0>
    a079:	83 fe 02             	cmp    $0x2,%esi
    a07c:	0f 84 0e 01 00 00    	je     a190 <_ZSt13__introselectIN9__gnu_cxx17__normal_iteratorIPSt4pairId11BoundingBoxESt6vectorIS4_SaIS4_EEEElNS0_5__ops15_Iter_comp_iterIZN12PseudoPRTreeIdLi6EE9constructIS9_EEvRSt10shared_ptrI16PseudoPRTreeNodeIdLi6EEET_SK_iEUlRKS4_SM_E_EEEvSK_SK_SK_T0_T1_+0x1b0>
    a082:	c5 fb 10 42 20       	vmovsd 0x20(%rdx),%xmm0
    a087:	c4 c1 79 2f 45 20    	vcomisd 0x20(%r13),%xmm0
    a08d:	0f 87 7f 00 00 00    	ja     a112 <_ZSt13__introselectIN9__gnu_cxx17__normal_iteratorIPSt4pairId11BoundingBoxESt6vectorIS4_SaIS4_EEEElNS0_5__ops15_Iter_comp_iterIZN12PseudoPRTreeIdLi6EE9constructIS9_EEvRSt10shared_ptrI16PseudoPRTreeNodeIdLi6EEET_SK_iEUlRKS4_SM_E_EEEvSK_SK_SK_T0_T1_+0x132>
    a093:	c4 c1 7b 10 45 20    	vmovsd 0x20(%r13),%xmm0
    a099:	48 8d 78 d8          	lea    -0x28(%rax),%rdi
    a09d:	48 8d 48 b0          	lea    -0x50(%rax),%rcx
    a0a1:	c5 f9 2f 40 f8       	vcomisd -0x8(%rax),%xmm0
    a0a6:	0f 86 67 01 00 00    	jbe    a213 <_ZSt13__introselectIN9__gnu_cxx17__normal_iteratorIPSt4pairId11BoundingBoxESt6vectorIS4_SaIS4_EEEElNS0_5__ops15_Iter_comp_iterIZN12PseudoPRTreeIdLi6EE9constructIS9_EEvRSt10shared_ptrI16PseudoPRTreeNodeIdLi6EEET_SK_iEUlRKS4_SM_E_EEEvSK_SK_SK_T0_T1_+0x233>
    a0ac:	0f 1f 40 00          	nopl   0x0(%rax)
    a0b0:	48 89 c8             	mov    %rcx,%rax
    a0b3:	48 83 e9 28          	sub    $0x28,%rcx
    a0b7:	c5 f9 2f 40 20       	vcomisd 0x20(%rax),%xmm0
    a0bc:	77 f2                	ja     a0b0 <_ZSt13__introselectIN9__gnu_cxx17__normal_iteratorIPSt4pairId11BoundingBoxESt6vectorIS4_SaIS4_EEEElNS0_5__ops15_Iter_comp_iterIZN12PseudoPRTreeIdLi6EE9constructIS9_EEvRSt10shared_ptrI16PseudoPRTreeNodeIdLi6EEET_SK_iEUlRKS4_SM_E_EEEvSK_SK_SK_T0_T1_+0xd0>
    a0be:	48 39 c2             	cmp    %rax,%rdx
    a0c1:	0f 83 8d 00 00 00    	jae    a154 <_ZSt13__introselectIN9__gnu_cxx17__normal_iteratorIPSt4pairId11BoundingBoxESt6vectorIS4_SaIS4_EEEElNS0_5__ops15_Iter_comp_iterIZN12PseudoPRTreeIdLi6EE9constructIS9_EEvRSt10shared_ptrI16PseudoPRTreeNodeIdLi6EEET_SK_iEUlRKS4_SM_E_EEEvSK_SK_SK_T0_T1_+0x174>
    a0c7:	c5 fb 10 08          	vmovsd (%rax),%xmm1
    a0cb:	c5 fb 10 02          	vmovsd (%rdx),%xmm0
    a0cf:	c5 fb 11 0a          	vmovsd %xmm1,(%rdx)
    a0d3:	c5 fa 6f 60 08       	vmovdqu 0x8(%rax),%xmm4
    a0d8:	c5 fb 11 00          	vmovsd %xmm0,(%rax)
    a0dc:	c5 fb 10 42 08       	vmovsd 0x8(%rdx),%xmm0
    a0e1:	c5 fb 10 52 10       	vmovsd 0x10(%rdx),%xmm2
    a0e6:	c5 fb 10 4a 18       	vmovsd 0x18(%rdx),%xmm1
    a0eb:	c5 fb 10 5a 20       	vmovsd 0x20(%rdx),%xmm3
    a0f0:	c5 fa 7f 62 08       	vmovdqu %xmm4,0x8(%rdx)
    a0f5:	c5 fa 6f 68 18       	vmovdqu 0x18(%rax),%xmm5
    a0fa:	c5 f9 14 c2          	vunpcklpd %xmm2,%xmm0,%xmm0
    a0fe:	c5 f1 14 cb          	vunpcklpd %xmm3,%xmm1,%xmm1
    a102:	c4 e3 7d 18 c1 01    	vinsertf128 $0x1,%xmm1,%ymm0,%ymm0
    a108:	c5 fa 7f 6a 18       	vmovdqu %xmm5,0x18(%rdx)
    a10d:	c5 fd 11 40 08       	vmovupd %ymm0,0x8(%rax)
    a112:	48 83 c2 28          	add    $0x28,%rdx
    a116:	85 f6                	test   %esi,%esi
    a118:	0f 85 52 ff ff ff    	jne    a070 <_ZSt13__introselectIN9__gnu_cxx17__normal_iteratorIPSt4pairId11BoundingBoxESt6vectorIS4_SaIS4_EEEElNS0_5__ops15_Iter_comp_iterIZN12PseudoPRTreeIdLi6EE9constructIS9_EEvRSt10shared_ptrI16PseudoPRTreeNodeIdLi6EEET_SK_iEUlRKS4_SM_E_EEEvSK_SK_SK_T0_T1_+0x90>
    a11e:	c4 c1 7b 10 45 08    	vmovsd 0x8(%r13),%xmm0
    a124:	c5 f9 2f 42 08       	vcomisd 0x8(%rdx),%xmm0
    a129:	77 e7                	ja     a112 <_ZSt13__introselectIN9__gnu_cxx17__normal_iteratorIPSt4pairId11BoundingBoxESt6vectorIS4_SaIS4_EEEElNS0_5__ops15_Iter_comp_iterIZN12PseudoPRTreeIdLi6EE9constructIS9_EEvRSt10shared_ptrI16PseudoPRTreeNodeIdLi6EEET_SK_iEUlRKS4_SM_E_EEEvSK_SK_SK_T0_T1_+0x132>
    a12b:	c5 f9 2f 40 e0       	vcomisd -0x20(%rax),%xmm0
    a130:	48 8d 48 d8          	lea    -0x28(%rax),%rcx
    a134:	48 89 c8             	mov    %rcx,%rax
    a137:	73 85                	jae    a0be <_ZSt13__introselectIN9__gnu_cxx17__normal_iteratorIPSt4pairId11BoundingBoxESt6vectorIS4_SaIS4_EEEElNS0_5__ops15_Iter_comp_iterIZN12PseudoPRTreeIdLi6EE9constructIS9_EEvRSt10shared_ptrI16PseudoPRTreeNodeIdLi6EEET_SK_iEUlRKS4_SM_E_EEEvSK_SK_SK_T0_T1_+0xde>
    a139:	0f 1f 80 00 00 00 00 	nopl   0x0(%rax)
    a140:	48 83 e8 28          	sub    $0x28,%rax
    a144:	c5 f9 2f 40 08       	vcomisd 0x8(%rax),%xmm0
    a149:	72 f5                	jb     a140 <_ZSt13__introselectIN9__gnu_cxx17__normal_iteratorIPSt4pairId11BoundingBoxESt6vectorIS4_SaIS4_EEEElNS0_5__ops15_Iter_comp_iterIZN12PseudoPRTreeIdLi6EE9constructIS9_EEvRSt10shared_ptrI16PseudoPRTreeNodeIdLi6EEET_SK_iEUlRKS4_SM_E_EEEvSK_SK_SK_T0_T1_+0x160>
    a14b:	48 39 c2             	cmp    %rax,%rdx
    a14e:	0f 82 73 ff ff ff    	jb     a0c7 <_ZSt13__introselectIN9__gnu_cxx17__normal_iteratorIPSt4pairId11BoundingBoxESt6vectorIS4_SaIS4_EEEElNS0_5__ops15_Iter_comp_iterIZN12PseudoPRTreeIdLi6EE9constructIS9_EEvRSt10shared_ptrI16PseudoPRTreeNodeIdLi6EEET_SK_iEUlRKS4_SM_E_EEEvSK_SK_SK_T0_T1_+0xe7>
    a154:	48 39 54 24 10       	cmp    %rdx,0x10(%rsp)
    a159:	4c 0f 42 f2          	cmovb  %rdx,%r14
    a15d:	4c 0f 43 ea          	cmovae %rdx,%r13
    a161:	4c 89 f0             	mov    %r14,%rax
    a164:	4c 29 e8             	sub    %r13,%rax
    a167:	48 83 f8 78          	cmp    $0x78,%rax
    a16b:	0f 8e aa 00 00 00    	jle    a21b <_ZSt13__introselectIN9__gnu_cxx17__normal_iteratorIPSt4pairId11BoundingBoxESt6vectorIS4_SaIS4_EEEElNS0_5__ops15_Iter_comp_iterIZN12PseudoPRTreeIdLi6EE9constructIS9_EEvRSt10shared_ptrI16PseudoPRTreeNodeIdLi6EEET_SK_iEUlRKS4_SM_E_EEEvSK_SK_SK_T0_T1_+0x23b>
    a171:	4d 85 ff             	test   %r15,%r15
    a174:	0f 84 c0 00 00 00    	je     a23a <_ZSt13__introselectIN9__gnu_cxx17__normal_iteratorIPSt4pairId11BoundingBoxESt6vectorIS4_SaIS4_EEEElNS0_5__ops15_Iter_comp_iterIZN12PseudoPRTreeIdLi6EE9constructIS9_EEvRSt10shared_ptrI16PseudoPRTreeNodeIdLi6EEET_SK_iEUlRKS4_SM_E_EEEvSK_SK_SK_T0_T1_+0x25a>
    a17a:	c5 f8 77             	vzeroupper 
    a17d:	e9 9e fe ff ff       	jmpq   a020 <_ZSt13__introselectIN9__gnu_cxx17__normal_iteratorIPSt4pairId11BoundingBoxESt6vectorIS4_SaIS4_EEEElNS0_5__ops15_Iter_comp_iterIZN12PseudoPRTreeIdLi6EE9constructIS9_EEvRSt10shared_ptrI16PseudoPRTreeNodeIdLi6EEET_SK_iEUlRKS4_SM_E_EEEvSK_SK_SK_T0_T1_+0x40>
    a182:	66 66 2e 0f 1f 84 00 	data16 nopw %cs:0x0(%rax,%rax,1)
    a189:	00 00 00 00 
    a18d:	0f 1f 00             	nopl   (%rax)
    a190:	c4 c1 7b 10 45 18    	vmovsd 0x18(%r13),%xmm0
    a196:	c5 f9 2f 42 18       	vcomisd 0x18(%rdx),%xmm0
    a19b:	0f 87 71 ff ff ff    	ja     a112 <_ZSt13__introselectIN9__gnu_cxx17__normal_iteratorIPSt4pairId11BoundingBoxESt6vectorIS4_SaIS4_EEEElNS0_5__ops15_Iter_comp_iterIZN12PseudoPRTreeIdLi6EE9constructIS9_EEvRSt10shared_ptrI16PseudoPRTreeNodeIdLi6EEET_SK_iEUlRKS4_SM_E_EEEvSK_SK_SK_T0_T1_+0x132>
    a1a1:	c5 f9 2f 40 f0       	vcomisd -0x10(%rax),%xmm0
    a1a6:	48 8d 78 d8          	lea    -0x28(%rax),%rdi
    a1aa:	48 8d 48 b0          	lea    -0x50(%rax),%rcx
    a1ae:	73 63                	jae    a213 <_ZSt13__introselectIN9__gnu_cxx17__normal_iteratorIPSt4pairId11BoundingBoxESt6vectorIS4_SaIS4_EEEElNS0_5__ops15_Iter_comp_iterIZN12PseudoPRTreeIdLi6EE9constructIS9_EEvRSt10shared_ptrI16PseudoPRTreeNodeIdLi6EEET_SK_iEUlRKS4_SM_E_EEEvSK_SK_SK_T0_T1_+0x233>
    a1b0:	48 89 c8             	mov    %rcx,%rax
    a1b3:	48 83 e9 28          	sub    $0x28,%rcx
    a1b7:	c5 f9 2f 41 40       	vcomisd 0x40(%rcx),%xmm0
    a1bc:	72 f2                	jb     a1b0 <_ZSt13__introselectIN9__gnu_cxx17__normal_iteratorIPSt4pairId11BoundingBoxESt6vectorIS4_SaIS4_EEEElNS0_5__ops15_Iter_comp_iterIZN12PseudoPRTreeIdLi6EE9constructIS9_EEvRSt10shared_ptrI16PseudoPRTreeNodeIdLi6EEET_SK_iEUlRKS4_SM_E_EEEvSK_SK_SK_T0_T1_+0x1d0>
    a1be:	e9 fb fe ff ff       	jmpq   a0be <_ZSt13__introselectIN9__gnu_cxx17__normal_iteratorIPSt4pairId11BoundingBoxESt6vectorIS4_SaIS4_EEEElNS0_5__ops15_Iter_comp_iterIZN12PseudoPRTreeIdLi6EE9constructIS9_EEvRSt10shared_ptrI16PseudoPRTreeNodeIdLi6EEET_SK_iEUlRKS4_SM_E_EEEvSK_SK_SK_T0_T1_+0xde>
    a1c3:	66 66 2e 0f 1f 84 00 	data16 nopw %cs:0x0(%rax,%rax,1)
    a1ca:	00 00 00 00 
    a1ce:	66 90                	xchg   %ax,%ax
    a1d0:	c5 fb 10 42 10       	vmovsd 0x10(%rdx),%xmm0
    a1d5:	c4 c1 79 2f 45 10    	vcomisd 0x10(%r13),%xmm0
    a1db:	0f 87 31 ff ff ff    	ja     a112 <_ZSt13__introselectIN9__gnu_cxx17__normal_iteratorIPSt4pairId11BoundingBoxESt6vectorIS4_SaIS4_EEEElNS0_5__ops15_Iter_comp_iterIZN12PseudoPRTreeIdLi6EE9constructIS9_EEvRSt10shared_ptrI16PseudoPRTreeNodeIdLi6EEET_SK_iEUlRKS4_SM_E_EEEvSK_SK_SK_T0_T1_+0x132>
    a1e1:	c4 c1 7b 10 45 10    	vmovsd 0x10(%r13),%xmm0
    a1e7:	48 8d 78 d8          	lea    -0x28(%rax),%rdi
    a1eb:	48 8d 48 b0          	lea    -0x50(%rax),%rcx
    a1ef:	c5 f9 2f 40 e8       	vcomisd -0x18(%rax),%xmm0
    a1f4:	76 1d                	jbe    a213 <_ZSt13__introselectIN9__gnu_cxx17__normal_iteratorIPSt4pairId11BoundingBoxESt6vectorIS4_SaIS4_EEEElNS0_5__ops15_Iter_comp_iterIZN12PseudoPRTreeIdLi6EE9constructIS9_EEvRSt10shared_ptrI16PseudoPRTreeNodeIdLi6EEET_SK_iEUlRKS4_SM_E_EEEvSK_SK_SK_T0_T1_+0x233>
    a1f6:	66 2e 0f 1f 84 00 00 	nopw   %cs:0x0(%rax,%rax,1)
    a1fd:	00 00 00 
    a200:	48 89 c8             	mov    %rcx,%rax
    a203:	48 83 e9 28          	sub    $0x28,%rcx
    a207:	c5 f9 2f 40 10       	vcomisd 0x10(%rax),%xmm0
    a20c:	77 f2                	ja     a200 <_ZSt13__introselectIN9__gnu_cxx17__normal_iteratorIPSt4pairId11BoundingBoxESt6vectorIS4_SaIS4_EEEElNS0_5__ops15_Iter_comp_iterIZN12PseudoPRTreeIdLi6EE9constructIS9_EEvRSt10shared_ptrI16PseudoPRTreeNodeIdLi6EEET_SK_iEUlRKS4_SM_E_EEEvSK_SK_SK_T0_T1_+0x220>
    a20e:	e9 ab fe ff ff       	jmpq   a0be <_ZSt13__introselectIN9__gnu_cxx17__normal_iteratorIPSt4pairId11BoundingBoxESt6vectorIS4_SaIS4_EEEElNS0_5__ops15_Iter_comp_iterIZN12PseudoPRTreeIdLi6EE9constructIS9_EEvRSt10shared_ptrI16PseudoPRTreeNodeIdLi6EEET_SK_iEUlRKS4_SM_E_EEEvSK_SK_SK_T0_T1_+0xde>
    a213:	48 89 f8             	mov    %rdi,%rax
    a216:	e9 a3 fe ff ff       	jmpq   a0be <_ZSt13__introselectIN9__gnu_cxx17__normal_iteratorIPSt4pairId11BoundingBoxESt6vectorIS4_SaIS4_EEEElNS0_5__ops15_Iter_comp_iterIZN12PseudoPRTreeIdLi6EE9constructIS9_EEvRSt10shared_ptrI16PseudoPRTreeNodeIdLi6EEET_SK_iEUlRKS4_SM_E_EEEvSK_SK_SK_T0_T1_+0xde>
    a21b:	c5 f8 77             	vzeroupper 
    a21e:	48 8d 65 d8          	lea    -0x28(%rbp),%rsp
    a222:	4c 89 e2             	mov    %r12,%rdx
    a225:	4c 89 f6             	mov    %r14,%rsi
    a228:	4c 89 ef             	mov    %r13,%rdi
    a22b:	5b                   	pop    %rbx
    a22c:	41 5c                	pop    %r12
    a22e:	41 5d                	pop    %r13
    a230:	41 5e                	pop    %r14
    a232:	41 5f                	pop    %r15
    a234:	5d                   	pop    %rbp
    a235:	e9 96 e9 ff ff       	jmpq   8bd0 <_ZSt16__insertion_sortIN9__gnu_cxx17__normal_iteratorIPSt4pairId11BoundingBoxESt6vectorIS4_SaIS4_EEEENS0_5__ops15_Iter_comp_iterIZN12PseudoPRTreeIdLi6EE9constructIS9_EEvRSt10shared_ptrI16PseudoPRTreeNodeIdLi6EEET_SK_iEUlRKS4_SM_E_EEEvSK_SK_T0_>
    a23a:	c5 f8 77             	vzeroupper 
    a23d:	48 8b 5c 24 10       	mov    0x10(%rsp),%rbx
    a242:	4c 89 e1             	mov    %r12,%rcx
    a245:	4c 89 f2             	mov    %r14,%rdx
    a248:	4c 89 ef             	mov    %r13,%rdi
    a24b:	48 8d 73 28          	lea    0x28(%rbx),%rsi
    a24f:	e8 ac fb ff ff       	callq  9e00 <_ZSt13__heap_selectIN9__gnu_cxx17__normal_iteratorIPSt4pairId11BoundingBoxESt6vectorIS4_SaIS4_EEEENS0_5__ops15_Iter_comp_iterIZN12PseudoPRTreeIdLi6EE9constructIS9_EEvRSt10shared_ptrI16PseudoPRTreeNodeIdLi6EEET_SK_iEUlRKS4_SM_E_EEEvSK_SK_SK_T0_>
    a254:	c5 fb 10 0b          	vmovsd (%rbx),%xmm1
    a258:	c4 c1 7b 10 45 00    	vmovsd 0x0(%r13),%xmm0
    a25e:	c4 c1 7b 11 4d 00    	vmovsd %xmm1,0x0(%r13)
    a264:	c5 fa 6f 73 08       	vmovdqu 0x8(%rbx),%xmm6
    a269:	c5 fb 11 03          	vmovsd %xmm0,(%rbx)
    a26d:	c4 c1 7b 10 45 08    	vmovsd 0x8(%r13),%xmm0
    a273:	c4 c1 7b 10 55 10    	vmovsd 0x10(%r13),%xmm2
    a279:	c4 c1 7b 10 4d 18    	vmovsd 0x18(%r13),%xmm1
    a27f:	c4 c1 7b 10 5d 20    	vmovsd 0x20(%r13),%xmm3
    a285:	c4 c1 7a 7f 75 08    	vmovdqu %xmm6,0x8(%r13)
    a28b:	c5 fa 6f 73 18       	vmovdqu 0x18(%rbx),%xmm6
    a290:	c5 f9 14 c2          	vunpcklpd %xmm2,%xmm0,%xmm0
    a294:	c5 f1 14 cb          	vunpcklpd %xmm3,%xmm1,%xmm1
    a298:	c4 e3 7d 18 c1 01    	vinsertf128 $0x1,%xmm1,%ymm0,%ymm0
    a29e:	c4 c1 7a 7f 75 18    	vmovdqu %xmm6,0x18(%r13)
    a2a4:	c5 f9 7f 74 24 10    	vmovdqa %xmm6,0x10(%rsp)
    a2aa:	c5 fd 11 43 08       	vmovupd %ymm0,0x8(%rbx)
    a2af:	c5 f8 77             	vzeroupper 
    a2b2:	48 8d 65 d8          	lea    -0x28(%rbp),%rsp
    a2b6:	5b                   	pop    %rbx
    a2b7:	41 5c                	pop    %r12
    a2b9:	41 5d                	pop    %r13
    a2bb:	41 5e                	pop    %r14
    a2bd:	41 5f                	pop    %r15
    a2bf:	5d                   	pop    %rbp
    a2c0:	c3                   	retq   
    a2c1:	66 2e 0f 1f 84 00 00 	nopw   %cs:0x0(%rax,%rax,1)
    a2c8:	00 00 00 
    a2cb:	0f 1f 44 00 00       	nopl   0x0(%rax,%rax,1)

000000000000a2d0 <_ZSt13__adjust_heapIN9__gnu_cxx17__normal_iteratorIPSt4pairIi11BoundingBoxESt6vectorIS4_SaIS4_EEEElS4_NS0_5__ops15_Iter_comp_iterIZN12PseudoPRTreeIiLi6EE9constructIS9_EEvRSt10shared_ptrI16PseudoPRTreeNodeIiLi6EEET_SK_iEUlRKS4_SM_E_EEEvSK_T0_SP_T1_T2_>:
    a2d0:	55                   	push   %rbp
    a2d1:	48 8d 42 ff          	lea    -0x1(%rdx),%rax
    a2d5:	49 89 f0             	mov    %rsi,%r8
    a2d8:	49 89 c9             	mov    %rcx,%r9
    a2db:	48 89 e5             	mov    %rsp,%rbp
    a2de:	41 54                	push   %r12
    a2e0:	49 89 c4             	mov    %rax,%r12
    a2e3:	53                   	push   %rbx
    a2e4:	49 c1 ec 3f          	shr    $0x3f,%r12
    a2e8:	48 89 d3             	mov    %rdx,%rbx
    a2eb:	49 01 c4             	add    %rax,%r12
    a2ee:	49 d1 fc             	sar    %r12
    a2f1:	4c 39 e6             	cmp    %r12,%rsi
    a2f4:	0f 8d 86 02 00 00    	jge    a580 <_ZSt13__adjust_heapIN9__gnu_cxx17__normal_iteratorIPSt4pairIi11BoundingBoxESt6vectorIS4_SaIS4_EEEElS4_NS0_5__ops15_Iter_comp_iterIZN12PseudoPRTreeIiLi6EE9constructIS9_EEvRSt10shared_ptrI16PseudoPRTreeNodeIiLi6EEET_SK_iEUlRKS4_SM_E_EEEvSK_T0_SP_T1_T2_+0x2b0>
    a2fa:	c5 fa 7e 15 de 5f 00 	vmovq  0x5fde(%rip),%xmm2        # 102e0 <_ZZNSt19_Sp_make_shared_tag5_S_tiEvE5__tag+0xe0>
    a301:	00 
    a302:	48 89 f1             	mov    %rsi,%rcx
    a305:	c5 f9 28 da          	vmovapd %xmm2,%xmm3
    a309:	eb 31                	jmp    a33c <_ZSt13__adjust_heapIN9__gnu_cxx17__normal_iteratorIPSt4pairIi11BoundingBoxESt6vectorIS4_SaIS4_EEEElS4_NS0_5__ops15_Iter_comp_iterIZN12PseudoPRTreeIiLi6EE9constructIS9_EEvRSt10shared_ptrI16PseudoPRTreeNodeIiLi6EEET_SK_iEUlRKS4_SM_E_EEEvSK_T0_SP_T1_T2_+0x6c>
    a30b:	0f 1f 44 00 00       	nopl   0x0(%rax,%rax,1)
    a310:	c5 fa 6f 72 08       	vmovdqu 0x8(%rdx),%xmm6
    a315:	48 8d 0c 89          	lea    (%rcx,%rcx,4),%rcx
    a319:	8b 32                	mov    (%rdx),%esi
    a31b:	48 8d 0c cf          	lea    (%rdi,%rcx,8),%rcx
    a31f:	89 31                	mov    %esi,(%rcx)
    a321:	c5 fa 7f 71 08       	vmovdqu %xmm6,0x8(%rcx)
    a326:	c5 fa 6f 7a 18       	vmovdqu 0x18(%rdx),%xmm7
    a32b:	c5 fa 7f 79 18       	vmovdqu %xmm7,0x18(%rcx)
    a330:	49 39 c4             	cmp    %rax,%r12
    a333:	0f 8e bd 00 00 00    	jle    a3f6 <_ZSt13__adjust_heapIN9__gnu_cxx17__normal_iteratorIPSt4pairIi11BoundingBoxESt6vectorIS4_SaIS4_EEEElS4_NS0_5__ops15_Iter_comp_iterIZN12PseudoPRTreeIiLi6EE9constructIS9_EEvRSt10shared_ptrI16PseudoPRTreeNodeIiLi6EEET_SK_iEUlRKS4_SM_E_EEEvSK_T0_SP_T1_T2_+0x126>
    a339:	48 89 c1             	mov    %rax,%rcx
    a33c:	45 8b 11             	mov    (%r9),%r10d
    a33f:	48 8d 51 01          	lea    0x1(%rcx),%rdx
    a343:	48 8d 04 12          	lea    (%rdx,%rdx,1),%rax
    a347:	48 8d 74 80 fb       	lea    -0x5(%rax,%rax,4),%rsi
    a34c:	48 8d 14 d0          	lea    (%rax,%rdx,8),%rdx
    a350:	4c 8d 58 ff          	lea    -0x1(%rax),%r11
    a354:	48 8d 34 f7          	lea    (%rdi,%rsi,8),%rsi
    a358:	48 8d 14 d7          	lea    (%rdi,%rdx,8),%rdx
    a35c:	45 85 d2             	test   %r10d,%r10d
    a35f:	74 4f                	je     a3b0 <_ZSt13__adjust_heapIN9__gnu_cxx17__normal_iteratorIPSt4pairIi11BoundingBoxESt6vectorIS4_SaIS4_EEEElS4_NS0_5__ops15_Iter_comp_iterIZN12PseudoPRTreeIiLi6EE9constructIS9_EEvRSt10shared_ptrI16PseudoPRTreeNodeIiLi6EEET_SK_iEUlRKS4_SM_E_EEEvSK_T0_SP_T1_T2_+0xe0>
    a361:	41 83 fa 01          	cmp    $0x1,%r10d
    a365:	74 69                	je     a3d0 <_ZSt13__adjust_heapIN9__gnu_cxx17__normal_iteratorIPSt4pairIi11BoundingBoxESt6vectorIS4_SaIS4_EEEElS4_NS0_5__ops15_Iter_comp_iterIZN12PseudoPRTreeIiLi6EE9constructIS9_EEvRSt10shared_ptrI16PseudoPRTreeNodeIiLi6EEET_SK_iEUlRKS4_SM_E_EEEvSK_T0_SP_T1_T2_+0x100>
    a367:	41 83 fa 02          	cmp    $0x2,%r10d
    a36b:	74 53                	je     a3c0 <_ZSt13__adjust_heapIN9__gnu_cxx17__normal_iteratorIPSt4pairIi11BoundingBoxESt6vectorIS4_SaIS4_EEEElS4_NS0_5__ops15_Iter_comp_iterIZN12PseudoPRTreeIiLi6EE9constructIS9_EEvRSt10shared_ptrI16PseudoPRTreeNodeIiLi6EEET_SK_iEUlRKS4_SM_E_EEEvSK_T0_SP_T1_T2_+0xf0>
    a36d:	c5 fb 10 42 20       	vmovsd 0x20(%rdx),%xmm0
    a372:	c5 fb 10 4e 20       	vmovsd 0x20(%rsi),%xmm1
    a377:	c5 f9 57 c2          	vxorpd %xmm2,%xmm0,%xmm0
    a37b:	c5 f1 57 ca          	vxorpd %xmm2,%xmm1,%xmm1
    a37f:	c5 f9 2f c8          	vcomisd %xmm0,%xmm1
    a383:	76 8b                	jbe    a310 <_ZSt13__adjust_heapIN9__gnu_cxx17__normal_iteratorIPSt4pairIi11BoundingBoxESt6vectorIS4_SaIS4_EEEElS4_NS0_5__ops15_Iter_comp_iterIZN12PseudoPRTreeIiLi6EE9constructIS9_EEvRSt10shared_ptrI16PseudoPRTreeNodeIiLi6EEET_SK_iEUlRKS4_SM_E_EEEvSK_T0_SP_T1_T2_+0x40>
    a385:	c5 fa 6f 6e 08       	vmovdqu 0x8(%rsi),%xmm5
    a38a:	48 8d 04 89          	lea    (%rcx,%rcx,4),%rax
    a38e:	8b 16                	mov    (%rsi),%edx
    a390:	48 8d 04 c7          	lea    (%rdi,%rax,8),%rax
    a394:	89 10                	mov    %edx,(%rax)
    a396:	c5 fa 7f 68 08       	vmovdqu %xmm5,0x8(%rax)
    a39b:	c5 fa 6f 66 18       	vmovdqu 0x18(%rsi),%xmm4
    a3a0:	c5 fa 7f 60 18       	vmovdqu %xmm4,0x18(%rax)
    a3a5:	4d 39 dc             	cmp    %r11,%r12
    a3a8:	7e 46                	jle    a3f0 <_ZSt13__adjust_heapIN9__gnu_cxx17__normal_iteratorIPSt4pairIi11BoundingBoxESt6vectorIS4_SaIS4_EEEElS4_NS0_5__ops15_Iter_comp_iterIZN12PseudoPRTreeIiLi6EE9constructIS9_EEvRSt10shared_ptrI16PseudoPRTreeNodeIiLi6EEET_SK_iEUlRKS4_SM_E_EEEvSK_T0_SP_T1_T2_+0x120>
    a3aa:	4c 89 d8             	mov    %r11,%rax
    a3ad:	eb 8a                	jmp    a339 <_ZSt13__adjust_heapIN9__gnu_cxx17__normal_iteratorIPSt4pairIi11BoundingBoxESt6vectorIS4_SaIS4_EEEElS4_NS0_5__ops15_Iter_comp_iterIZN12PseudoPRTreeIiLi6EE9constructIS9_EEvRSt10shared_ptrI16PseudoPRTreeNodeIiLi6EEET_SK_iEUlRKS4_SM_E_EEEvSK_T0_SP_T1_T2_+0x69>
    a3af:	90                   	nop
    a3b0:	c5 fb 10 42 08       	vmovsd 0x8(%rdx),%xmm0
    a3b5:	c5 fb 10 4e 08       	vmovsd 0x8(%rsi),%xmm1
    a3ba:	eb c3                	jmp    a37f <_ZSt13__adjust_heapIN9__gnu_cxx17__normal_iteratorIPSt4pairIi11BoundingBoxESt6vectorIS4_SaIS4_EEEElS4_NS0_5__ops15_Iter_comp_iterIZN12PseudoPRTreeIiLi6EE9constructIS9_EEvRSt10shared_ptrI16PseudoPRTreeNodeIiLi6EEET_SK_iEUlRKS4_SM_E_EEEvSK_T0_SP_T1_T2_+0xaf>
    a3bc:	0f 1f 40 00          	nopl   0x0(%rax)
    a3c0:	c5 fb 10 42 18       	vmovsd 0x18(%rdx),%xmm0
    a3c5:	c5 fb 10 4e 18       	vmovsd 0x18(%rsi),%xmm1
    a3ca:	eb b3                	jmp    a37f <_ZSt13__adjust_heapIN9__gnu_cxx17__normal_iteratorIPSt4pairIi11BoundingBoxESt6vectorIS4_SaIS4_EEEElS4_NS0_5__ops15_Iter_comp_iterIZN12PseudoPRTreeIiLi6EE9constructIS9_EEvRSt10shared_ptrI16PseudoPRTreeNodeIiLi6EEET_SK_iEUlRKS4_SM_E_EEEvSK_T0_SP_T1_T2_+0xaf>
    a3cc:	0f 1f 40 00          	nopl   0x0(%rax)
    a3d0:	c5 fb 10 42 10       	vmovsd 0x10(%rdx),%xmm0
    a3d5:	c5 fb 10 4e 10       	vmovsd 0x10(%rsi),%xmm1
    a3da:	c5 f9 57 c3          	vxorpd %xmm3,%xmm0,%xmm0
    a3de:	c5 f1 57 cb          	vxorpd %xmm3,%xmm1,%xmm1
    a3e2:	eb 9b                	jmp    a37f <_ZSt13__adjust_heapIN9__gnu_cxx17__normal_iteratorIPSt4pairIi11BoundingBoxESt6vectorIS4_SaIS4_EEEElS4_NS0_5__ops15_Iter_comp_iterIZN12PseudoPRTreeIiLi6EE9constructIS9_EEvRSt10shared_ptrI16PseudoPRTreeNodeIiLi6EEET_SK_iEUlRKS4_SM_E_EEEvSK_T0_SP_T1_T2_+0xaf>
    a3e4:	66 66 2e 0f 1f 84 00 	data16 nopw %cs:0x0(%rax,%rax,1)
    a3eb:	00 00 00 00 
    a3ef:	90                   	nop
    a3f0:	48 89 f2             	mov    %rsi,%rdx
    a3f3:	4c 89 d8             	mov    %r11,%rax
    a3f6:	f6 c3 01             	test   $0x1,%bl
    a3f9:	75 1a                	jne    a415 <_ZSt13__adjust_heapIN9__gnu_cxx17__normal_iteratorIPSt4pairIi11BoundingBoxESt6vectorIS4_SaIS4_EEEElS4_NS0_5__ops15_Iter_comp_iterIZN12PseudoPRTreeIiLi6EE9constructIS9_EEvRSt10shared_ptrI16PseudoPRTreeNodeIiLi6EEET_SK_iEUlRKS4_SM_E_EEEvSK_T0_SP_T1_T2_+0x145>
    a3fb:	48 83 eb 02          	sub    $0x2,%rbx
    a3ff:	48 89 d9             	mov    %rbx,%rcx
    a402:	48 c1 e9 3f          	shr    $0x3f,%rcx
    a406:	48 01 cb             	add    %rcx,%rbx
    a409:	48 d1 fb             	sar    %rbx
    a40c:	48 39 c3             	cmp    %rax,%rbx
    a40f:	0f 84 3b 01 00 00    	je     a550 <_ZSt13__adjust_heapIN9__gnu_cxx17__normal_iteratorIPSt4pairIi11BoundingBoxESt6vectorIS4_SaIS4_EEEElS4_NS0_5__ops15_Iter_comp_iterIZN12PseudoPRTreeIiLi6EE9constructIS9_EEvRSt10shared_ptrI16PseudoPRTreeNodeIiLi6EEET_SK_iEUlRKS4_SM_E_EEEvSK_T0_SP_T1_T2_+0x280>
    a415:	48 8d 70 ff          	lea    -0x1(%rax),%rsi
    a419:	c5 fb 10 55 18       	vmovsd 0x18(%rbp),%xmm2
    a41e:	c5 fb 10 75 20       	vmovsd 0x20(%rbp),%xmm6
    a423:	48 89 f1             	mov    %rsi,%rcx
    a426:	c5 fb 10 65 28       	vmovsd 0x28(%rbp),%xmm4
    a42b:	c5 fb 10 7d 30       	vmovsd 0x30(%rbp),%xmm7
    a430:	48 c1 e9 3f          	shr    $0x3f,%rcx
    a434:	44 8b 55 10          	mov    0x10(%rbp),%r10d
    a438:	48 01 f1             	add    %rsi,%rcx
    a43b:	48 d1 f9             	sar    %rcx
    a43e:	4c 39 c0             	cmp    %r8,%rax
    a441:	0f 8e a3 00 00 00    	jle    a4ea <_ZSt13__adjust_heapIN9__gnu_cxx17__normal_iteratorIPSt4pairIi11BoundingBoxESt6vectorIS4_SaIS4_EEEElS4_NS0_5__ops15_Iter_comp_iterIZN12PseudoPRTreeIiLi6EE9constructIS9_EEvRSt10shared_ptrI16PseudoPRTreeNodeIiLi6EEET_SK_iEUlRKS4_SM_E_EEEvSK_T0_SP_T1_T2_+0x21a>
    a447:	c5 fa 7e 1d 91 5e 00 	vmovq  0x5e91(%rip),%xmm3        # 102e0 <_ZZNSt19_Sp_make_shared_tag5_S_tiEvE5__tag+0xe0>
    a44e:	00 
    a44f:	c5 c1 57 eb          	vxorpd %xmm3,%xmm7,%xmm5
    a453:	c5 79 28 cb          	vmovapd %xmm3,%xmm9
    a457:	c5 49 57 c3          	vxorpd %xmm3,%xmm6,%xmm8
    a45b:	eb 67                	jmp    a4c4 <_ZSt13__adjust_heapIN9__gnu_cxx17__normal_iteratorIPSt4pairIi11BoundingBoxESt6vectorIS4_SaIS4_EEEElS4_NS0_5__ops15_Iter_comp_iterIZN12PseudoPRTreeIiLi6EE9constructIS9_EEvRSt10shared_ptrI16PseudoPRTreeNodeIiLi6EEET_SK_iEUlRKS4_SM_E_EEEvSK_T0_SP_T1_T2_+0x1f4>
    a45d:	0f 1f 00             	nopl   (%rax)
    a460:	83 fa 01             	cmp    $0x1,%edx
    a463:	0f 84 b7 00 00 00    	je     a520 <_ZSt13__adjust_heapIN9__gnu_cxx17__normal_iteratorIPSt4pairIi11BoundingBoxESt6vectorIS4_SaIS4_EEEElS4_NS0_5__ops15_Iter_comp_iterIZN12PseudoPRTreeIiLi6EE9constructIS9_EEvRSt10shared_ptrI16PseudoPRTreeNodeIiLi6EEET_SK_iEUlRKS4_SM_E_EEEvSK_T0_SP_T1_T2_+0x250>
    a469:	83 fa 02             	cmp    $0x2,%edx
    a46c:	0f 84 9e 00 00 00    	je     a510 <_ZSt13__adjust_heapIN9__gnu_cxx17__normal_iteratorIPSt4pairIi11BoundingBoxESt6vectorIS4_SaIS4_EEEElS4_NS0_5__ops15_Iter_comp_iterIZN12PseudoPRTreeIiLi6EE9constructIS9_EEvRSt10shared_ptrI16PseudoPRTreeNodeIiLi6EEET_SK_iEUlRKS4_SM_E_EEEvSK_T0_SP_T1_T2_+0x240>
    a472:	c5 fb 10 46 20       	vmovsd 0x20(%rsi),%xmm0
    a477:	c5 d3 10 cd          	vmovsd %xmm5,%xmm5,%xmm1
    a47b:	c5 f9 57 c3          	vxorpd %xmm3,%xmm0,%xmm0
    a47f:	48 8d 04 80          	lea    (%rax,%rax,4),%rax
    a483:	c5 f9 2f c8          	vcomisd %xmm0,%xmm1
    a487:	48 8d 14 c7          	lea    (%rdi,%rax,8),%rdx
    a48b:	76 5d                	jbe    a4ea <_ZSt13__adjust_heapIN9__gnu_cxx17__normal_iteratorIPSt4pairIi11BoundingBoxESt6vectorIS4_SaIS4_EEEElS4_NS0_5__ops15_Iter_comp_iterIZN12PseudoPRTreeIiLi6EE9constructIS9_EEvRSt10shared_ptrI16PseudoPRTreeNodeIiLi6EEET_SK_iEUlRKS4_SM_E_EEEvSK_T0_SP_T1_T2_+0x21a>
    a48d:	c5 fa 6f 4e 08       	vmovdqu 0x8(%rsi),%xmm1
    a492:	8b 06                	mov    (%rsi),%eax
    a494:	89 02                	mov    %eax,(%rdx)
    a496:	c5 fa 7f 4a 08       	vmovdqu %xmm1,0x8(%rdx)
    a49b:	c5 fa 6f 46 18       	vmovdqu 0x18(%rsi),%xmm0
    a4a0:	c5 fa 7f 42 18       	vmovdqu %xmm0,0x18(%rdx)
    a4a5:	48 8d 51 ff          	lea    -0x1(%rcx),%rdx
    a4a9:	48 89 d0             	mov    %rdx,%rax
    a4ac:	48 c1 e8 3f          	shr    $0x3f,%rax
    a4b0:	48 01 d0             	add    %rdx,%rax
    a4b3:	48 d1 f8             	sar    %rax
    a4b6:	48 89 c2             	mov    %rax,%rdx
    a4b9:	48 89 c8             	mov    %rcx,%rax
    a4bc:	49 39 c8             	cmp    %rcx,%r8
    a4bf:	7d 7f                	jge    a540 <_ZSt13__adjust_heapIN9__gnu_cxx17__normal_iteratorIPSt4pairIi11BoundingBoxESt6vectorIS4_SaIS4_EEEElS4_NS0_5__ops15_Iter_comp_iterIZN12PseudoPRTreeIiLi6EE9constructIS9_EEvRSt10shared_ptrI16PseudoPRTreeNodeIiLi6EEET_SK_iEUlRKS4_SM_E_EEEvSK_T0_SP_T1_T2_+0x270>
    a4c1:	48 89 d1             	mov    %rdx,%rcx
    a4c4:	48 8d 14 89          	lea    (%rcx,%rcx,4),%rdx
    a4c8:	48 8d 34 d7          	lea    (%rdi,%rdx,8),%rsi
    a4cc:	41 8b 11             	mov    (%r9),%edx
    a4cf:	85 d2                	test   %edx,%edx
    a4d1:	75 8d                	jne    a460 <_ZSt13__adjust_heapIN9__gnu_cxx17__normal_iteratorIPSt4pairIi11BoundingBoxESt6vectorIS4_SaIS4_EEEElS4_NS0_5__ops15_Iter_comp_iterIZN12PseudoPRTreeIiLi6EE9constructIS9_EEvRSt10shared_ptrI16PseudoPRTreeNodeIiLi6EEET_SK_iEUlRKS4_SM_E_EEEvSK_T0_SP_T1_T2_+0x190>
    a4d3:	c5 fb 10 46 08       	vmovsd 0x8(%rsi),%xmm0
    a4d8:	c5 eb 10 ca          	vmovsd %xmm2,%xmm2,%xmm1
    a4dc:	48 8d 04 80          	lea    (%rax,%rax,4),%rax
    a4e0:	48 8d 14 c7          	lea    (%rdi,%rax,8),%rdx
    a4e4:	c5 f9 2f c8          	vcomisd %xmm0,%xmm1
    a4e8:	77 a3                	ja     a48d <_ZSt13__adjust_heapIN9__gnu_cxx17__normal_iteratorIPSt4pairIi11BoundingBoxESt6vectorIS4_SaIS4_EEEElS4_NS0_5__ops15_Iter_comp_iterIZN12PseudoPRTreeIiLi6EE9constructIS9_EEvRSt10shared_ptrI16PseudoPRTreeNodeIiLi6EEET_SK_iEUlRKS4_SM_E_EEEvSK_T0_SP_T1_T2_+0x1bd>
    a4ea:	c5 d9 14 e7          	vunpcklpd %xmm7,%xmm4,%xmm4
    a4ee:	c5 e9 14 d6          	vunpcklpd %xmm6,%xmm2,%xmm2
    a4f2:	44 89 12             	mov    %r10d,(%rdx)
    a4f5:	c4 e3 6d 18 d4 01    	vinsertf128 $0x1,%xmm4,%ymm2,%ymm2
    a4fb:	c5 fd 11 52 08       	vmovupd %ymm2,0x8(%rdx)
    a500:	c5 f8 77             	vzeroupper 
    a503:	5b                   	pop    %rbx
    a504:	41 5c                	pop    %r12
    a506:	5d                   	pop    %rbp
    a507:	c3                   	retq   
    a508:	0f 1f 84 00 00 00 00 	nopl   0x0(%rax,%rax,1)
    a50f:	00 
    a510:	c5 fb 10 46 18       	vmovsd 0x18(%rsi),%xmm0
    a515:	c5 db 10 cc          	vmovsd %xmm4,%xmm4,%xmm1
    a519:	e9 61 ff ff ff       	jmpq   a47f <_ZSt13__adjust_heapIN9__gnu_cxx17__normal_iteratorIPSt4pairIi11BoundingBoxESt6vectorIS4_SaIS4_EEEElS4_NS0_5__ops15_Iter_comp_iterIZN12PseudoPRTreeIiLi6EE9constructIS9_EEvRSt10shared_ptrI16PseudoPRTreeNodeIiLi6EEET_SK_iEUlRKS4_SM_E_EEEvSK_T0_SP_T1_T2_+0x1af>
    a51e:	66 90                	xchg   %ax,%ax
    a520:	c5 fb 10 46 10       	vmovsd 0x10(%rsi),%xmm0
    a525:	c5 3b 11 c1          	vmovsd %xmm8,%xmm8,%xmm1
    a529:	c4 c1 79 57 c1       	vxorpd %xmm9,%xmm0,%xmm0
    a52e:	e9 4c ff ff ff       	jmpq   a47f <_ZSt13__adjust_heapIN9__gnu_cxx17__normal_iteratorIPSt4pairIi11BoundingBoxESt6vectorIS4_SaIS4_EEEElS4_NS0_5__ops15_Iter_comp_iterIZN12PseudoPRTreeIiLi6EE9constructIS9_EEvRSt10shared_ptrI16PseudoPRTreeNodeIiLi6EEET_SK_iEUlRKS4_SM_E_EEEvSK_T0_SP_T1_T2_+0x1af>
    a533:	66 66 2e 0f 1f 84 00 	data16 nopw %cs:0x0(%rax,%rax,1)
    a53a:	00 00 00 00 
    a53e:	66 90                	xchg   %ax,%ax
    a540:	48 89 f2             	mov    %rsi,%rdx
    a543:	eb a5                	jmp    a4ea <_ZSt13__adjust_heapIN9__gnu_cxx17__normal_iteratorIPSt4pairIi11BoundingBoxESt6vectorIS4_SaIS4_EEEElS4_NS0_5__ops15_Iter_comp_iterIZN12PseudoPRTreeIiLi6EE9constructIS9_EEvRSt10shared_ptrI16PseudoPRTreeNodeIiLi6EEET_SK_iEUlRKS4_SM_E_EEEvSK_T0_SP_T1_T2_+0x21a>
    a545:	66 66 2e 0f 1f 84 00 	data16 nopw %cs:0x0(%rax,%rax,1)
    a54c:	00 00 00 00 
    a550:	48 8d 44 00 01       	lea    0x1(%rax,%rax,1),%rax
    a555:	48 8d 0c 80          	lea    (%rax,%rax,4),%rcx
    a559:	48 8d 0c cf          	lea    (%rdi,%rcx,8),%rcx
    a55d:	c5 fa 6f 59 08       	vmovdqu 0x8(%rcx),%xmm3
    a562:	8b 31                	mov    (%rcx),%esi
    a564:	89 32                	mov    %esi,(%rdx)
    a566:	c5 fa 7f 5a 08       	vmovdqu %xmm3,0x8(%rdx)
    a56b:	c5 fa 6f 59 18       	vmovdqu 0x18(%rcx),%xmm3
    a570:	c5 fa 7f 5a 18       	vmovdqu %xmm3,0x18(%rdx)
    a575:	48 89 ca             	mov    %rcx,%rdx
    a578:	e9 98 fe ff ff       	jmpq   a415 <_ZSt13__adjust_heapIN9__gnu_cxx17__normal_iteratorIPSt4pairIi11BoundingBoxESt6vectorIS4_SaIS4_EEEElS4_NS0_5__ops15_Iter_comp_iterIZN12PseudoPRTreeIiLi6EE9constructIS9_EEvRSt10shared_ptrI16PseudoPRTreeNodeIiLi6EEET_SK_iEUlRKS4_SM_E_EEEvSK_T0_SP_T1_T2_+0x145>
    a57d:	0f 1f 00             	nopl   (%rax)
    a580:	48 8d 04 b6          	lea    (%rsi,%rsi,4),%rax
    a584:	48 8d 14 c7          	lea    (%rdi,%rax,8),%rdx
    a588:	48 89 f0             	mov    %rsi,%rax
    a58b:	e9 66 fe ff ff       	jmpq   a3f6 <_ZSt13__adjust_heapIN9__gnu_cxx17__normal_iteratorIPSt4pairIi11BoundingBoxESt6vectorIS4_SaIS4_EEEElS4_NS0_5__ops15_Iter_comp_iterIZN12PseudoPRTreeIiLi6EE9constructIS9_EEvRSt10shared_ptrI16PseudoPRTreeNodeIiLi6EEET_SK_iEUlRKS4_SM_E_EEEvSK_T0_SP_T1_T2_+0x126>

000000000000a590 <_ZSt13__heap_selectIN9__gnu_cxx17__normal_iteratorIPSt4pairIi11BoundingBoxESt6vectorIS4_SaIS4_EEEENS0_5__ops15_Iter_comp_iterIZN12PseudoPRTreeIiLi6EE9constructIS9_EEvRSt10shared_ptrI16PseudoPRTreeNodeIiLi6EEET_SK_iEUlRKS4_SM_E_EEEvSK_SK_SK_T0_>:
    a590:	48 89 f0             	mov    %rsi,%rax
    a593:	41 57                	push   %r15
    a595:	41 56                	push   %r14
    a597:	49 89 cf             	mov    %rcx,%r15
    a59a:	48 29 f8             	sub    %rdi,%rax
    a59d:	41 55                	push   %r13
    a59f:	49 89 d5             	mov    %rdx,%r13
    a5a2:	41 54                	push   %r12
    a5a4:	49 89 c6             	mov    %rax,%r14
    a5a7:	55                   	push   %rbp
    a5a8:	48 ba cd cc cc cc cc 	movabs $0xcccccccccccccccd,%rdx
    a5af:	cc cc cc 
    a5b2:	53                   	push   %rbx
    a5b3:	49 c1 fe 03          	sar    $0x3,%r14
    a5b7:	48 83 ec 38          	sub    $0x38,%rsp
    a5bb:	48 89 fd             	mov    %rdi,%rbp
    a5be:	48 89 f3             	mov    %rsi,%rbx
    a5c1:	4c 0f af f2          	imul   %rdx,%r14
    a5c5:	48 83 f8 28          	cmp    $0x28,%rax
    a5c9:	7e 74                	jle    a63f <_ZSt13__heap_selectIN9__gnu_cxx17__normal_iteratorIPSt4pairIi11BoundingBoxESt6vectorIS4_SaIS4_EEEENS0_5__ops15_Iter_comp_iterIZN12PseudoPRTreeIiLi6EE9constructIS9_EEvRSt10shared_ptrI16PseudoPRTreeNodeIiLi6EEET_SK_iEUlRKS4_SM_E_EEEvSK_SK_SK_T0_+0xaf>
    a5cb:	49 8d 46 fe          	lea    -0x2(%r14),%rax
    a5cf:	49 89 c4             	mov    %rax,%r12
    a5d2:	49 c1 ec 3f          	shr    $0x3f,%r12
    a5d6:	49 01 c4             	add    %rax,%r12
    a5d9:	49 d1 fc             	sar    %r12
    a5dc:	eb 05                	jmp    a5e3 <_ZSt13__heap_selectIN9__gnu_cxx17__normal_iteratorIPSt4pairIi11BoundingBoxESt6vectorIS4_SaIS4_EEEENS0_5__ops15_Iter_comp_iterIZN12PseudoPRTreeIiLi6EE9constructIS9_EEvRSt10shared_ptrI16PseudoPRTreeNodeIiLi6EEET_SK_iEUlRKS4_SM_E_EEEvSK_SK_SK_T0_+0x53>
    a5de:	66 90                	xchg   %ax,%ax
    a5e0:	49 ff cc             	dec    %r12
    a5e3:	4b 8d 04 a4          	lea    (%r12,%r12,4),%rax
    a5e7:	48 83 ec 08          	sub    $0x8,%rsp
    a5eb:	4c 89 f9             	mov    %r15,%rcx
    a5ee:	4c 89 f2             	mov    %r14,%rdx
    a5f1:	48 c1 e0 03          	shl    $0x3,%rax
    a5f5:	4c 89 e6             	mov    %r12,%rsi
    a5f8:	48 89 ef             	mov    %rbp,%rdi
    a5fb:	c5 fa 6f 5c 05 00    	vmovdqu 0x0(%rbp,%rax,1),%xmm3
    a601:	c5 fa 6f 64 05 10    	vmovdqu 0x10(%rbp,%rax,1),%xmm4
    a607:	48 8b 44 05 20       	mov    0x20(%rbp,%rax,1),%rax
    a60c:	48 89 44 24 28       	mov    %rax,0x28(%rsp)
    a611:	c5 fa 7f 5c 24 08    	vmovdqu %xmm3,0x8(%rsp)
    a617:	c5 fa 7f 64 24 18    	vmovdqu %xmm4,0x18(%rsp)
    a61d:	ff 74 24 28          	pushq  0x28(%rsp)
    a621:	ff 74 24 28          	pushq  0x28(%rsp)
    a625:	ff 74 24 28          	pushq  0x28(%rsp)
    a629:	ff 74 24 28          	pushq  0x28(%rsp)
    a62d:	ff 74 24 28          	pushq  0x28(%rsp)
    a631:	e8 9a fc ff ff       	callq  a2d0 <_ZSt13__adjust_heapIN9__gnu_cxx17__normal_iteratorIPSt4pairIi11BoundingBoxESt6vectorIS4_SaIS4_EEEElS4_NS0_5__ops15_Iter_comp_iterIZN12PseudoPRTreeIiLi6EE9constructIS9_EEvRSt10shared_ptrI16PseudoPRTreeNodeIiLi6EEET_SK_iEUlRKS4_SM_E_EEEvSK_T0_SP_T1_T2_>
    a636:	48 83 c4 30          	add    $0x30,%rsp
    a63a:	4d 85 e4             	test   %r12,%r12
    a63d:	75 a1                	jne    a5e0 <_ZSt13__heap_selectIN9__gnu_cxx17__normal_iteratorIPSt4pairIi11BoundingBoxESt6vectorIS4_SaIS4_EEEENS0_5__ops15_Iter_comp_iterIZN12PseudoPRTreeIiLi6EE9constructIS9_EEvRSt10shared_ptrI16PseudoPRTreeNodeIiLi6EEET_SK_iEUlRKS4_SM_E_EEEvSK_SK_SK_T0_+0x50>
    a63f:	49 39 dd             	cmp    %rbx,%r13
    a642:	0f 86 df 00 00 00    	jbe    a727 <_ZSt13__heap_selectIN9__gnu_cxx17__normal_iteratorIPSt4pairIi11BoundingBoxESt6vectorIS4_SaIS4_EEEENS0_5__ops15_Iter_comp_iterIZN12PseudoPRTreeIiLi6EE9constructIS9_EEvRSt10shared_ptrI16PseudoPRTreeNodeIiLi6EEET_SK_iEUlRKS4_SM_E_EEEvSK_SK_SK_T0_+0x197>
    a648:	c5 fa 7e 15 90 5c 00 	vmovq  0x5c90(%rip),%xmm2        # 102e0 <_ZZNSt19_Sp_make_shared_tag5_S_tiEvE5__tag+0xe0>
    a64f:	00 
    a650:	eb 45                	jmp    a697 <_ZSt13__heap_selectIN9__gnu_cxx17__normal_iteratorIPSt4pairIi11BoundingBoxESt6vectorIS4_SaIS4_EEEENS0_5__ops15_Iter_comp_iterIZN12PseudoPRTreeIiLi6EE9constructIS9_EEvRSt10shared_ptrI16PseudoPRTreeNodeIiLi6EEET_SK_iEUlRKS4_SM_E_EEEvSK_SK_SK_T0_+0x107>
    a652:	66 66 2e 0f 1f 84 00 	data16 nopw %cs:0x0(%rax,%rax,1)
    a659:	00 00 00 00 
    a65d:	0f 1f 00             	nopl   (%rax)
    a660:	83 f8 01             	cmp    $0x1,%eax
    a663:	0f 84 e7 00 00 00    	je     a750 <_ZSt13__heap_selectIN9__gnu_cxx17__normal_iteratorIPSt4pairIi11BoundingBoxESt6vectorIS4_SaIS4_EEEENS0_5__ops15_Iter_comp_iterIZN12PseudoPRTreeIiLi6EE9constructIS9_EEvRSt10shared_ptrI16PseudoPRTreeNodeIiLi6EEET_SK_iEUlRKS4_SM_E_EEEvSK_SK_SK_T0_+0x1c0>
    a669:	83 f8 02             	cmp    $0x2,%eax
    a66c:	0f 84 ce 00 00 00    	je     a740 <_ZSt13__heap_selectIN9__gnu_cxx17__normal_iteratorIPSt4pairIi11BoundingBoxESt6vectorIS4_SaIS4_EEEENS0_5__ops15_Iter_comp_iterIZN12PseudoPRTreeIiLi6EE9constructIS9_EEvRSt10shared_ptrI16PseudoPRTreeNodeIiLi6EEET_SK_iEUlRKS4_SM_E_EEEvSK_SK_SK_T0_+0x1b0>
    a672:	c5 fb 10 43 20       	vmovsd 0x20(%rbx),%xmm0
    a677:	c5 fb 10 4d 20       	vmovsd 0x20(%rbp),%xmm1
    a67c:	c5 f9 57 c2          	vxorpd %xmm2,%xmm0,%xmm0
    a680:	c5 f1 57 ca          	vxorpd %xmm2,%xmm1,%xmm1
    a684:	c5 f9 2f c8          	vcomisd %xmm0,%xmm1
    a688:	77 24                	ja     a6ae <_ZSt13__heap_selectIN9__gnu_cxx17__normal_iteratorIPSt4pairIi11BoundingBoxESt6vectorIS4_SaIS4_EEEENS0_5__ops15_Iter_comp_iterIZN12PseudoPRTreeIiLi6EE9constructIS9_EEvRSt10shared_ptrI16PseudoPRTreeNodeIiLi6EEET_SK_iEUlRKS4_SM_E_EEEvSK_SK_SK_T0_+0x11e>
    a68a:	48 83 c3 28          	add    $0x28,%rbx
    a68e:	49 39 dd             	cmp    %rbx,%r13
    a691:	0f 86 90 00 00 00    	jbe    a727 <_ZSt13__heap_selectIN9__gnu_cxx17__normal_iteratorIPSt4pairIi11BoundingBoxESt6vectorIS4_SaIS4_EEEENS0_5__ops15_Iter_comp_iterIZN12PseudoPRTreeIiLi6EE9constructIS9_EEvRSt10shared_ptrI16PseudoPRTreeNodeIiLi6EEET_SK_iEUlRKS4_SM_E_EEEvSK_SK_SK_T0_+0x197>
    a697:	41 8b 07             	mov    (%r15),%eax
    a69a:	85 c0                	test   %eax,%eax
    a69c:	75 c2                	jne    a660 <_ZSt13__heap_selectIN9__gnu_cxx17__normal_iteratorIPSt4pairIi11BoundingBoxESt6vectorIS4_SaIS4_EEEENS0_5__ops15_Iter_comp_iterIZN12PseudoPRTreeIiLi6EE9constructIS9_EEvRSt10shared_ptrI16PseudoPRTreeNodeIiLi6EEET_SK_iEUlRKS4_SM_E_EEEvSK_SK_SK_T0_+0xd0>
    a69e:	c5 fb 10 43 08       	vmovsd 0x8(%rbx),%xmm0
    a6a3:	c5 fb 10 4d 08       	vmovsd 0x8(%rbp),%xmm1
    a6a8:	c5 f9 2f c8          	vcomisd %xmm0,%xmm1
    a6ac:	76 dc                	jbe    a68a <_ZSt13__heap_selectIN9__gnu_cxx17__normal_iteratorIPSt4pairIi11BoundingBoxESt6vectorIS4_SaIS4_EEEENS0_5__ops15_Iter_comp_iterIZN12PseudoPRTreeIiLi6EE9constructIS9_EEvRSt10shared_ptrI16PseudoPRTreeNodeIiLi6EEET_SK_iEUlRKS4_SM_E_EEEvSK_SK_SK_T0_+0xfa>
    a6ae:	c5 fa 6f 7d 08       	vmovdqu 0x8(%rbp),%xmm7
    a6b3:	c5 fa 6f 2b          	vmovdqu (%rbx),%xmm5
    a6b7:	48 83 ec 08          	sub    $0x8,%rsp
    a6bb:	4c 89 f9             	mov    %r15,%rcx
    a6be:	48 8b 43 20          	mov    0x20(%rbx),%rax
    a6c2:	c5 fa 6f 73 10       	vmovdqu 0x10(%rbx),%xmm6
    a6c7:	4c 89 f2             	mov    %r14,%rdx
    a6ca:	31 f6                	xor    %esi,%esi
    a6cc:	48 89 ef             	mov    %rbp,%rdi
    a6cf:	48 83 c3 28          	add    $0x28,%rbx
    a6d3:	48 89 44 24 28       	mov    %rax,0x28(%rsp)
    a6d8:	8b 45 00             	mov    0x0(%rbp),%eax
    a6db:	c5 fa 7f 6c 24 08    	vmovdqu %xmm5,0x8(%rsp)
    a6e1:	c5 fa 7f 7b e0       	vmovdqu %xmm7,-0x20(%rbx)
    a6e6:	c5 fa 6f 6d 18       	vmovdqu 0x18(%rbp),%xmm5
    a6eb:	c5 fa 7f 74 24 18    	vmovdqu %xmm6,0x18(%rsp)
    a6f1:	89 43 d8             	mov    %eax,-0x28(%rbx)
    a6f4:	c5 fa 7f 6b f0       	vmovdqu %xmm5,-0x10(%rbx)
    a6f9:	ff 74 24 28          	pushq  0x28(%rsp)
    a6fd:	ff 74 24 28          	pushq  0x28(%rsp)
    a701:	ff 74 24 28          	pushq  0x28(%rsp)
    a705:	ff 74 24 28          	pushq  0x28(%rsp)
    a709:	ff 74 24 28          	pushq  0x28(%rsp)
    a70d:	e8 be fb ff ff       	callq  a2d0 <_ZSt13__adjust_heapIN9__gnu_cxx17__normal_iteratorIPSt4pairIi11BoundingBoxESt6vectorIS4_SaIS4_EEEElS4_NS0_5__ops15_Iter_comp_iterIZN12PseudoPRTreeIiLi6EE9constructIS9_EEvRSt10shared_ptrI16PseudoPRTreeNodeIiLi6EEET_SK_iEUlRKS4_SM_E_EEEvSK_T0_SP_T1_T2_>
    a712:	c5 fa 7e 15 c6 5b 00 	vmovq  0x5bc6(%rip),%xmm2        # 102e0 <_ZZNSt19_Sp_make_shared_tag5_S_tiEvE5__tag+0xe0>
    a719:	00 
    a71a:	48 83 c4 30          	add    $0x30,%rsp
    a71e:	49 39 dd             	cmp    %rbx,%r13
    a721:	0f 87 70 ff ff ff    	ja     a697 <_ZSt13__heap_selectIN9__gnu_cxx17__normal_iteratorIPSt4pairIi11BoundingBoxESt6vectorIS4_SaIS4_EEEENS0_5__ops15_Iter_comp_iterIZN12PseudoPRTreeIiLi6EE9constructIS9_EEvRSt10shared_ptrI16PseudoPRTreeNodeIiLi6EEET_SK_iEUlRKS4_SM_E_EEEvSK_SK_SK_T0_+0x107>
    a727:	48 83 c4 38          	add    $0x38,%rsp
    a72b:	5b                   	pop    %rbx
    a72c:	5d                   	pop    %rbp
    a72d:	41 5c                	pop    %r12
    a72f:	41 5d                	pop    %r13
    a731:	41 5e                	pop    %r14
    a733:	41 5f                	pop    %r15
    a735:	c3                   	retq   
    a736:	66 2e 0f 1f 84 00 00 	nopw   %cs:0x0(%rax,%rax,1)
    a73d:	00 00 00 
    a740:	c5 fb 10 43 18       	vmovsd 0x18(%rbx),%xmm0
    a745:	c5 fb 10 4d 18       	vmovsd 0x18(%rbp),%xmm1
    a74a:	e9 35 ff ff ff       	jmpq   a684 <_ZSt13__heap_selectIN9__gnu_cxx17__normal_iteratorIPSt4pairIi11BoundingBoxESt6vectorIS4_SaIS4_EEEENS0_5__ops15_Iter_comp_iterIZN12PseudoPRTreeIiLi6EE9constructIS9_EEvRSt10shared_ptrI16PseudoPRTreeNodeIiLi6EEET_SK_iEUlRKS4_SM_E_EEEvSK_SK_SK_T0_+0xf4>
    a74f:	90                   	nop
    a750:	c5 fb 10 43 10       	vmovsd 0x10(%rbx),%xmm0
    a755:	c5 fb 10 4d 10       	vmovsd 0x10(%rbp),%xmm1
    a75a:	c5 f9 57 05 7e 5b 00 	vxorpd 0x5b7e(%rip),%xmm0,%xmm0        # 102e0 <_ZZNSt19_Sp_make_shared_tag5_S_tiEvE5__tag+0xe0>
    a761:	00 
    a762:	c5 f1 57 0d 76 5b 00 	vxorpd 0x5b76(%rip),%xmm1,%xmm1        # 102e0 <_ZZNSt19_Sp_make_shared_tag5_S_tiEvE5__tag+0xe0>
    a769:	00 
    a76a:	e9 15 ff ff ff       	jmpq   a684 <_ZSt13__heap_selectIN9__gnu_cxx17__normal_iteratorIPSt4pairIi11BoundingBoxESt6vectorIS4_SaIS4_EEEENS0_5__ops15_Iter_comp_iterIZN12PseudoPRTreeIiLi6EE9constructIS9_EEvRSt10shared_ptrI16PseudoPRTreeNodeIiLi6EEET_SK_iEUlRKS4_SM_E_EEEvSK_SK_SK_T0_+0xf4>
    a76f:	90                   	nop

000000000000a770 <_ZSt13__introselectIN9__gnu_cxx17__normal_iteratorIPSt4pairIi11BoundingBoxESt6vectorIS4_SaIS4_EEEElNS0_5__ops15_Iter_comp_iterIZN12PseudoPRTreeIiLi6EE9constructIS9_EEvRSt10shared_ptrI16PseudoPRTreeNodeIiLi6EEET_SK_iEUlRKS4_SM_E_EEEvSK_SK_SK_T0_T1_>:
    a770:	55                   	push   %rbp
    a771:	48 89 d0             	mov    %rdx,%rax
    a774:	48 89 e5             	mov    %rsp,%rbp
    a777:	41 57                	push   %r15
    a779:	41 56                	push   %r14
    a77b:	48 29 f8             	sub    %rdi,%rax
    a77e:	41 55                	push   %r13
    a780:	41 54                	push   %r12
    a782:	4d 89 c7             	mov    %r8,%r15
    a785:	49 89 fc             	mov    %rdi,%r12
    a788:	53                   	push   %rbx
    a789:	49 89 d5             	mov    %rdx,%r13
    a78c:	48 83 e4 e0          	and    $0xffffffffffffffe0,%rsp
    a790:	48 83 ec 20          	sub    $0x20,%rsp
    a794:	48 89 74 24 10       	mov    %rsi,0x10(%rsp)
    a799:	48 83 f8 78          	cmp    $0x78,%rax
    a79d:	0f 8e 19 02 00 00    	jle    a9bc <_ZSt13__introselectIN9__gnu_cxx17__normal_iteratorIPSt4pairIi11BoundingBoxESt6vectorIS4_SaIS4_EEEElNS0_5__ops15_Iter_comp_iterIZN12PseudoPRTreeIiLi6EE9constructIS9_EEvRSt10shared_ptrI16PseudoPRTreeNodeIiLi6EEET_SK_iEUlRKS4_SM_E_EEEvSK_SK_SK_T0_T1_+0x24c>
    a7a3:	49 89 ce             	mov    %rcx,%r14
    a7a6:	48 85 c9             	test   %rcx,%rcx
    a7a9:	0f 84 2c 02 00 00    	je     a9db <_ZSt13__introselectIN9__gnu_cxx17__normal_iteratorIPSt4pairIi11BoundingBoxESt6vectorIS4_SaIS4_EEEElNS0_5__ops15_Iter_comp_iterIZN12PseudoPRTreeIiLi6EE9constructIS9_EEvRSt10shared_ptrI16PseudoPRTreeNodeIiLi6EEET_SK_iEUlRKS4_SM_E_EEEvSK_SK_SK_T0_T1_+0x26b>
    a7af:	90                   	nop
    a7b0:	48 ba cd cc cc cc cc 	movabs $0xcccccccccccccccd,%rdx
    a7b7:	cc cc cc 
    a7ba:	48 c1 f8 03          	sar    $0x3,%rax
    a7be:	49 8d 5c 24 28       	lea    0x28(%r12),%rbx
    a7c3:	49 8d 4d d8          	lea    -0x28(%r13),%rcx
    a7c7:	48 0f af c2          	imul   %rdx,%rax
    a7cb:	48 89 de             	mov    %rbx,%rsi
    a7ce:	4d 89 f8             	mov    %r15,%r8
    a7d1:	4c 89 e7             	mov    %r12,%rdi
    a7d4:	49 ff ce             	dec    %r14
    a7d7:	48 d1 f8             	sar    %rax
    a7da:	48 8d 04 80          	lea    (%rax,%rax,4),%rax
    a7de:	49 8d 14 c4          	lea    (%r12,%rax,8),%rdx
    a7e2:	e8 b9 ed ff ff       	callq  95a0 <_ZSt22__move_median_to_firstIN9__gnu_cxx17__normal_iteratorIPSt4pairIi11BoundingBoxESt6vectorIS4_SaIS4_EEEENS0_5__ops15_Iter_comp_iterIZN12PseudoPRTreeIiLi6EE9constructIS9_EEvRSt10shared_ptrI16PseudoPRTreeNodeIiLi6EEET_SK_iEUlRKS4_SM_E_EEEvSK_SK_SK_SK_T0_>
    a7e7:	c5 fa 7e 25 f1 5a 00 	vmovq  0x5af1(%rip),%xmm4        # 102e0 <_ZZNSt19_Sp_make_shared_tag5_S_tiEvE5__tag+0xe0>
    a7ee:	00 
    a7ef:	48 89 d9             	mov    %rbx,%rcx
    a7f2:	4c 89 ea             	mov    %r13,%rdx
    a7f5:	41 8b 37             	mov    (%r15),%esi
    a7f8:	c5 f9 28 ec          	vmovapd %xmm4,%xmm5
    a7fc:	c5 f9 28 dc          	vmovapd %xmm4,%xmm3
    a800:	c5 f9 28 d4          	vmovapd %xmm4,%xmm2
    a804:	85 f6                	test   %esi,%esi
    a806:	0f 84 ef 00 00 00    	je     a8fb <_ZSt13__introselectIN9__gnu_cxx17__normal_iteratorIPSt4pairIi11BoundingBoxESt6vectorIS4_SaIS4_EEEElNS0_5__ops15_Iter_comp_iterIZN12PseudoPRTreeIiLi6EE9constructIS9_EEvRSt10shared_ptrI16PseudoPRTreeNodeIiLi6EEET_SK_iEUlRKS4_SM_E_EEEvSK_SK_SK_T0_T1_+0x18b>
    a80c:	0f 1f 40 00          	nopl   0x0(%rax)
    a810:	83 fe 01             	cmp    $0x1,%esi
    a813:	0f 84 87 01 00 00    	je     a9a0 <_ZSt13__introselectIN9__gnu_cxx17__normal_iteratorIPSt4pairIi11BoundingBoxESt6vectorIS4_SaIS4_EEEElNS0_5__ops15_Iter_comp_iterIZN12PseudoPRTreeIiLi6EE9constructIS9_EEvRSt10shared_ptrI16PseudoPRTreeNodeIiLi6EEET_SK_iEUlRKS4_SM_E_EEEvSK_SK_SK_T0_T1_+0x230>
    a819:	83 fe 02             	cmp    $0x2,%esi
    a81c:	0f 84 5e 01 00 00    	je     a980 <_ZSt13__introselectIN9__gnu_cxx17__normal_iteratorIPSt4pairIi11BoundingBoxESt6vectorIS4_SaIS4_EEEElNS0_5__ops15_Iter_comp_iterIZN12PseudoPRTreeIiLi6EE9constructIS9_EEvRSt10shared_ptrI16PseudoPRTreeNodeIiLi6EEET_SK_iEUlRKS4_SM_E_EEEvSK_SK_SK_T0_T1_+0x210>
    a822:	c5 fb 10 41 20       	vmovsd 0x20(%rcx),%xmm0
    a827:	c4 c1 7b 10 4c 24 20 	vmovsd 0x20(%r12),%xmm1
    a82e:	c5 f9 57 c4          	vxorpd %xmm4,%xmm0,%xmm0
    a832:	c5 f1 57 cc          	vxorpd %xmm4,%xmm1,%xmm1
    a836:	c5 f9 2f c8          	vcomisd %xmm0,%xmm1
    a83a:	0f 87 af 00 00 00    	ja     a8ef <_ZSt13__introselectIN9__gnu_cxx17__normal_iteratorIPSt4pairIi11BoundingBoxESt6vectorIS4_SaIS4_EEEElNS0_5__ops15_Iter_comp_iterIZN12PseudoPRTreeIiLi6EE9constructIS9_EEvRSt10shared_ptrI16PseudoPRTreeNodeIiLi6EEET_SK_iEUlRKS4_SM_E_EEEvSK_SK_SK_T0_T1_+0x17f>
    a840:	48 8d 42 d8          	lea    -0x28(%rdx),%rax
    a844:	eb 31                	jmp    a877 <_ZSt13__introselectIN9__gnu_cxx17__normal_iteratorIPSt4pairIi11BoundingBoxESt6vectorIS4_SaIS4_EEEElNS0_5__ops15_Iter_comp_iterIZN12PseudoPRTreeIiLi6EE9constructIS9_EEvRSt10shared_ptrI16PseudoPRTreeNodeIiLi6EEET_SK_iEUlRKS4_SM_E_EEEvSK_SK_SK_T0_T1_+0x107>
    a846:	66 2e 0f 1f 84 00 00 	nopw   %cs:0x0(%rax,%rax,1)
    a84d:	00 00 00 
    a850:	83 fe 02             	cmp    $0x2,%esi
    a853:	0f 84 07 01 00 00    	je     a960 <_ZSt13__introselectIN9__gnu_cxx17__normal_iteratorIPSt4pairIi11BoundingBoxESt6vectorIS4_SaIS4_EEEElNS0_5__ops15_Iter_comp_iterIZN12PseudoPRTreeIiLi6EE9constructIS9_EEvRSt10shared_ptrI16PseudoPRTreeNodeIiLi6EEET_SK_iEUlRKS4_SM_E_EEEvSK_SK_SK_T0_T1_+0x1f0>
    a859:	c4 c1 7b 10 44 24 20 	vmovsd 0x20(%r12),%xmm0
    a860:	c5 fb 10 48 20       	vmovsd 0x20(%rax),%xmm1
    a865:	c5 f9 57 c2          	vxorpd %xmm2,%xmm0,%xmm0
    a869:	c5 f1 57 ca          	vxorpd %xmm2,%xmm1,%xmm1
    a86d:	48 83 e8 28          	sub    $0x28,%rax
    a871:	c5 f9 2f c8          	vcomisd %xmm0,%xmm1
    a875:	76 29                	jbe    a8a0 <_ZSt13__introselectIN9__gnu_cxx17__normal_iteratorIPSt4pairIi11BoundingBoxESt6vectorIS4_SaIS4_EEEElNS0_5__ops15_Iter_comp_iterIZN12PseudoPRTreeIiLi6EE9constructIS9_EEvRSt10shared_ptrI16PseudoPRTreeNodeIiLi6EEET_SK_iEUlRKS4_SM_E_EEEvSK_SK_SK_T0_T1_+0x130>
    a877:	48 89 c2             	mov    %rax,%rdx
    a87a:	83 fe 01             	cmp    $0x1,%esi
    a87d:	75 d1                	jne    a850 <_ZSt13__introselectIN9__gnu_cxx17__normal_iteratorIPSt4pairIi11BoundingBoxESt6vectorIS4_SaIS4_EEEElNS0_5__ops15_Iter_comp_iterIZN12PseudoPRTreeIiLi6EE9constructIS9_EEvRSt10shared_ptrI16PseudoPRTreeNodeIiLi6EEET_SK_iEUlRKS4_SM_E_EEEvSK_SK_SK_T0_T1_+0xe0>
    a87f:	c5 fb 10 48 10       	vmovsd 0x10(%rax),%xmm1
    a884:	c4 c1 7b 10 44 24 10 	vmovsd 0x10(%r12),%xmm0
    a88b:	48 83 e8 28          	sub    $0x28,%rax
    a88f:	c5 f9 57 c3          	vxorpd %xmm3,%xmm0,%xmm0
    a893:	c5 f1 57 cb          	vxorpd %xmm3,%xmm1,%xmm1
    a897:	c5 f9 2f c8          	vcomisd %xmm0,%xmm1
    a89b:	77 da                	ja     a877 <_ZSt13__introselectIN9__gnu_cxx17__normal_iteratorIPSt4pairIi11BoundingBoxESt6vectorIS4_SaIS4_EEEElNS0_5__ops15_Iter_comp_iterIZN12PseudoPRTreeIiLi6EE9constructIS9_EEvRSt10shared_ptrI16PseudoPRTreeNodeIiLi6EEET_SK_iEUlRKS4_SM_E_EEEvSK_SK_SK_T0_T1_+0x107>
    a89d:	0f 1f 00             	nopl   (%rax)
    a8a0:	48 39 d1             	cmp    %rdx,%rcx
    a8a3:	0f 83 8b 00 00 00    	jae    a934 <_ZSt13__introselectIN9__gnu_cxx17__normal_iteratorIPSt4pairIi11BoundingBoxESt6vectorIS4_SaIS4_EEEElNS0_5__ops15_Iter_comp_iterIZN12PseudoPRTreeIiLi6EE9constructIS9_EEvRSt10shared_ptrI16PseudoPRTreeNodeIiLi6EEET_SK_iEUlRKS4_SM_E_EEEvSK_SK_SK_T0_T1_+0x1c4>
    a8a9:	c5 7a 6f 42 08       	vmovdqu 0x8(%rdx),%xmm8
    a8ae:	8b 32                	mov    (%rdx),%esi
    a8b0:	8b 01                	mov    (%rcx),%eax
    a8b2:	c5 fb 10 41 08       	vmovsd 0x8(%rcx),%xmm0
    a8b7:	c5 fb 10 71 10       	vmovsd 0x10(%rcx),%xmm6
    a8bc:	c5 fb 10 49 18       	vmovsd 0x18(%rcx),%xmm1
    a8c1:	c5 fb 10 79 20       	vmovsd 0x20(%rcx),%xmm7
    a8c6:	89 31                	mov    %esi,(%rcx)
    a8c8:	89 02                	mov    %eax,(%rdx)
    a8ca:	41 8b 37             	mov    (%r15),%esi
    a8cd:	c5 7a 7f 41 08       	vmovdqu %xmm8,0x8(%rcx)
    a8d2:	c5 7a 6f 4a 18       	vmovdqu 0x18(%rdx),%xmm9
    a8d7:	c5 f9 14 c6          	vunpcklpd %xmm6,%xmm0,%xmm0
    a8db:	c5 f1 14 cf          	vunpcklpd %xmm7,%xmm1,%xmm1
    a8df:	c4 e3 7d 18 c1 01    	vinsertf128 $0x1,%xmm1,%ymm0,%ymm0
    a8e5:	c5 7a 7f 49 18       	vmovdqu %xmm9,0x18(%rcx)
    a8ea:	c5 fd 11 42 08       	vmovupd %ymm0,0x8(%rdx)
    a8ef:	48 83 c1 28          	add    $0x28,%rcx
    a8f3:	85 f6                	test   %esi,%esi
    a8f5:	0f 85 15 ff ff ff    	jne    a810 <_ZSt13__introselectIN9__gnu_cxx17__normal_iteratorIPSt4pairIi11BoundingBoxESt6vectorIS4_SaIS4_EEEElNS0_5__ops15_Iter_comp_iterIZN12PseudoPRTreeIiLi6EE9constructIS9_EEvRSt10shared_ptrI16PseudoPRTreeNodeIiLi6EEET_SK_iEUlRKS4_SM_E_EEEvSK_SK_SK_T0_T1_+0xa0>
    a8fb:	c4 c1 7b 10 44 24 08 	vmovsd 0x8(%r12),%xmm0
    a902:	c5 f9 2f 41 08       	vcomisd 0x8(%rcx),%xmm0
    a907:	77 e6                	ja     a8ef <_ZSt13__introselectIN9__gnu_cxx17__normal_iteratorIPSt4pairIi11BoundingBoxESt6vectorIS4_SaIS4_EEEElNS0_5__ops15_Iter_comp_iterIZN12PseudoPRTreeIiLi6EE9constructIS9_EEvRSt10shared_ptrI16PseudoPRTreeNodeIiLi6EEET_SK_iEUlRKS4_SM_E_EEEvSK_SK_SK_T0_T1_+0x17f>
    a909:	c5 f9 2f 42 e0       	vcomisd -0x20(%rdx),%xmm0
    a90e:	48 8d 42 d8          	lea    -0x28(%rdx),%rax
    a912:	48 89 c2             	mov    %rax,%rdx
    a915:	73 89                	jae    a8a0 <_ZSt13__introselectIN9__gnu_cxx17__normal_iteratorIPSt4pairIi11BoundingBoxESt6vectorIS4_SaIS4_EEEElNS0_5__ops15_Iter_comp_iterIZN12PseudoPRTreeIiLi6EE9constructIS9_EEvRSt10shared_ptrI16PseudoPRTreeNodeIiLi6EEET_SK_iEUlRKS4_SM_E_EEEvSK_SK_SK_T0_T1_+0x130>
    a917:	66 0f 1f 84 00 00 00 	nopw   0x0(%rax,%rax,1)
    a91e:	00 00 
    a920:	48 83 ea 28          	sub    $0x28,%rdx
    a924:	c5 f9 2f 42 08       	vcomisd 0x8(%rdx),%xmm0
    a929:	72 f5                	jb     a920 <_ZSt13__introselectIN9__gnu_cxx17__normal_iteratorIPSt4pairIi11BoundingBoxESt6vectorIS4_SaIS4_EEEElNS0_5__ops15_Iter_comp_iterIZN12PseudoPRTreeIiLi6EE9constructIS9_EEvRSt10shared_ptrI16PseudoPRTreeNodeIiLi6EEET_SK_iEUlRKS4_SM_E_EEEvSK_SK_SK_T0_T1_+0x1b0>
    a92b:	48 39 d1             	cmp    %rdx,%rcx
    a92e:	0f 82 75 ff ff ff    	jb     a8a9 <_ZSt13__introselectIN9__gnu_cxx17__normal_iteratorIPSt4pairIi11BoundingBoxESt6vectorIS4_SaIS4_EEEElNS0_5__ops15_Iter_comp_iterIZN12PseudoPRTreeIiLi6EE9constructIS9_EEvRSt10shared_ptrI16PseudoPRTreeNodeIiLi6EEET_SK_iEUlRKS4_SM_E_EEEvSK_SK_SK_T0_T1_+0x139>
    a934:	48 39 4c 24 10       	cmp    %rcx,0x10(%rsp)
    a939:	4c 0f 42 e9          	cmovb  %rcx,%r13
    a93d:	4c 0f 43 e1          	cmovae %rcx,%r12
    a941:	4c 89 e8             	mov    %r13,%rax
    a944:	4c 29 e0             	sub    %r12,%rax
    a947:	48 83 f8 78          	cmp    $0x78,%rax
    a94b:	7e 6c                	jle    a9b9 <_ZSt13__introselectIN9__gnu_cxx17__normal_iteratorIPSt4pairIi11BoundingBoxESt6vectorIS4_SaIS4_EEEElNS0_5__ops15_Iter_comp_iterIZN12PseudoPRTreeIiLi6EE9constructIS9_EEvRSt10shared_ptrI16PseudoPRTreeNodeIiLi6EEET_SK_iEUlRKS4_SM_E_EEEvSK_SK_SK_T0_T1_+0x249>
    a94d:	4d 85 f6             	test   %r14,%r14
    a950:	0f 84 82 00 00 00    	je     a9d8 <_ZSt13__introselectIN9__gnu_cxx17__normal_iteratorIPSt4pairIi11BoundingBoxESt6vectorIS4_SaIS4_EEEElNS0_5__ops15_Iter_comp_iterIZN12PseudoPRTreeIiLi6EE9constructIS9_EEvRSt10shared_ptrI16PseudoPRTreeNodeIiLi6EEET_SK_iEUlRKS4_SM_E_EEEvSK_SK_SK_T0_T1_+0x268>
    a956:	c5 f8 77             	vzeroupper 
    a959:	e9 52 fe ff ff       	jmpq   a7b0 <_ZSt13__introselectIN9__gnu_cxx17__normal_iteratorIPSt4pairIi11BoundingBoxESt6vectorIS4_SaIS4_EEEElNS0_5__ops15_Iter_comp_iterIZN12PseudoPRTreeIiLi6EE9constructIS9_EEvRSt10shared_ptrI16PseudoPRTreeNodeIiLi6EEET_SK_iEUlRKS4_SM_E_EEEvSK_SK_SK_T0_T1_+0x40>
    a95e:	66 90                	xchg   %ax,%ax
    a960:	c4 c1 7b 10 44 24 18 	vmovsd 0x18(%r12),%xmm0
    a967:	c5 fb 10 48 18       	vmovsd 0x18(%rax),%xmm1
    a96c:	e9 fc fe ff ff       	jmpq   a86d <_ZSt13__introselectIN9__gnu_cxx17__normal_iteratorIPSt4pairIi11BoundingBoxESt6vectorIS4_SaIS4_EEEElNS0_5__ops15_Iter_comp_iterIZN12PseudoPRTreeIiLi6EE9constructIS9_EEvRSt10shared_ptrI16PseudoPRTreeNodeIiLi6EEET_SK_iEUlRKS4_SM_E_EEEvSK_SK_SK_T0_T1_+0xfd>
    a971:	66 66 2e 0f 1f 84 00 	data16 nopw %cs:0x0(%rax,%rax,1)
    a978:	00 00 00 00 
    a97c:	0f 1f 40 00          	nopl   0x0(%rax)
    a980:	c5 fb 10 41 18       	vmovsd 0x18(%rcx),%xmm0
    a985:	c4 c1 7b 10 4c 24 18 	vmovsd 0x18(%r12),%xmm1
    a98c:	e9 a5 fe ff ff       	jmpq   a836 <_ZSt13__introselectIN9__gnu_cxx17__normal_iteratorIPSt4pairIi11BoundingBoxESt6vectorIS4_SaIS4_EEEElNS0_5__ops15_Iter_comp_iterIZN12PseudoPRTreeIiLi6EE9constructIS9_EEvRSt10shared_ptrI16PseudoPRTreeNodeIiLi6EEET_SK_iEUlRKS4_SM_E_EEEvSK_SK_SK_T0_T1_+0xc6>
    a991:	66 66 2e 0f 1f 84 00 	data16 nopw %cs:0x0(%rax,%rax,1)
    a998:	00 00 00 00 
    a99c:	0f 1f 40 00          	nopl   0x0(%rax)
    a9a0:	c5 fb 10 41 10       	vmovsd 0x10(%rcx),%xmm0
    a9a5:	c4 c1 7b 10 4c 24 10 	vmovsd 0x10(%r12),%xmm1
    a9ac:	c5 f9 57 c5          	vxorpd %xmm5,%xmm0,%xmm0
    a9b0:	c5 f1 57 cd          	vxorpd %xmm5,%xmm1,%xmm1
    a9b4:	e9 7d fe ff ff       	jmpq   a836 <_ZSt13__introselectIN9__gnu_cxx17__normal_iteratorIPSt4pairIi11BoundingBoxESt6vectorIS4_SaIS4_EEEElNS0_5__ops15_Iter_comp_iterIZN12PseudoPRTreeIiLi6EE9constructIS9_EEvRSt10shared_ptrI16PseudoPRTreeNodeIiLi6EEET_SK_iEUlRKS4_SM_E_EEEvSK_SK_SK_T0_T1_+0xc6>
    a9b9:	c5 f8 77             	vzeroupper 
    a9bc:	48 8d 65 d8          	lea    -0x28(%rbp),%rsp
    a9c0:	4c 89 fa             	mov    %r15,%rdx
    a9c3:	4c 89 ee             	mov    %r13,%rsi
    a9c6:	4c 89 e7             	mov    %r12,%rdi
    a9c9:	5b                   	pop    %rbx
    a9ca:	41 5c                	pop    %r12
    a9cc:	41 5d                	pop    %r13
    a9ce:	41 5e                	pop    %r14
    a9d0:	41 5f                	pop    %r15
    a9d2:	5d                   	pop    %rbp
    a9d3:	e9 f8 e6 ff ff       	jmpq   90d0 <_ZSt16__insertion_sortIN9__gnu_cxx17__normal_iteratorIPSt4pairIi11BoundingBoxESt6vectorIS4_SaIS4_EEEENS0_5__ops15_Iter_comp_iterIZN12PseudoPRTreeIiLi6EE9constructIS9_EEvRSt10shared_ptrI16PseudoPRTreeNodeIiLi6EEET_SK_iEUlRKS4_SM_E_EEEvSK_SK_T0_>
    a9d8:	c5 f8 77             	vzeroupper 
    a9db:	48 8b 5c 24 10       	mov    0x10(%rsp),%rbx
    a9e0:	4c 89 ea             	mov    %r13,%rdx
    a9e3:	4c 89 f9             	mov    %r15,%rcx
    a9e6:	4c 89 e7             	mov    %r12,%rdi
    a9e9:	48 8d 73 28          	lea    0x28(%rbx),%rsi
    a9ed:	e8 9e fb ff ff       	callq  a590 <_ZSt13__heap_selectIN9__gnu_cxx17__normal_iteratorIPSt4pairIi11BoundingBoxESt6vectorIS4_SaIS4_EEEENS0_5__ops15_Iter_comp_iterIZN12PseudoPRTreeIiLi6EE9constructIS9_EEvRSt10shared_ptrI16PseudoPRTreeNodeIiLi6EEET_SK_iEUlRKS4_SM_E_EEEvSK_SK_SK_T0_>
    a9f2:	c5 fa 6f 6b 08       	vmovdqu 0x8(%rbx),%xmm5
    a9f7:	8b 13                	mov    (%rbx),%edx
    a9f9:	41 8b 04 24          	mov    (%r12),%eax
    a9fd:	c4 c1 7b 10 44 24 08 	vmovsd 0x8(%r12),%xmm0
    aa04:	c4 c1 7b 10 54 24 10 	vmovsd 0x10(%r12),%xmm2
    aa0b:	c4 c1 7b 10 4c 24 18 	vmovsd 0x18(%r12),%xmm1
    aa12:	c4 c1 7b 10 5c 24 20 	vmovsd 0x20(%r12),%xmm3
    aa19:	41 89 14 24          	mov    %edx,(%r12)
    aa1d:	89 03                	mov    %eax,(%rbx)
    aa1f:	c4 c1 7a 7f 6c 24 08 	vmovdqu %xmm5,0x8(%r12)
    aa26:	c5 fa 6f 6b 18       	vmovdqu 0x18(%rbx),%xmm5
    aa2b:	c5 f9 14 c2          	vunpcklpd %xmm2,%xmm0,%xmm0
    aa2f:	c5 f1 14 cb          	vunpcklpd %xmm3,%xmm1,%xmm1
    aa33:	c4 e3 7d 18 c1 01    	vinsertf128 $0x1,%xmm1,%ymm0,%ymm0
    aa39:	c4 c1 7a 7f 6c 24 18 	vmovdqu %xmm5,0x18(%r12)
    aa40:	c5 f9 7f 6c 24 10    	vmovdqa %xmm5,0x10(%rsp)
    aa46:	c5 fd 11 43 08       	vmovupd %ymm0,0x8(%rbx)
    aa4b:	c5 f8 77             	vzeroupper 
    aa4e:	48 8d 65 d8          	lea    -0x28(%rbp),%rsp
    aa52:	5b                   	pop    %rbx
    aa53:	41 5c                	pop    %r12
    aa55:	41 5d                	pop    %r13
    aa57:	41 5e                	pop    %r14
    aa59:	41 5f                	pop    %r15
    aa5b:	5d                   	pop    %rbp
    aa5c:	c3                   	retq   
    aa5d:	0f 1f 00             	nopl   (%rax)

000000000000aa60 <_ZNSt5arrayI4LeafIiLi6EELm4EED1Ev>:
    aa60:	55                   	push   %rbp
    aa61:	53                   	push   %rbx
    aa62:	48 8d 9f c0 00 00 00 	lea    0xc0(%rdi),%rbx
    aa69:	48 89 fd             	mov    %rdi,%rbp
    aa6c:	48 83 ec 08          	sub    $0x8,%rsp
    aa70:	48 8b 7b 28          	mov    0x28(%rbx),%rdi
    aa74:	48 85 ff             	test   %rdi,%rdi
    aa77:	74 21                	je     aa9a <_ZNSt5arrayI4LeafIiLi6EELm4EED1Ev+0x3a>
    aa79:	48 8b 73 38          	mov    0x38(%rbx),%rsi
    aa7d:	48 29 fe             	sub    %rdi,%rsi
    aa80:	e8 8b 76 ff ff       	callq  2110 <_ZdlPvm@plt>
    aa85:	48 8d 43 c0          	lea    -0x40(%rbx),%rax
    aa89:	48 39 eb             	cmp    %rbp,%rbx
    aa8c:	74 15                	je     aaa3 <_ZNSt5arrayI4LeafIiLi6EELm4EED1Ev+0x43>
    aa8e:	48 89 c3             	mov    %rax,%rbx
    aa91:	48 8b 7b 28          	mov    0x28(%rbx),%rdi
    aa95:	48 85 ff             	test   %rdi,%rdi
    aa98:	75 df                	jne    aa79 <_ZNSt5arrayI4LeafIiLi6EELm4EED1Ev+0x19>
    aa9a:	48 8d 43 c0          	lea    -0x40(%rbx),%rax
    aa9e:	48 39 eb             	cmp    %rbp,%rbx
    aaa1:	75 eb                	jne    aa8e <_ZNSt5arrayI4LeafIiLi6EELm4EED1Ev+0x2e>
    aaa3:	48 83 c4 08          	add    $0x8,%rsp
    aaa7:	5b                   	pop    %rbx
    aaa8:	5d                   	pop    %rbp
    aaa9:	c3                   	retq   
    aaaa:	66 0f 1f 44 00 00    	nopw   0x0(%rax,%rax,1)

000000000000aab0 <_ZNSt14__shared_countILN9__gnu_cxx12_Lock_policyE2EEC1I16PseudoPRTreeNodeIiLi6EESaIS5_EJEEERPT_St20_Sp_alloc_shared_tagIT0_EDpOT1_>:
    aab0:	55                   	push   %rbp
    aab1:	48 89 e5             	mov    %rsp,%rbp
    aab4:	41 57                	push   %r15
    aab6:	41 56                	push   %r14
    aab8:	49 89 fe             	mov    %rdi,%r14
    aabb:	41 55                	push   %r13
    aabd:	41 54                	push   %r12
    aabf:	bf 30 01 00 00       	mov    $0x130,%edi
    aac4:	45 31 ed             	xor    %r13d,%r13d
    aac7:	53                   	push   %rbx
    aac8:	48 83 ec 18          	sub    $0x18,%rsp
    aacc:	48 89 74 24 08       	mov    %rsi,0x8(%rsp)
    aad1:	e8 2a 76 ff ff       	callq  2100 <_Znwm@plt>
    aad6:	c5 f9 ef c0          	vpxor  %xmm0,%xmm0,%xmm0
    aada:	49 89 c4             	mov    %rax,%r12
    aadd:	48 8b 05 0c 58 00 00 	mov    0x580c(%rip),%rax        # 102f0 <_ZZNSt19_Sp_make_shared_tag5_S_tiEvE5__tag+0xf0>
    aae4:	4d 8d 7c 24 10       	lea    0x10(%r12),%r15
    aae9:	c4 c1 7a 7f 44 24 38 	vmovdqu %xmm0,0x38(%r12)
    aaf0:	c4 c1 7a 7f 44 24 78 	vmovdqu %xmm0,0x78(%r12)
    aaf7:	c4 c1 7a 7f 84 24 b8 	vmovdqu %xmm0,0xb8(%r12)
    aafe:	00 00 00 
    ab01:	c4 c1 7a 7f 84 24 f8 	vmovdqu %xmm0,0xf8(%r12)
    ab08:	00 00 00 
    ab0b:	4c 89 fb             	mov    %r15,%rbx
    ab0e:	c5 f9 ef c0          	vpxor  %xmm0,%xmm0,%xmm0
    ab12:	41 c7 44 24 10 00 00 	movl   $0x0,0x10(%r12)
    ab19:	00 00 
    ab1b:	49 c7 44 24 48 00 00 	movq   $0x0,0x48(%r12)
    ab22:	00 00 
    ab24:	41 c7 44 24 50 00 00 	movl   $0x0,0x50(%r12)
    ab2b:	00 00 
    ab2d:	49 c7 84 24 88 00 00 	movq   $0x0,0x88(%r12)
    ab34:	00 00 00 00 00 
    ab39:	49 89 44 24 08       	mov    %rax,0x8(%r12)
    ab3e:	48 8d 05 8b 80 00 00 	lea    0x808b(%rip),%rax        # 12bd0 <_ZTVSt23_Sp_counted_ptr_inplaceI16PseudoPRTreeNodeIiLi6EESaIS1_ELN9__gnu_cxx12_Lock_policyE2EE+0x10>
    ab45:	41 c7 84 24 90 00 00 	movl   $0x0,0x90(%r12)
    ab4c:	00 00 00 00 00 
    ab51:	49 c7 84 24 c8 00 00 	movq   $0x0,0xc8(%r12)
    ab58:	00 00 00 00 00 
    ab5d:	49 89 04 24          	mov    %rax,(%r12)
    ab61:	41 c7 84 24 d0 00 00 	movl   $0x0,0xd0(%r12)
    ab68:	00 00 00 00 00 
    ab6d:	49 c7 84 24 08 01 00 	movq   $0x0,0x108(%r12)
    ab74:	00 00 00 00 00 
    ab79:	c4 c1 7e 7f 84 24 10 	vmovdqu %ymm0,0x110(%r12)
    ab80:	01 00 00 
    ab83:	c5 f8 77             	vzeroupper 
    ab86:	bf f0 00 00 00       	mov    $0xf0,%edi
    ab8b:	e8 70 75 ff ff       	callq  2100 <_Znwm@plt>
    ab90:	48 8b 7b 28          	mov    0x28(%rbx),%rdi
    ab94:	c4 e1 f9 6e d0       	vmovq  %rax,%xmm2
    ab99:	c5 f1 57 c9          	vxorpd %xmm1,%xmm1,%xmm1
    ab9d:	48 05 f0 00 00 00    	add    $0xf0,%rax
    aba3:	c5 e9 6c c2          	vpunpcklqdq %xmm2,%xmm2,%xmm0
    aba7:	48 8b 73 38          	mov    0x38(%rbx),%rsi
    abab:	44 89 2b             	mov    %r13d,(%rbx)
    abae:	c5 fd 11 4b 08       	vmovupd %ymm1,0x8(%rbx)
    abb3:	c5 fa 7f 43 28       	vmovdqu %xmm0,0x28(%rbx)
    abb8:	48 89 43 38          	mov    %rax,0x38(%rbx)
    abbc:	48 85 ff             	test   %rdi,%rdi
    abbf:	74 3f                	je     ac00 <_ZNSt14__shared_countILN9__gnu_cxx12_Lock_policyE2EEC1I16PseudoPRTreeNodeIiLi6EESaIS5_EJEEERPT_St20_Sp_alloc_shared_tagIT0_EDpOT1_+0x150>
    abc1:	48 29 fe             	sub    %rdi,%rsi
    abc4:	c5 f8 77             	vzeroupper 
    abc7:	41 ff c5             	inc    %r13d
    abca:	e8 41 75 ff ff       	callq  2110 <_ZdlPvm@plt>
    abcf:	48 83 c3 40          	add    $0x40,%rbx
    abd3:	41 83 fd 04          	cmp    $0x4,%r13d
    abd7:	75 ad                	jne    ab86 <_ZNSt14__shared_countILN9__gnu_cxx12_Lock_policyE2EEC1I16PseudoPRTreeNodeIiLi6EESaIS5_EJEEERPT_St20_Sp_alloc_shared_tagIT0_EDpOT1_+0xd6>
    abd9:	48 8b 44 24 08       	mov    0x8(%rsp),%rax
    abde:	4d 89 26             	mov    %r12,(%r14)
    abe1:	4c 89 38             	mov    %r15,(%rax)
    abe4:	48 83 c4 18          	add    $0x18,%rsp
    abe8:	5b                   	pop    %rbx
    abe9:	41 5c                	pop    %r12
    abeb:	41 5d                	pop    %r13
    abed:	41 5e                	pop    %r14
    abef:	41 5f                	pop    %r15
    abf1:	5d                   	pop    %rbp
    abf2:	c3                   	retq   
    abf3:	66 66 2e 0f 1f 84 00 	data16 nopw %cs:0x0(%rax,%rax,1)
    abfa:	00 00 00 00 
    abfe:	66 90                	xchg   %ax,%ax
    ac00:	41 ff c5             	inc    %r13d
    ac03:	48 83 c3 40          	add    $0x40,%rbx
    ac07:	41 83 fd 04          	cmp    $0x4,%r13d
    ac0b:	74 13                	je     ac20 <_ZNSt14__shared_countILN9__gnu_cxx12_Lock_policyE2EEC1I16PseudoPRTreeNodeIiLi6EESaIS5_EJEEERPT_St20_Sp_alloc_shared_tagIT0_EDpOT1_+0x170>
    ac0d:	c5 f8 77             	vzeroupper 
    ac10:	e9 71 ff ff ff       	jmpq   ab86 <_ZNSt14__shared_countILN9__gnu_cxx12_Lock_policyE2EEC1I16PseudoPRTreeNodeIiLi6EESaIS5_EJEEERPT_St20_Sp_alloc_shared_tagIT0_EDpOT1_+0xd6>
    ac15:	66 66 2e 0f 1f 84 00 	data16 nopw %cs:0x0(%rax,%rax,1)
    ac1c:	00 00 00 00 
    ac20:	c5 f8 77             	vzeroupper 
    ac23:	eb b4                	jmp    abd9 <_ZNSt14__shared_countILN9__gnu_cxx12_Lock_policyE2EEC1I16PseudoPRTreeNodeIiLi6EESaIS5_EJEEERPT_St20_Sp_alloc_shared_tagIT0_EDpOT1_+0x129>
    ac25:	49 89 c5             	mov    %rax,%r13
    ac28:	49 8b bc 24 28 01 00 	mov    0x128(%r12),%rdi
    ac2f:	00 
    ac30:	48 85 ff             	test   %rdi,%rdi
    ac33:	74 37                	je     ac6c <_ZNSt14__shared_countILN9__gnu_cxx12_Lock_policyE2EEC1I16PseudoPRTreeNodeIiLi6EESaIS5_EJEEERPT_St20_Sp_alloc_shared_tagIT0_EDpOT1_+0x1bc>
    ac35:	c5 f8 77             	vzeroupper 
    ac38:	e8 23 ac ff ff       	callq  5860 <_ZNSt16_Sp_counted_baseILN9__gnu_cxx12_Lock_policyE2EE10_M_releaseEv>
    ac3d:	49 8b bc 24 18 01 00 	mov    0x118(%r12),%rdi
    ac44:	00 
    ac45:	48 85 ff             	test   %rdi,%rdi
    ac48:	74 05                	je     ac4f <_ZNSt14__shared_countILN9__gnu_cxx12_Lock_policyE2EEC1I16PseudoPRTreeNodeIiLi6EESaIS5_EJEEERPT_St20_Sp_alloc_shared_tagIT0_EDpOT1_+0x19f>
    ac4a:	e8 11 ac ff ff       	callq  5860 <_ZNSt16_Sp_counted_baseILN9__gnu_cxx12_Lock_policyE2EE10_M_releaseEv>
    ac4f:	4c 89 ff             	mov    %r15,%rdi
    ac52:	e8 09 fe ff ff       	callq  aa60 <_ZNSt5arrayI4LeafIiLi6EELm4EED1Ev>
    ac57:	4c 89 e7             	mov    %r12,%rdi
    ac5a:	be 30 01 00 00       	mov    $0x130,%esi
    ac5f:	e8 ac 74 ff ff       	callq  2110 <_ZdlPvm@plt>
    ac64:	4c 89 ef             	mov    %r13,%rdi
    ac67:	e8 84 75 ff ff       	callq  21f0 <_Unwind_Resume@plt>
    ac6c:	c5 f8 77             	vzeroupper 
    ac6f:	eb cc                	jmp    ac3d <_ZNSt14__shared_countILN9__gnu_cxx12_Lock_policyE2EEC1I16PseudoPRTreeNodeIiLi6EESaIS5_EJEEERPT_St20_Sp_alloc_shared_tagIT0_EDpOT1_+0x18d>
    ac71:	66 2e 0f 1f 84 00 00 	nopw   %cs:0x0(%rax,%rax,1)
    ac78:	00 00 00 
    ac7b:	0f 1f 44 00 00       	nopl   0x0(%rax,%rax,1)

000000000000ac80 <_ZN12PseudoPRTreeIiLi6EE9constructIN9__gnu_cxx17__normal_iteratorIPSt4pairIi11BoundingBoxESt6vectorIS6_SaIS6_EEEEEEvRSt10shared_ptrI16PseudoPRTreeNodeIiLi6EEET_SH_i.isra.0>:
    ac80:	55                   	push   %rbp
    ac81:	48 89 e5             	mov    %rsp,%rbp
    ac84:	41 57                	push   %r15
    ac86:	41 56                	push   %r14
    ac88:	41 55                	push   %r13
    ac8a:	41 54                	push   %r12
    ac8c:	49 89 f4             	mov    %rsi,%r12
    ac8f:	53                   	push   %rbx
    ac90:	48 83 e4 e0          	and    $0xffffffffffffffe0,%rsp
    ac94:	48 83 ec 60          	sub    $0x60,%rsp
    ac98:	48 89 7c 24 08       	mov    %rdi,0x8(%rsp)
    ac9d:	48 89 54 24 28       	mov    %rdx,0x28(%rsp)
    aca2:	89 4c 24 04          	mov    %ecx,0x4(%rsp)
    aca6:	64 48 8b 04 25 28 00 	mov    %fs:0x28,%rax
    acad:	00 00 
    acaf:	48 89 44 24 58       	mov    %rax,0x58(%rsp)
    acb4:	48 89 d0             	mov    %rdx,%rax
    acb7:	48 29 f0             	sub    %rsi,%rax
    acba:	48 85 c0             	test   %rax,%rax
    acbd:	0f 8e 5d 05 00 00    	jle    b220 <_ZN12PseudoPRTreeIiLi6EE9constructIN9__gnu_cxx17__normal_iteratorIPSt4pairIi11BoundingBoxESt6vectorIS6_SaIS6_EEEEEEvRSt10shared_ptrI16PseudoPRTreeNodeIiLi6EEET_SH_i.isra.0+0x5a0>
    acc3:	4c 8b 37             	mov    (%rdi),%r14
    acc6:	4d 85 f6             	test   %r14,%r14
    acc9:	0f 84 51 05 00 00    	je     b220 <_ZN12PseudoPRTreeIiLi6EE9constructIN9__gnu_cxx17__normal_iteratorIPSt4pairIi11BoundingBoxESt6vectorIS6_SaIS6_EEEEEEvRSt10shared_ptrI16PseudoPRTreeNodeIiLi6EEET_SH_i.isra.0+0x5a0>
    accf:	89 ce                	mov    %ecx,%esi
    acd1:	c1 f9 1f             	sar    $0x1f,%ecx
    acd4:	48 c1 f8 03          	sar    $0x3,%rax
    acd8:	c1 e9 1e             	shr    $0x1e,%ecx
    acdb:	69 c0 cd cc cc cc    	imul   $0xcccccccd,%eax,%eax
    ace1:	8d 14 0e             	lea    (%rsi,%rcx,1),%edx
    ace4:	83 e2 03             	and    $0x3,%edx
    ace7:	29 ca                	sub    %ecx,%edx
    ace9:	48 98                	cltq   
    aceb:	89 54 24 54          	mov    %edx,0x54(%rsp)
    acef:	48 ba 33 33 33 33 33 	movabs $0x333333333333333,%rdx
    acf6:	33 33 03 
    acf9:	48 39 d0             	cmp    %rdx,%rax
    acfc:	0f 87 f8 0a 00 00    	ja     b7fa <_ZN12PseudoPRTreeIiLi6EE9constructIN9__gnu_cxx17__normal_iteratorIPSt4pairIi11BoundingBoxESt6vectorIS6_SaIS6_EEEEEEvRSt10shared_ptrI16PseudoPRTreeNodeIiLi6EEET_SH_i.isra.0+0xb7a>
    ad02:	48 85 c0             	test   %rax,%rax
    ad05:	0f 85 e8 09 00 00    	jne    b6f3 <_ZN12PseudoPRTreeIiLi6EE9constructIN9__gnu_cxx17__normal_iteratorIPSt4pairIi11BoundingBoxESt6vectorIS6_SaIS6_EEEEEEvRSt10shared_ptrI16PseudoPRTreeNodeIiLi6EEET_SH_i.isra.0+0xa73>
    ad0b:	45 31 ff             	xor    %r15d,%r15d
    ad0e:	48 c7 44 24 30 00 00 	movq   $0x0,0x30(%rsp)
    ad15:	00 00 
    ad17:	4c 39 64 24 28       	cmp    %r12,0x28(%rsp)
    ad1c:	0f 84 fe 04 00 00    	je     b220 <_ZN12PseudoPRTreeIiLi6EE9constructIN9__gnu_cxx17__normal_iteratorIPSt4pairIi11BoundingBoxESt6vectorIS6_SaIS6_EEEEEEvRSt10shared_ptrI16PseudoPRTreeNodeIiLi6EEET_SH_i.isra.0+0x5a0>
    ad22:	4c 89 7c 24 48       	mov    %r15,0x48(%rsp)
    ad27:	66 0f 1f 84 00 00 00 	nopw   0x0(%rax,%rax,1)
    ad2e:	00 00 
    ad30:	48 8b 44 24 30       	mov    0x30(%rsp),%rax
    ad35:	c4 c1 7b 10 54 24 08 	vmovsd 0x8(%r12),%xmm2
    ad3c:	c4 c1 7b 10 5c 24 10 	vmovsd 0x10(%r12),%xmm3
    ad43:	c4 c1 7b 10 6c 24 18 	vmovsd 0x18(%r12),%xmm5
    ad4a:	c4 c1 7b 10 74 24 20 	vmovsd 0x20(%r12),%xmm6
    ad51:	41 8b 1c 24          	mov    (%r12),%ebx
    ad55:	48 89 c6             	mov    %rax,%rsi
    ad58:	48 2b 74 24 48       	sub    0x48(%rsp),%rsi
    ad5d:	c5 fb 11 54 24 38    	vmovsd %xmm2,0x38(%rsp)
    ad63:	c5 fb 11 5c 24 20    	vmovsd %xmm3,0x20(%rsp)
    ad69:	48 89 74 24 40       	mov    %rsi,0x40(%rsp)
    ad6e:	c5 fb 11 6c 24 18    	vmovsd %xmm5,0x18(%rsp)
    ad74:	c5 fb 11 74 24 10    	vmovsd %xmm6,0x10(%rsp)
    ad7a:	49 39 c7             	cmp    %rax,%r15
    ad7d:	0f 84 b2 07 00 00    	je     b535 <_ZN12PseudoPRTreeIiLi6EE9constructIN9__gnu_cxx17__normal_iteratorIPSt4pairIi11BoundingBoxESt6vectorIS6_SaIS6_EEEEEEvRSt10shared_ptrI16PseudoPRTreeNodeIiLi6EEET_SH_i.isra.0+0x8b5>
    ad83:	c5 d1 14 ce          	vunpcklpd %xmm6,%xmm5,%xmm1
    ad87:	c5 e9 14 c3          	vunpcklpd %xmm3,%xmm2,%xmm0
    ad8b:	41 89 1f             	mov    %ebx,(%r15)
    ad8e:	4c 89 7c 24 38       	mov    %r15,0x38(%rsp)
    ad93:	c4 e3 7d 18 c1 01    	vinsertf128 $0x1,%xmm1,%ymm0,%ymm0
    ad99:	49 83 c7 28          	add    $0x28,%r15
    ad9d:	c4 c1 7d 11 47 e0    	vmovupd %ymm0,-0x20(%r15)
    ada3:	c5 fa 7e 2d 35 55 00 	vmovq  0x5535(%rip),%xmm5        # 102e0 <_ZZNSt19_Sp_make_shared_tag5_S_tiEvE5__tag+0xe0>
    adaa:	00 
    adab:	4c 89 f3             	mov    %r14,%rbx
    adae:	4d 8d ae 00 01 00 00 	lea    0x100(%r14),%r13
    adb5:	49 bb cd cc cc cc cc 	movabs $0xcccccccccccccccd,%r11
    adbc:	cc cc cc 
    adbf:	4c 8b 43 30          	mov    0x30(%rbx),%r8
    adc3:	48 8b 43 28          	mov    0x28(%rbx),%rax
    adc7:	4d 89 c1             	mov    %r8,%r9
    adca:	49 29 c1             	sub    %rax,%r9
    adcd:	49 81 f9 c8 00 00 00 	cmp    $0xc8,%r9
    add4:	0f 86 c6 04 00 00    	jbe    b2a0 <_ZN12PseudoPRTreeIiLi6EE9constructIN9__gnu_cxx17__normal_iteratorIPSt4pairIi11BoundingBoxESt6vectorIS6_SaIS6_EEEEEEvRSt10shared_ptrI16PseudoPRTreeNodeIiLi6EEET_SH_i.isra.0+0x620>
    adda:	4c 89 ca             	mov    %r9,%rdx
    addd:	48 89 c7             	mov    %rax,%rdi
    ade0:	48 c1 fa 03          	sar    $0x3,%rdx
    ade4:	49 0f af d3          	imul   %r11,%rdx
    ade8:	0f 1f 84 00 00 00 00 	nopl   0x0(%rax,%rax,1)
    adef:	00 
    adf0:	48 85 d2             	test   %rdx,%rdx
    adf3:	7e 62                	jle    ae57 <_ZN12PseudoPRTreeIiLi6EE9constructIN9__gnu_cxx17__normal_iteratorIPSt4pairIi11BoundingBoxESt6vectorIS6_SaIS6_EEEEEEvRSt10shared_ptrI16PseudoPRTreeNodeIiLi6EEET_SH_i.isra.0+0x1d7>
    adf5:	44 8b 13             	mov    (%rbx),%r10d
    adf8:	48 89 d6             	mov    %rdx,%rsi
    adfb:	48 d1 fe             	sar    %rsi
    adfe:	48 8d 0c b6          	lea    (%rsi,%rsi,4),%rcx
    ae02:	48 8d 0c cf          	lea    (%rdi,%rcx,8),%rcx
    ae06:	45 85 d2             	test   %r10d,%r10d
    ae09:	0f 84 51 04 00 00    	je     b260 <_ZN12PseudoPRTreeIiLi6EE9constructIN9__gnu_cxx17__normal_iteratorIPSt4pairIi11BoundingBoxESt6vectorIS6_SaIS6_EEEEEEvRSt10shared_ptrI16PseudoPRTreeNodeIiLi6EEET_SH_i.isra.0+0x5e0>
    ae0f:	41 83 fa 01          	cmp    $0x1,%r10d
    ae13:	0f 84 67 04 00 00    	je     b280 <_ZN12PseudoPRTreeIiLi6EE9constructIN9__gnu_cxx17__normal_iteratorIPSt4pairIi11BoundingBoxESt6vectorIS6_SaIS6_EEEEEEvRSt10shared_ptrI16PseudoPRTreeNodeIiLi6EEET_SH_i.isra.0+0x600>
    ae19:	41 83 fa 02          	cmp    $0x2,%r10d
    ae1d:	0f 84 4d 04 00 00    	je     b270 <_ZN12PseudoPRTreeIiLi6EE9constructIN9__gnu_cxx17__normal_iteratorIPSt4pairIi11BoundingBoxESt6vectorIS6_SaIS6_EEEEEEvRSt10shared_ptrI16PseudoPRTreeNodeIiLi6EEET_SH_i.isra.0+0x5f0>
    ae23:	c4 c1 7b 10 47 f8    	vmovsd -0x8(%r15),%xmm0
    ae29:	c5 fb 10 49 20       	vmovsd 0x20(%rcx),%xmm1
    ae2e:	c5 f9 57 05 aa 54 00 	vxorpd 0x54aa(%rip),%xmm0,%xmm0        # 102e0 <_ZZNSt19_Sp_make_shared_tag5_S_tiEvE5__tag+0xe0>
    ae35:	00 
    ae36:	c5 f1 57 0d a2 54 00 	vxorpd 0x54a2(%rip),%xmm1,%xmm1        # 102e0 <_ZZNSt19_Sp_make_shared_tag5_S_tiEvE5__tag+0xe0>
    ae3d:	00 
    ae3e:	c5 f9 2f c8          	vcomisd %xmm0,%xmm1
    ae42:	0f 87 08 04 00 00    	ja     b250 <_ZN12PseudoPRTreeIiLi6EE9constructIN9__gnu_cxx17__normal_iteratorIPSt4pairIi11BoundingBoxESt6vectorIS6_SaIS6_EEEEEEvRSt10shared_ptrI16PseudoPRTreeNodeIiLi6EEET_SH_i.isra.0+0x5d0>
    ae48:	48 29 f2             	sub    %rsi,%rdx
    ae4b:	48 8d 79 28          	lea    0x28(%rcx),%rdi
    ae4f:	48 ff ca             	dec    %rdx
    ae52:	48 85 d2             	test   %rdx,%rdx
    ae55:	7f 9e                	jg     adf5 <_ZN12PseudoPRTreeIiLi6EE9constructIN9__gnu_cxx17__normal_iteratorIPSt4pairIi11BoundingBoxESt6vectorIS6_SaIS6_EEEEEEvRSt10shared_ptrI16PseudoPRTreeNodeIiLi6EEET_SH_i.isra.0+0x175>
    ae57:	49 39 f8             	cmp    %rdi,%r8
    ae5a:	0f 85 90 05 00 00    	jne    b3f0 <_ZN12PseudoPRTreeIiLi6EE9constructIN9__gnu_cxx17__normal_iteratorIPSt4pairIi11BoundingBoxESt6vectorIS6_SaIS6_EEEEEEvRSt10shared_ptrI16PseudoPRTreeNodeIiLi6EEET_SH_i.isra.0+0x770>
    ae60:	48 83 c3 40          	add    $0x40,%rbx
    ae64:	49 39 dd             	cmp    %rbx,%r13
    ae67:	0f 85 52 ff ff ff    	jne    adbf <_ZN12PseudoPRTreeIiLi6EE9constructIN9__gnu_cxx17__normal_iteratorIPSt4pairIi11BoundingBoxESt6vectorIS6_SaIS6_EEEEEEvRSt10shared_ptrI16PseudoPRTreeNodeIiLi6EEET_SH_i.isra.0+0x13f>
    ae6d:	49 83 c4 28          	add    $0x28,%r12
    ae71:	4c 39 64 24 28       	cmp    %r12,0x28(%rsp)
    ae76:	0f 85 b4 fe ff ff    	jne    ad30 <_ZN12PseudoPRTreeIiLi6EE9constructIN9__gnu_cxx17__normal_iteratorIPSt4pairIi11BoundingBoxESt6vectorIS6_SaIS6_EEEEEEvRSt10shared_ptrI16PseudoPRTreeNodeIiLi6EEET_SH_i.isra.0+0xb0>
    ae7c:	48 8b 74 24 48       	mov    0x48(%rsp),%rsi
    ae81:	4c 89 f8             	mov    %r15,%rax
    ae84:	48 ba cd cc cc cc cc 	movabs $0xcccccccccccccccd,%rdx
    ae8b:	cc cc cc 
    ae8e:	48 29 f0             	sub    %rsi,%rax
    ae91:	48 c1 f8 03          	sar    $0x3,%rax
    ae95:	48 0f af c2          	imul   %rdx,%rax
    ae99:	48 89 c2             	mov    %rax,%rdx
    ae9c:	48 d1 ea             	shr    %rdx
    ae9f:	48 8d 1c 92          	lea    (%rdx,%rdx,4),%rbx
    aea3:	48 c1 e3 03          	shl    $0x3,%rbx
    aea7:	4c 8d 2c 1e          	lea    (%rsi,%rbx,1),%r13
    aeab:	4d 39 fd             	cmp    %r15,%r13
    aeae:	0f 84 ae 07 00 00    	je     b662 <_ZN12PseudoPRTreeIiLi6EE9constructIN9__gnu_cxx17__normal_iteratorIPSt4pairIi11BoundingBoxESt6vectorIS6_SaIS6_EEEEEEvRSt10shared_ptrI16PseudoPRTreeNodeIiLi6EEET_SH_i.isra.0+0x9e2>
    aeb4:	49 39 f7             	cmp    %rsi,%r15
    aeb7:	0f 84 a5 07 00 00    	je     b662 <_ZN12PseudoPRTreeIiLi6EE9constructIN9__gnu_cxx17__normal_iteratorIPSt4pairIi11BoundingBoxESt6vectorIS6_SaIS6_EEEEEEvRSt10shared_ptrI16PseudoPRTreeNodeIiLi6EEET_SH_i.isra.0+0x9e2>
    aebd:	f3 48 0f bd c0       	lzcnt  %rax,%rax
    aec2:	b9 3f 00 00 00       	mov    $0x3f,%ecx
    aec7:	48 89 f7             	mov    %rsi,%rdi
    aeca:	4c 8d 44 24 54       	lea    0x54(%rsp),%r8
    aecf:	29 c1                	sub    %eax,%ecx
    aed1:	4c 89 fa             	mov    %r15,%rdx
    aed4:	4c 89 ee             	mov    %r13,%rsi
    aed7:	48 63 c9             	movslq %ecx,%rcx
    aeda:	48 01 c9             	add    %rcx,%rcx
    aedd:	c5 f8 77             	vzeroupper 
    aee0:	e8 8b f8 ff ff       	callq  a770 <_ZSt13__introselectIN9__gnu_cxx17__normal_iteratorIPSt4pairIi11BoundingBoxESt6vectorIS4_SaIS4_EEEElNS0_5__ops15_Iter_comp_iterIZN12PseudoPRTreeIiLi6EE9constructIS9_EEvRSt10shared_ptrI16PseudoPRTreeNodeIiLi6EEET_SK_iEUlRKS4_SM_E_EEEvSK_SK_SK_T0_T1_>
    aee5:	48 85 db             	test   %rbx,%rbx
    aee8:	0f 8e 8a 01 00 00    	jle    b078 <_ZN12PseudoPRTreeIiLi6EE9constructIN9__gnu_cxx17__normal_iteratorIPSt4pairIi11BoundingBoxESt6vectorIS6_SaIS6_EEEEEEvRSt10shared_ptrI16PseudoPRTreeNodeIiLi6EEET_SH_i.isra.0+0x3f8>
    aeee:	bf 30 01 00 00       	mov    $0x130,%edi
    aef3:	e8 08 72 ff ff       	callq  2100 <_Znwm@plt>
    aef8:	49 89 c4             	mov    %rax,%r12
    aefb:	48 8b 05 ee 53 00 00 	mov    0x53ee(%rip),%rax        # 102f0 <_ZZNSt19_Sp_make_shared_tag5_S_tiEvE5__tag+0xf0>
    af02:	c5 f9 ef c0          	vpxor  %xmm0,%xmm0,%xmm0
    af06:	45 31 f6             	xor    %r14d,%r14d
    af09:	49 8d 5c 24 10       	lea    0x10(%r12),%rbx
    af0e:	c4 c1 7a 7f 44 24 38 	vmovdqu %xmm0,0x38(%r12)
    af15:	c4 c1 7a 7f 44 24 78 	vmovdqu %xmm0,0x78(%r12)
    af1c:	c4 c1 7a 7f 84 24 b8 	vmovdqu %xmm0,0xb8(%r12)
    af23:	00 00 00 
    af26:	c4 c1 7a 7f 84 24 f8 	vmovdqu %xmm0,0xf8(%r12)
    af2d:	00 00 00 
    af30:	c5 f9 ef c0          	vpxor  %xmm0,%xmm0,%xmm0
    af34:	48 89 5c 24 38       	mov    %rbx,0x38(%rsp)
    af39:	41 c7 44 24 10 00 00 	movl   $0x0,0x10(%r12)
    af40:	00 00 
    af42:	49 c7 44 24 48 00 00 	movq   $0x0,0x48(%r12)
    af49:	00 00 
    af4b:	41 c7 44 24 50 00 00 	movl   $0x0,0x50(%r12)
    af52:	00 00 
    af54:	49 c7 84 24 88 00 00 	movq   $0x0,0x88(%r12)
    af5b:	00 00 00 00 00 
    af60:	49 89 44 24 08       	mov    %rax,0x8(%r12)
    af65:	48 8d 05 64 7c 00 00 	lea    0x7c64(%rip),%rax        # 12bd0 <_ZTVSt23_Sp_counted_ptr_inplaceI16PseudoPRTreeNodeIiLi6EESaIS1_ELN9__gnu_cxx12_Lock_policyE2EE+0x10>
    af6c:	41 c7 84 24 90 00 00 	movl   $0x0,0x90(%r12)
    af73:	00 00 00 00 00 
    af78:	49 c7 84 24 c8 00 00 	movq   $0x0,0xc8(%r12)
    af7f:	00 00 00 00 00 
    af84:	49 89 04 24          	mov    %rax,(%r12)
    af88:	41 c7 84 24 d0 00 00 	movl   $0x0,0xd0(%r12)
    af8f:	00 00 00 00 00 
    af94:	49 c7 84 24 08 01 00 	movq   $0x0,0x108(%r12)
    af9b:	00 00 00 00 00 
    afa0:	c4 c1 7e 7f 84 24 10 	vmovdqu %ymm0,0x110(%r12)
    afa7:	01 00 00 
    afaa:	c5 f8 77             	vzeroupper 
    afad:	bf f0 00 00 00       	mov    $0xf0,%edi
    afb2:	e8 49 71 ff ff       	callq  2100 <_Znwm@plt>
    afb7:	48 8b 7b 28          	mov    0x28(%rbx),%rdi
    afbb:	c5 e1 57 db          	vxorpd %xmm3,%xmm3,%xmm3
    afbf:	48 8b 73 38          	mov    0x38(%rbx),%rsi
    afc3:	44 89 33             	mov    %r14d,(%rbx)
    afc6:	c5 fd 11 5b 08       	vmovupd %ymm3,0x8(%rbx)
    afcb:	c4 e1 f9 6e d8       	vmovq  %rax,%xmm3
    afd0:	48 05 f0 00 00 00    	add    $0xf0,%rax
    afd6:	c5 e1 6c c3          	vpunpcklqdq %xmm3,%xmm3,%xmm0
    afda:	48 89 43 38          	mov    %rax,0x38(%rbx)
    afde:	c5 fa 7f 43 28       	vmovdqu %xmm0,0x28(%rbx)
    afe3:	48 85 ff             	test   %rdi,%rdi
    afe6:	0f 84 93 06 00 00    	je     b67f <_ZN12PseudoPRTreeIiLi6EE9constructIN9__gnu_cxx17__normal_iteratorIPSt4pairIi11BoundingBoxESt6vectorIS6_SaIS6_EEEEEEvRSt10shared_ptrI16PseudoPRTreeNodeIiLi6EEET_SH_i.isra.0+0x9ff>
    afec:	48 29 fe             	sub    %rdi,%rsi
    afef:	c5 f8 77             	vzeroupper 
    aff2:	41 ff c6             	inc    %r14d
    aff5:	e8 16 71 ff ff       	callq  2110 <_ZdlPvm@plt>
    affa:	48 83 c3 40          	add    $0x40,%rbx
    affe:	41 83 fe 04          	cmp    $0x4,%r14d
    b002:	75 a9                	jne    afad <_ZN12PseudoPRTreeIiLi6EE9constructIN9__gnu_cxx17__normal_iteratorIPSt4pairIi11BoundingBoxESt6vectorIS6_SaIS6_EEEEEEvRSt10shared_ptrI16PseudoPRTreeNodeIiLi6EEET_SH_i.isra.0+0x32d>
    b004:	48 8b 44 24 08       	mov    0x8(%rsp),%rax
    b009:	c5 fa 7e 54 24 38    	vmovq  0x38(%rsp),%xmm2
    b00f:	48 8b 00             	mov    (%rax),%rax
    b012:	4c 8b b0 08 01 00 00 	mov    0x108(%rax),%r14
    b019:	c4 c3 e9 22 c4 01    	vpinsrq $0x1,%r12,%xmm2,%xmm0
    b01f:	c5 fa 7f 80 00 01 00 	vmovdqu %xmm0,0x100(%rax)
    b026:	00 
    b027:	4d 85 f6             	test   %r14,%r14
    b02a:	74 24                	je     b050 <_ZN12PseudoPRTreeIiLi6EE9constructIN9__gnu_cxx17__normal_iteratorIPSt4pairIi11BoundingBoxESt6vectorIS6_SaIS6_EEEEEEvRSt10shared_ptrI16PseudoPRTreeNodeIiLi6EEET_SH_i.isra.0+0x3d0>
    b02c:	48 8b 1d 95 7f 00 00 	mov    0x7f95(%rip),%rbx        # 12fc8 <__pthread_key_create>
    b033:	48 85 db             	test   %rbx,%rbx
    b036:	0f 85 61 07 00 00    	jne    b79d <_ZN12PseudoPRTreeIiLi6EE9constructIN9__gnu_cxx17__normal_iteratorIPSt4pairIi11BoundingBoxESt6vectorIS6_SaIS6_EEEEEEvRSt10shared_ptrI16PseudoPRTreeNodeIiLi6EEET_SH_i.isra.0+0xb1d>
    b03c:	41 8b 46 08          	mov    0x8(%r14),%eax
    b040:	8d 50 ff             	lea    -0x1(%rax),%edx
    b043:	41 89 56 08          	mov    %edx,0x8(%r14)
    b047:	83 f8 01             	cmp    $0x1,%eax
    b04a:	0f 84 0d 07 00 00    	je     b75d <_ZN12PseudoPRTreeIiLi6EE9constructIN9__gnu_cxx17__normal_iteratorIPSt4pairIi11BoundingBoxESt6vectorIS6_SaIS6_EEEEEEvRSt10shared_ptrI16PseudoPRTreeNodeIiLi6EEET_SH_i.isra.0+0xadd>
    b050:	48 8b 44 24 08       	mov    0x8(%rsp),%rax
    b055:	48 8b 74 24 48       	mov    0x48(%rsp),%rsi
    b05a:	4c 89 ea             	mov    %r13,%rdx
    b05d:	48 8b 00             	mov    (%rax),%rax
    b060:	48 89 44 24 38       	mov    %rax,0x38(%rsp)
    b065:	48 8d b8 00 01 00 00 	lea    0x100(%rax),%rdi
    b06c:	8b 44 24 04          	mov    0x4(%rsp),%eax
    b070:	8d 48 01             	lea    0x1(%rax),%ecx
    b073:	e8 08 fc ff ff       	callq  ac80 <_ZN12PseudoPRTreeIiLi6EE9constructIN9__gnu_cxx17__normal_iteratorIPSt4pairIi11BoundingBoxESt6vectorIS6_SaIS6_EEEEEEvRSt10shared_ptrI16PseudoPRTreeNodeIiLi6EEET_SH_i.isra.0>
    b078:	4c 89 f8             	mov    %r15,%rax
    b07b:	4c 29 e8             	sub    %r13,%rax
    b07e:	48 85 c0             	test   %rax,%rax
    b081:	0f 8e 82 01 00 00    	jle    b209 <_ZN12PseudoPRTreeIiLi6EE9constructIN9__gnu_cxx17__normal_iteratorIPSt4pairIi11BoundingBoxESt6vectorIS6_SaIS6_EEEEEEvRSt10shared_ptrI16PseudoPRTreeNodeIiLi6EEET_SH_i.isra.0+0x589>
    b087:	bf 30 01 00 00       	mov    $0x130,%edi
    b08c:	e8 6f 70 ff ff       	callq  2100 <_Znwm@plt>
    b091:	49 89 c4             	mov    %rax,%r12
    b094:	48 8b 05 55 52 00 00 	mov    0x5255(%rip),%rax        # 102f0 <_ZZNSt19_Sp_make_shared_tag5_S_tiEvE5__tag+0xf0>
    b09b:	c5 f9 ef c0          	vpxor  %xmm0,%xmm0,%xmm0
    b09f:	45 31 f6             	xor    %r14d,%r14d
    b0a2:	49 8d 5c 24 10       	lea    0x10(%r12),%rbx
    b0a7:	c4 c1 7a 7f 44 24 38 	vmovdqu %xmm0,0x38(%r12)
    b0ae:	c4 c1 7a 7f 44 24 78 	vmovdqu %xmm0,0x78(%r12)
    b0b5:	c4 c1 7a 7f 84 24 b8 	vmovdqu %xmm0,0xb8(%r12)
    b0bc:	00 00 00 
    b0bf:	c4 c1 7a 7f 84 24 f8 	vmovdqu %xmm0,0xf8(%r12)
    b0c6:	00 00 00 
    b0c9:	c5 f9 ef c0          	vpxor  %xmm0,%xmm0,%xmm0
    b0cd:	48 89 5c 24 38       	mov    %rbx,0x38(%rsp)
    b0d2:	41 c7 44 24 10 00 00 	movl   $0x0,0x10(%r12)
    b0d9:	00 00 
    b0db:	49 c7 44 24 48 00 00 	movq   $0x0,0x48(%r12)
    b0e2:	00 00 
    b0e4:	41 c7 44 24 50 00 00 	movl   $0x0,0x50(%r12)
    b0eb:	00 00 
    b0ed:	49 c7 84 24 88 00 00 	movq   $0x0,0x88(%r12)
    b0f4:	00 00 00 00 00 
    b0f9:	49 89 44 24 08       	mov    %rax,0x8(%r12)
    b0fe:	48 8d 05 cb 7a 00 00 	lea    0x7acb(%rip),%rax        # 12bd0 <_ZTVSt23_Sp_counted_ptr_inplaceI16PseudoPRTreeNodeIiLi6EESaIS1_ELN9__gnu_cxx12_Lock_policyE2EE+0x10>
    b105:	41 c7 84 24 90 00 00 	movl   $0x0,0x90(%r12)
    b10c:	00 00 00 00 00 
    b111:	49 c7 84 24 c8 00 00 	movq   $0x0,0xc8(%r12)
    b118:	00 00 00 00 00 
    b11d:	49 89 04 24          	mov    %rax,(%r12)
    b121:	41 c7 84 24 d0 00 00 	movl   $0x0,0xd0(%r12)
    b128:	00 00 00 00 00 
    b12d:	49 c7 84 24 08 01 00 	movq   $0x0,0x108(%r12)
    b134:	00 00 00 00 00 
    b139:	c4 c1 7e 7f 84 24 10 	vmovdqu %ymm0,0x110(%r12)
    b140:	01 00 00 
    b143:	c5 f8 77             	vzeroupper 
    b146:	bf f0 00 00 00       	mov    $0xf0,%edi
    b14b:	e8 b0 6f ff ff       	callq  2100 <_Znwm@plt>
    b150:	48 8b 7b 28          	mov    0x28(%rbx),%rdi
    b154:	c4 e1 f9 6e d8       	vmovq  %rax,%xmm3
    b159:	c5 e9 57 d2          	vxorpd %xmm2,%xmm2,%xmm2
    b15d:	48 05 f0 00 00 00    	add    $0xf0,%rax
    b163:	c5 e1 6c c3          	vpunpcklqdq %xmm3,%xmm3,%xmm0
    b167:	48 8b 73 38          	mov    0x38(%rbx),%rsi
    b16b:	44 89 33             	mov    %r14d,(%rbx)
    b16e:	c5 fd 11 53 08       	vmovupd %ymm2,0x8(%rbx)
    b173:	c5 fa 7f 43 28       	vmovdqu %xmm0,0x28(%rbx)
    b178:	48 89 43 38          	mov    %rax,0x38(%rbx)
    b17c:	48 85 ff             	test   %rdi,%rdi
    b17f:	0f 84 e5 04 00 00    	je     b66a <_ZN12PseudoPRTreeIiLi6EE9constructIN9__gnu_cxx17__normal_iteratorIPSt4pairIi11BoundingBoxESt6vectorIS6_SaIS6_EEEEEEvRSt10shared_ptrI16PseudoPRTreeNodeIiLi6EEET_SH_i.isra.0+0x9ea>
    b185:	48 29 fe             	sub    %rdi,%rsi
    b188:	c5 f8 77             	vzeroupper 
    b18b:	41 ff c6             	inc    %r14d
    b18e:	e8 7d 6f ff ff       	callq  2110 <_ZdlPvm@plt>
    b193:	48 83 c3 40          	add    $0x40,%rbx
    b197:	41 83 fe 04          	cmp    $0x4,%r14d
    b19b:	75 a9                	jne    b146 <_ZN12PseudoPRTreeIiLi6EE9constructIN9__gnu_cxx17__normal_iteratorIPSt4pairIi11BoundingBoxESt6vectorIS6_SaIS6_EEEEEEvRSt10shared_ptrI16PseudoPRTreeNodeIiLi6EEET_SH_i.isra.0+0x4c6>
    b19d:	48 8b 44 24 08       	mov    0x8(%rsp),%rax
    b1a2:	c5 fa 7e 5c 24 38    	vmovq  0x38(%rsp),%xmm3
    b1a8:	48 8b 00             	mov    (%rax),%rax
    b1ab:	4c 8b b0 18 01 00 00 	mov    0x118(%rax),%r14
    b1b2:	c4 c3 e1 22 c4 01    	vpinsrq $0x1,%r12,%xmm3,%xmm0
    b1b8:	c5 fa 7f 80 10 01 00 	vmovdqu %xmm0,0x110(%rax)
    b1bf:	00 
    b1c0:	4d 85 f6             	test   %r14,%r14
    b1c3:	74 24                	je     b1e9 <_ZN12PseudoPRTreeIiLi6EE9constructIN9__gnu_cxx17__normal_iteratorIPSt4pairIi11BoundingBoxESt6vectorIS6_SaIS6_EEEEEEvRSt10shared_ptrI16PseudoPRTreeNodeIiLi6EEET_SH_i.isra.0+0x569>
    b1c5:	48 8b 1d fc 7d 00 00 	mov    0x7dfc(%rip),%rbx        # 12fc8 <__pthread_key_create>
    b1cc:	48 85 db             	test   %rbx,%rbx
    b1cf:	0f 85 b8 05 00 00    	jne    b78d <_ZN12PseudoPRTreeIiLi6EE9constructIN9__gnu_cxx17__normal_iteratorIPSt4pairIi11BoundingBoxESt6vectorIS6_SaIS6_EEEEEEvRSt10shared_ptrI16PseudoPRTreeNodeIiLi6EEET_SH_i.isra.0+0xb0d>
    b1d5:	41 8b 46 08          	mov    0x8(%r14),%eax
    b1d9:	8d 50 ff             	lea    -0x1(%rax),%edx
    b1dc:	41 89 56 08          	mov    %edx,0x8(%r14)
    b1e0:	83 f8 01             	cmp    $0x1,%eax
    b1e3:	0f 84 40 05 00 00    	je     b729 <_ZN12PseudoPRTreeIiLi6EE9constructIN9__gnu_cxx17__normal_iteratorIPSt4pairIi11BoundingBoxESt6vectorIS6_SaIS6_EEEEEEvRSt10shared_ptrI16PseudoPRTreeNodeIiLi6EEET_SH_i.isra.0+0xaa9>
    b1e9:	48 8b 44 24 08       	mov    0x8(%rsp),%rax
    b1ee:	8b 4c 24 04          	mov    0x4(%rsp),%ecx
    b1f2:	4c 89 fa             	mov    %r15,%rdx
    b1f5:	4c 89 ee             	mov    %r13,%rsi
    b1f8:	48 8b 38             	mov    (%rax),%rdi
    b1fb:	ff c1                	inc    %ecx
    b1fd:	48 81 c7 10 01 00 00 	add    $0x110,%rdi
    b204:	e8 77 fa ff ff       	callq  ac80 <_ZN12PseudoPRTreeIiLi6EE9constructIN9__gnu_cxx17__normal_iteratorIPSt4pairIi11BoundingBoxESt6vectorIS6_SaIS6_EEEEEEvRSt10shared_ptrI16PseudoPRTreeNodeIiLi6EEET_SH_i.isra.0>
    b209:	48 83 7c 24 48 00    	cmpq   $0x0,0x48(%rsp)
    b20f:	74 0f                	je     b220 <_ZN12PseudoPRTreeIiLi6EE9constructIN9__gnu_cxx17__normal_iteratorIPSt4pairIi11BoundingBoxESt6vectorIS6_SaIS6_EEEEEEvRSt10shared_ptrI16PseudoPRTreeNodeIiLi6EEET_SH_i.isra.0+0x5a0>
    b211:	48 8b 74 24 40       	mov    0x40(%rsp),%rsi
    b216:	48 8b 7c 24 48       	mov    0x48(%rsp),%rdi
    b21b:	e8 f0 6e ff ff       	callq  2110 <_ZdlPvm@plt>
    b220:	48 8b 44 24 58       	mov    0x58(%rsp),%rax
    b225:	64 48 2b 04 25 28 00 	sub    %fs:0x28,%rax
    b22c:	00 00 
    b22e:	0f 85 b2 05 00 00    	jne    b7e6 <_ZN12PseudoPRTreeIiLi6EE9constructIN9__gnu_cxx17__normal_iteratorIPSt4pairIi11BoundingBoxESt6vectorIS6_SaIS6_EEEEEEvRSt10shared_ptrI16PseudoPRTreeNodeIiLi6EEET_SH_i.isra.0+0xb66>
    b234:	48 8d 65 d8          	lea    -0x28(%rbp),%rsp
    b238:	5b                   	pop    %rbx
    b239:	41 5c                	pop    %r12
    b23b:	41 5d                	pop    %r13
    b23d:	41 5e                	pop    %r14
    b23f:	41 5f                	pop    %r15
    b241:	5d                   	pop    %rbp
    b242:	c3                   	retq   
    b243:	66 66 2e 0f 1f 84 00 	data16 nopw %cs:0x0(%rax,%rax,1)
    b24a:	00 00 00 00 
    b24e:	66 90                	xchg   %ax,%ax
    b250:	48 89 f2             	mov    %rsi,%rdx
    b253:	e9 98 fb ff ff       	jmpq   adf0 <_ZN12PseudoPRTreeIiLi6EE9constructIN9__gnu_cxx17__normal_iteratorIPSt4pairIi11BoundingBoxESt6vectorIS6_SaIS6_EEEEEEvRSt10shared_ptrI16PseudoPRTreeNodeIiLi6EEET_SH_i.isra.0+0x170>
    b258:	0f 1f 84 00 00 00 00 	nopl   0x0(%rax,%rax,1)
    b25f:	00 
    b260:	c4 c1 7b 10 47 e0    	vmovsd -0x20(%r15),%xmm0
    b266:	c5 fb 10 49 08       	vmovsd 0x8(%rcx),%xmm1
    b26b:	e9 ce fb ff ff       	jmpq   ae3e <_ZN12PseudoPRTreeIiLi6EE9constructIN9__gnu_cxx17__normal_iteratorIPSt4pairIi11BoundingBoxESt6vectorIS6_SaIS6_EEEEEEvRSt10shared_ptrI16PseudoPRTreeNodeIiLi6EEET_SH_i.isra.0+0x1be>
    b270:	c4 c1 7b 10 47 f0    	vmovsd -0x10(%r15),%xmm0
    b276:	c5 fb 10 49 18       	vmovsd 0x18(%rcx),%xmm1
    b27b:	e9 be fb ff ff       	jmpq   ae3e <_ZN12PseudoPRTreeIiLi6EE9constructIN9__gnu_cxx17__normal_iteratorIPSt4pairIi11BoundingBoxESt6vectorIS6_SaIS6_EEEEEEvRSt10shared_ptrI16PseudoPRTreeNodeIiLi6EEET_SH_i.isra.0+0x1be>
    b280:	c4 c1 7b 10 47 e8    	vmovsd -0x18(%r15),%xmm0
    b286:	c5 fb 10 49 10       	vmovsd 0x10(%rcx),%xmm1
    b28b:	c5 f9 57 c5          	vxorpd %xmm5,%xmm0,%xmm0
    b28f:	c5 f1 57 cd          	vxorpd %xmm5,%xmm1,%xmm1
    b293:	e9 a6 fb ff ff       	jmpq   ae3e <_ZN12PseudoPRTreeIiLi6EE9constructIN9__gnu_cxx17__normal_iteratorIPSt4pairIi11BoundingBoxESt6vectorIS6_SaIS6_EEEEEEvRSt10shared_ptrI16PseudoPRTreeNodeIiLi6EEET_SH_i.isra.0+0x1be>
    b298:	0f 1f 84 00 00 00 00 	nopl   0x0(%rax,%rax,1)
    b29f:	00 
    b2a0:	4c 3b 43 38          	cmp    0x38(%rbx),%r8
    b2a4:	0f 84 fa 03 00 00    	je     b6a4 <_ZN12PseudoPRTreeIiLi6EE9constructIN9__gnu_cxx17__normal_iteratorIPSt4pairIi11BoundingBoxESt6vectorIS6_SaIS6_EEEEEEvRSt10shared_ptrI16PseudoPRTreeNodeIiLi6EEET_SH_i.isra.0+0xa24>
    b2aa:	c4 c1 7a 6f 57 d8    	vmovdqu -0x28(%r15),%xmm2
    b2b0:	49 83 c0 28          	add    $0x28,%r8
    b2b4:	c4 c1 7a 7f 50 d8    	vmovdqu %xmm2,-0x28(%r8)
    b2ba:	c4 c1 7a 6f 5f e8    	vmovdqu -0x18(%r15),%xmm3
    b2c0:	c4 c1 7a 7f 58 e8    	vmovdqu %xmm3,-0x18(%r8)
    b2c6:	49 8b 57 f8          	mov    -0x8(%r15),%rdx
    b2ca:	49 89 50 f8          	mov    %rdx,-0x8(%r8)
    b2ce:	4c 89 43 30          	mov    %r8,0x30(%rbx)
    b2d2:	4c 89 c2             	mov    %r8,%rdx
    b2d5:	c5 f1 57 c9          	vxorpd %xmm1,%xmm1,%xmm1
    b2d9:	48 29 c2             	sub    %rax,%rdx
    b2dc:	c5 f3 10 d1          	vmovsd %xmm1,%xmm1,%xmm2
    b2e0:	c5 f3 10 d9          	vmovsd %xmm1,%xmm1,%xmm3
    b2e4:	c5 f3 10 c1          	vmovsd %xmm1,%xmm1,%xmm0
    b2e8:	48 83 fa 78          	cmp    $0x78,%rdx
    b2ec:	0f 8e 9d 00 00 00    	jle    b38f <_ZN12PseudoPRTreeIiLi6EE9constructIN9__gnu_cxx17__normal_iteratorIPSt4pairIi11BoundingBoxESt6vectorIS6_SaIS6_EEEEEEvRSt10shared_ptrI16PseudoPRTreeNodeIiLi6EEET_SH_i.isra.0+0x70f>
    b2f2:	66 66 2e 0f 1f 84 00 	data16 nopw %cs:0x0(%rax,%rax,1)
    b2f9:	00 00 00 00 
    b2fd:	0f 1f 00             	nopl   (%rax)
    b300:	c5 fb 10 78 70       	vmovsd 0x70(%rax),%xmm7
    b305:	c5 fb 10 70 60       	vmovsd 0x60(%rax),%xmm6
    b30a:	4c 89 c2             	mov    %r8,%rdx
    b30d:	48 05 a0 00 00 00    	add    $0xa0,%rax
    b313:	c5 c3 5f 60 f8       	vmaxsd -0x8(%rax),%xmm7,%xmm4
    b318:	c5 fb 10 78 80       	vmovsd -0x80(%rax),%xmm7
    b31d:	c5 c3 5f 68 a8       	vmaxsd -0x58(%rax),%xmm7,%xmm5
    b322:	c5 fb 10 78 a0       	vmovsd -0x60(%rax),%xmm7
    b327:	c5 db 5f e5          	vmaxsd %xmm5,%xmm4,%xmm4
    b32b:	c5 f3 5f cc          	vmaxsd %xmm4,%xmm1,%xmm1
    b32f:	c5 c3 5d a0 78 ff ff 	vminsd -0x88(%rax),%xmm7,%xmm4
    b336:	ff 
    b337:	c5 fb 10 78 f0       	vmovsd -0x10(%rax),%xmm7
    b33c:	c5 c3 5d 68 c8       	vminsd -0x38(%rax),%xmm7,%xmm5
    b341:	c5 fb 10 b8 70 ff ff 	vmovsd -0x90(%rax),%xmm7
    b348:	ff 
    b349:	c5 db 5d e5          	vminsd %xmm5,%xmm4,%xmm4
    b34d:	c5 c3 5f 68 98       	vmaxsd -0x68(%rax),%xmm7,%xmm5
    b352:	c5 fb 10 78 90       	vmovsd -0x70(%rax),%xmm7
    b357:	c5 eb 5d d4          	vminsd %xmm4,%xmm2,%xmm2
    b35b:	c5 cb 5f 60 e8       	vmaxsd -0x18(%rax),%xmm6,%xmm4
    b360:	c5 fb 10 70 e0       	vmovsd -0x20(%rax),%xmm6
    b365:	c5 db 5f e5          	vmaxsd %xmm5,%xmm4,%xmm4
    b369:	c5 c3 5d a8 68 ff ff 	vminsd -0x98(%rax),%xmm7,%xmm5
    b370:	ff 
    b371:	c5 e3 5f dc          	vmaxsd %xmm4,%xmm3,%xmm3
    b375:	c5 cb 5d 60 b8       	vminsd -0x48(%rax),%xmm6,%xmm4
    b37a:	48 29 c2             	sub    %rax,%rdx
    b37d:	c5 db 5d e5          	vminsd %xmm5,%xmm4,%xmm4
    b381:	c5 fb 5d c4          	vminsd %xmm4,%xmm0,%xmm0
    b385:	48 83 fa 78          	cmp    $0x78,%rdx
    b389:	0f 8f 71 ff ff ff    	jg     b300 <_ZN12PseudoPRTreeIiLi6EE9constructIN9__gnu_cxx17__normal_iteratorIPSt4pairIi11BoundingBoxESt6vectorIS6_SaIS6_EEEEEEvRSt10shared_ptrI16PseudoPRTreeNodeIiLi6EEET_SH_i.isra.0+0x680>
    b38f:	4c 39 c0             	cmp    %r8,%rax
    b392:	74 29                	je     b3bd <_ZN12PseudoPRTreeIiLi6EE9constructIN9__gnu_cxx17__normal_iteratorIPSt4pairIi11BoundingBoxESt6vectorIS6_SaIS6_EEEEEEvRSt10shared_ptrI16PseudoPRTreeNodeIiLi6EEET_SH_i.isra.0+0x73d>
    b394:	66 66 2e 0f 1f 84 00 	data16 nopw %cs:0x0(%rax,%rax,1)
    b39b:	00 00 00 00 
    b39f:	90                   	nop
    b3a0:	c5 f3 5f 48 20       	vmaxsd 0x20(%rax),%xmm1,%xmm1
    b3a5:	c5 eb 5d 50 18       	vminsd 0x18(%rax),%xmm2,%xmm2
    b3aa:	48 83 c0 28          	add    $0x28,%rax
    b3ae:	c5 e3 5f 58 e8       	vmaxsd -0x18(%rax),%xmm3,%xmm3
    b3b3:	c5 fb 5d 40 e0       	vminsd -0x20(%rax),%xmm0,%xmm0
    b3b8:	49 39 c0             	cmp    %rax,%r8
    b3bb:	75 e3                	jne    b3a0 <_ZN12PseudoPRTreeIiLi6EE9constructIN9__gnu_cxx17__normal_iteratorIPSt4pairIi11BoundingBoxESt6vectorIS6_SaIS6_EEEEEEvRSt10shared_ptrI16PseudoPRTreeNodeIiLi6EEET_SH_i.isra.0+0x720>
    b3bd:	c5 e9 14 c9          	vunpcklpd %xmm1,%xmm2,%xmm1
    b3c1:	c5 f9 14 c3          	vunpcklpd %xmm3,%xmm0,%xmm0
    b3c5:	4c 8b 7c 24 38       	mov    0x38(%rsp),%r15
    b3ca:	49 83 c4 28          	add    $0x28,%r12
    b3ce:	c4 e3 7d 18 c1 01    	vinsertf128 $0x1,%xmm1,%ymm0,%ymm0
    b3d4:	c5 fd 11 43 08       	vmovupd %ymm0,0x8(%rbx)
    b3d9:	4c 39 64 24 28       	cmp    %r12,0x28(%rsp)
    b3de:	0f 85 4c f9 ff ff    	jne    ad30 <_ZN12PseudoPRTreeIiLi6EE9constructIN9__gnu_cxx17__normal_iteratorIPSt4pairIi11BoundingBoxESt6vectorIS6_SaIS6_EEEEEEvRSt10shared_ptrI16PseudoPRTreeNodeIiLi6EEET_SH_i.isra.0+0xb0>
    b3e4:	e9 93 fa ff ff       	jmpq   ae7c <_ZN12PseudoPRTreeIiLi6EE9constructIN9__gnu_cxx17__normal_iteratorIPSt4pairIi11BoundingBoxESt6vectorIS6_SaIS6_EEEEEEvRSt10shared_ptrI16PseudoPRTreeNodeIiLi6EEET_SH_i.isra.0+0x1fc>
    b3e9:	0f 1f 80 00 00 00 00 	nopl   0x0(%rax)
    b3f0:	c4 c1 7a 6f 7f e0    	vmovdqu -0x20(%r15),%xmm7
    b3f6:	41 8b 4f d8          	mov    -0x28(%r15),%ecx
    b3fa:	8b 17                	mov    (%rdi),%edx
    b3fc:	c5 fb 10 57 10       	vmovsd 0x10(%rdi),%xmm2
    b401:	c5 fb 10 5f 18       	vmovsd 0x18(%rdi),%xmm3
    b406:	c5 fb 10 47 08       	vmovsd 0x8(%rdi),%xmm0
    b40b:	c5 fb 10 4f 20       	vmovsd 0x20(%rdi),%xmm1
    b410:	89 0f                	mov    %ecx,(%rdi)
    b412:	41 89 57 d8          	mov    %edx,-0x28(%r15)
    b416:	c5 fa 7f 7f 08       	vmovdqu %xmm7,0x8(%rdi)
    b41b:	c4 c1 7a 6f 7f f0    	vmovdqu -0x10(%r15),%xmm7
    b421:	c5 f9 14 c2          	vunpcklpd %xmm2,%xmm0,%xmm0
    b425:	c5 e1 14 c9          	vunpcklpd %xmm1,%xmm3,%xmm1
    b429:	c4 e3 7d 18 c1 01    	vinsertf128 $0x1,%xmm1,%ymm0,%ymm0
    b42f:	c5 f1 57 c9          	vxorpd %xmm1,%xmm1,%xmm1
    b433:	c5 f3 10 d9          	vmovsd %xmm1,%xmm1,%xmm3
    b437:	c5 f3 10 d1          	vmovsd %xmm1,%xmm1,%xmm2
    b43b:	c5 fa 7f 7f 18       	vmovdqu %xmm7,0x18(%rdi)
    b440:	c4 c1 7d 11 47 e0    	vmovupd %ymm0,-0x20(%r15)
    b446:	c5 f3 10 c1          	vmovsd %xmm1,%xmm1,%xmm0
    b44a:	49 83 f9 78          	cmp    $0x78,%r9
    b44e:	0f 8e c4 00 00 00    	jle    b518 <_ZN12PseudoPRTreeIiLi6EE9constructIN9__gnu_cxx17__normal_iteratorIPSt4pairIi11BoundingBoxESt6vectorIS6_SaIS6_EEEEEEvRSt10shared_ptrI16PseudoPRTreeNodeIiLi6EEET_SH_i.isra.0+0x898>
    b454:	66 66 2e 0f 1f 84 00 	data16 nopw %cs:0x0(%rax,%rax,1)
    b45b:	00 00 00 00 
    b45f:	90                   	nop
    b460:	c5 fb 10 70 20       	vmovsd 0x20(%rax),%xmm6
    b465:	c5 fb 10 78 70       	vmovsd 0x70(%rax),%xmm7
    b46a:	4c 89 c2             	mov    %r8,%rdx
    b46d:	48 05 a0 00 00 00    	add    $0xa0,%rax
    b473:	c5 cb 5f 60 a8       	vmaxsd -0x58(%rax),%xmm6,%xmm4
    b478:	c5 c3 5f 70 f8       	vmaxsd -0x8(%rax),%xmm7,%xmm6
    b47d:	c5 fb 10 78 f0       	vmovsd -0x10(%rax),%xmm7
    b482:	c5 db 5f e6          	vmaxsd %xmm6,%xmm4,%xmm4
    b486:	c5 fb 10 70 a0       	vmovsd -0x60(%rax),%xmm6
    b48b:	c5 f3 5f cc          	vmaxsd %xmm4,%xmm1,%xmm1
    b48f:	c5 cb 5d a0 78 ff ff 	vminsd -0x88(%rax),%xmm6,%xmm4
    b496:	ff 
    b497:	c5 c3 5d 70 c8       	vminsd -0x38(%rax),%xmm7,%xmm6
    b49c:	c5 fb 10 78 c0       	vmovsd -0x40(%rax),%xmm7
    b4a1:	c5 db 5d e6          	vminsd %xmm6,%xmm4,%xmm4
    b4a5:	c5 fb 10 b0 70 ff ff 	vmovsd -0x90(%rax),%xmm6
    b4ac:	ff 
    b4ad:	c5 e3 5d dc          	vminsd %xmm4,%xmm3,%xmm3
    b4b1:	c5 cb 5f 60 98       	vmaxsd -0x68(%rax),%xmm6,%xmm4
    b4b6:	c5 c3 5f 70 e8       	vmaxsd -0x18(%rax),%xmm7,%xmm6
    b4bb:	c5 fb 10 78 e0       	vmovsd -0x20(%rax),%xmm7
    b4c0:	c5 db 5f e6          	vmaxsd %xmm6,%xmm4,%xmm4
    b4c4:	c5 fb 10 70 90       	vmovsd -0x70(%rax),%xmm6
    b4c9:	c5 eb 5f d4          	vmaxsd %xmm4,%xmm2,%xmm2
    b4cd:	c5 cb 5d a0 68 ff ff 	vminsd -0x98(%rax),%xmm6,%xmm4
    b4d4:	ff 
    b4d5:	c5 c3 5d 70 b8       	vminsd -0x48(%rax),%xmm7,%xmm6
    b4da:	48 29 c2             	sub    %rax,%rdx
    b4dd:	c5 db 5d e6          	vminsd %xmm6,%xmm4,%xmm4
    b4e1:	c5 fb 5d c4          	vminsd %xmm4,%xmm0,%xmm0
    b4e5:	48 83 fa 78          	cmp    $0x78,%rdx
    b4e9:	0f 8f 71 ff ff ff    	jg     b460 <_ZN12PseudoPRTreeIiLi6EE9constructIN9__gnu_cxx17__normal_iteratorIPSt4pairIi11BoundingBoxESt6vectorIS6_SaIS6_EEEEEEvRSt10shared_ptrI16PseudoPRTreeNodeIiLi6EEET_SH_i.isra.0+0x7e0>
    b4ef:	49 39 c0             	cmp    %rax,%r8
    b4f2:	74 29                	je     b51d <_ZN12PseudoPRTreeIiLi6EE9constructIN9__gnu_cxx17__normal_iteratorIPSt4pairIi11BoundingBoxESt6vectorIS6_SaIS6_EEEEEEvRSt10shared_ptrI16PseudoPRTreeNodeIiLi6EEET_SH_i.isra.0+0x89d>
    b4f4:	66 66 2e 0f 1f 84 00 	data16 nopw %cs:0x0(%rax,%rax,1)
    b4fb:	00 00 00 00 
    b4ff:	90                   	nop
    b500:	c5 f3 5f 48 20       	vmaxsd 0x20(%rax),%xmm1,%xmm1
    b505:	c5 e3 5d 58 18       	vminsd 0x18(%rax),%xmm3,%xmm3
    b50a:	48 83 c0 28          	add    $0x28,%rax
    b50e:	c5 eb 5f 50 e8       	vmaxsd -0x18(%rax),%xmm2,%xmm2
    b513:	c5 fb 5d 40 e0       	vminsd -0x20(%rax),%xmm0,%xmm0
    b518:	49 39 c0             	cmp    %rax,%r8
    b51b:	75 e3                	jne    b500 <_ZN12PseudoPRTreeIiLi6EE9constructIN9__gnu_cxx17__normal_iteratorIPSt4pairIi11BoundingBoxESt6vectorIS6_SaIS6_EEEEEEvRSt10shared_ptrI16PseudoPRTreeNodeIiLi6EEET_SH_i.isra.0+0x880>
    b51d:	c5 e1 14 c9          	vunpcklpd %xmm1,%xmm3,%xmm1
    b521:	c5 f9 14 c2          	vunpcklpd %xmm2,%xmm0,%xmm0
    b525:	c4 e3 7d 18 c1 01    	vinsertf128 $0x1,%xmm1,%ymm0,%ymm0
    b52b:	c5 fd 11 43 08       	vmovupd %ymm0,0x8(%rbx)
    b530:	e9 2b f9 ff ff       	jmpq   ae60 <_ZN12PseudoPRTreeIiLi6EE9constructIN9__gnu_cxx17__normal_iteratorIPSt4pairIi11BoundingBoxESt6vectorIS6_SaIS6_EEEEEEvRSt10shared_ptrI16PseudoPRTreeNodeIiLi6EEET_SH_i.isra.0+0x1e0>
    b535:	48 89 f0             	mov    %rsi,%rax
    b538:	48 ba cd cc cc cc cc 	movabs $0xcccccccccccccccd,%rdx
    b53f:	cc cc cc 
    b542:	48 b9 33 33 33 33 33 	movabs $0x333333333333333,%rcx
    b549:	33 33 03 
    b54c:	48 c1 f8 03          	sar    $0x3,%rax
    b550:	48 0f af c2          	imul   %rdx,%rax
    b554:	48 39 c8             	cmp    %rcx,%rax
    b557:	0f 84 7a 02 00 00    	je     b7d7 <_ZN12PseudoPRTreeIiLi6EE9constructIN9__gnu_cxx17__normal_iteratorIPSt4pairIi11BoundingBoxESt6vectorIS6_SaIS6_EEEEEEvRSt10shared_ptrI16PseudoPRTreeNodeIiLi6EEET_SH_i.isra.0+0xb57>
    b55d:	48 85 c0             	test   %rax,%rax
    b560:	ba 01 00 00 00       	mov    $0x1,%edx
    b565:	48 0f 45 d0          	cmovne %rax,%rdx
    b569:	48 01 d0             	add    %rdx,%rax
    b56c:	0f 82 79 02 00 00    	jb     b7eb <_ZN12PseudoPRTreeIiLi6EE9constructIN9__gnu_cxx17__normal_iteratorIPSt4pairIi11BoundingBoxESt6vectorIS6_SaIS6_EEEEEEvRSt10shared_ptrI16PseudoPRTreeNodeIiLi6EEET_SH_i.isra.0+0xb6b>
    b572:	48 85 c0             	test   %rax,%rax
    b575:	0f 85 4a 01 00 00    	jne    b6c5 <_ZN12PseudoPRTreeIiLi6EE9constructIN9__gnu_cxx17__normal_iteratorIPSt4pairIi11BoundingBoxESt6vectorIS6_SaIS6_EEEEEEvRSt10shared_ptrI16PseudoPRTreeNodeIiLi6EEET_SH_i.isra.0+0xa45>
    b57b:	ba 28 00 00 00       	mov    $0x28,%edx
    b580:	45 31 ed             	xor    %r13d,%r13d
    b583:	48 c7 44 24 30 00 00 	movq   $0x0,0x30(%rsp)
    b58a:	00 00 
    b58c:	45 31 c0             	xor    %r8d,%r8d
    b58f:	c5 fb 10 54 24 18    	vmovsd 0x18(%rsp),%xmm2
    b595:	c5 fb 10 5c 24 38    	vmovsd 0x38(%rsp),%xmm3
    b59b:	48 8b 44 24 40       	mov    0x40(%rsp),%rax
    b5a0:	4c 01 c0             	add    %r8,%rax
    b5a3:	89 18                	mov    %ebx,(%rax)
    b5a5:	c5 e9 16 4c 24 10    	vmovhpd 0x10(%rsp),%xmm2,%xmm1
    b5ab:	c5 e1 16 44 24 20    	vmovhpd 0x20(%rsp),%xmm3,%xmm0
    b5b1:	c4 e3 7d 18 c1 01    	vinsertf128 $0x1,%xmm1,%ymm0,%ymm0
    b5b7:	c5 fd 11 40 08       	vmovupd %ymm0,0x8(%rax)
    b5bc:	48 8b 44 24 48       	mov    0x48(%rsp),%rax
    b5c1:	49 39 c7             	cmp    %rax,%r15
    b5c4:	0f 84 e3 01 00 00    	je     b7ad <_ZN12PseudoPRTreeIiLi6EE9constructIN9__gnu_cxx17__normal_iteratorIPSt4pairIi11BoundingBoxESt6vectorIS6_SaIS6_EEEEEEvRSt10shared_ptrI16PseudoPRTreeNodeIiLi6EEET_SH_i.isra.0+0xb2d>
    b5ca:	4c 89 c2             	mov    %r8,%rdx
    b5cd:	0f 1f 00             	nopl   (%rax)
    b5d0:	c5 fa 6f 10          	vmovdqu (%rax),%xmm2
    b5d4:	48 83 c0 28          	add    $0x28,%rax
    b5d8:	48 83 c2 28          	add    $0x28,%rdx
    b5dc:	c5 fa 7f 52 d8       	vmovdqu %xmm2,-0x28(%rdx)
    b5e1:	c5 fa 6f 58 e8       	vmovdqu -0x18(%rax),%xmm3
    b5e6:	c5 fa 7f 5a e8       	vmovdqu %xmm3,-0x18(%rdx)
    b5eb:	48 8b 48 f8          	mov    -0x8(%rax),%rcx
    b5ef:	48 89 4a f8          	mov    %rcx,-0x8(%rdx)
    b5f3:	49 39 c7             	cmp    %rax,%r15
    b5f6:	75 d8                	jne    b5d0 <_ZN12PseudoPRTreeIiLi6EE9constructIN9__gnu_cxx17__normal_iteratorIPSt4pairIi11BoundingBoxESt6vectorIS6_SaIS6_EEEEEEvRSt10shared_ptrI16PseudoPRTreeNodeIiLi6EEET_SH_i.isra.0+0x950>
    b5f8:	49 8d 47 d8          	lea    -0x28(%r15),%rax
    b5fc:	48 2b 44 24 48       	sub    0x48(%rsp),%rax
    b601:	48 ba cd cc cc cc cc 	movabs $0xccccccccccccccd,%rdx
    b608:	cc cc 0c 
    b60b:	48 c1 e8 03          	shr    $0x3,%rax
    b60f:	48 0f af c2          	imul   %rdx,%rax
    b613:	48 ba ff ff ff ff ff 	movabs $0x1fffffffffffffff,%rdx
    b61a:	ff ff 1f 
    b61d:	48 21 d0             	and    %rdx,%rax
    b620:	48 8d 44 80 05       	lea    0x5(%rax,%rax,4),%rax
    b625:	49 8d 04 c0          	lea    (%r8,%rax,8),%rax
    b629:	48 89 44 24 38       	mov    %rax,0x38(%rsp)
    b62e:	4c 8d 78 28          	lea    0x28(%rax),%r15
    b632:	48 8b 7c 24 48       	mov    0x48(%rsp),%rdi
    b637:	48 85 ff             	test   %rdi,%rdi
    b63a:	74 17                	je     b653 <_ZN12PseudoPRTreeIiLi6EE9constructIN9__gnu_cxx17__normal_iteratorIPSt4pairIi11BoundingBoxESt6vectorIS6_SaIS6_EEEEEEvRSt10shared_ptrI16PseudoPRTreeNodeIiLi6EEET_SH_i.isra.0+0x9d3>
    b63c:	48 8b 74 24 40       	mov    0x40(%rsp),%rsi
    b641:	4c 89 44 24 48       	mov    %r8,0x48(%rsp)
    b646:	c5 f8 77             	vzeroupper 
    b649:	e8 c2 6a ff ff       	callq  2110 <_ZdlPvm@plt>
    b64e:	4c 8b 44 24 48       	mov    0x48(%rsp),%r8
    b653:	4c 89 6c 24 40       	mov    %r13,0x40(%rsp)
    b658:	4c 89 44 24 48       	mov    %r8,0x48(%rsp)
    b65d:	e9 41 f7 ff ff       	jmpq   ada3 <_ZN12PseudoPRTreeIiLi6EE9constructIN9__gnu_cxx17__normal_iteratorIPSt4pairIi11BoundingBoxESt6vectorIS6_SaIS6_EEEEEEvRSt10shared_ptrI16PseudoPRTreeNodeIiLi6EEET_SH_i.isra.0+0x123>
    b662:	c5 f8 77             	vzeroupper 
    b665:	e9 7b f8 ff ff       	jmpq   aee5 <_ZN12PseudoPRTreeIiLi6EE9constructIN9__gnu_cxx17__normal_iteratorIPSt4pairIi11BoundingBoxESt6vectorIS6_SaIS6_EEEEEEvRSt10shared_ptrI16PseudoPRTreeNodeIiLi6EEET_SH_i.isra.0+0x265>
    b66a:	41 ff c6             	inc    %r14d
    b66d:	48 83 c3 40          	add    $0x40,%rbx
    b671:	41 83 fe 04          	cmp    $0x4,%r14d
    b675:	74 1d                	je     b694 <_ZN12PseudoPRTreeIiLi6EE9constructIN9__gnu_cxx17__normal_iteratorIPSt4pairIi11BoundingBoxESt6vectorIS6_SaIS6_EEEEEEvRSt10shared_ptrI16PseudoPRTreeNodeIiLi6EEET_SH_i.isra.0+0xa14>
    b677:	c5 f8 77             	vzeroupper 
    b67a:	e9 c7 fa ff ff       	jmpq   b146 <_ZN12PseudoPRTreeIiLi6EE9constructIN9__gnu_cxx17__normal_iteratorIPSt4pairIi11BoundingBoxESt6vectorIS6_SaIS6_EEEEEEvRSt10shared_ptrI16PseudoPRTreeNodeIiLi6EEET_SH_i.isra.0+0x4c6>
    b67f:	41 ff c6             	inc    %r14d
    b682:	48 83 c3 40          	add    $0x40,%rbx
    b686:	41 83 fe 04          	cmp    $0x4,%r14d
    b68a:	74 10                	je     b69c <_ZN12PseudoPRTreeIiLi6EE9constructIN9__gnu_cxx17__normal_iteratorIPSt4pairIi11BoundingBoxESt6vectorIS6_SaIS6_EEEEEEvRSt10shared_ptrI16PseudoPRTreeNodeIiLi6EEET_SH_i.isra.0+0xa1c>
    b68c:	c5 f8 77             	vzeroupper 
    b68f:	e9 19 f9 ff ff       	jmpq   afad <_ZN12PseudoPRTreeIiLi6EE9constructIN9__gnu_cxx17__normal_iteratorIPSt4pairIi11BoundingBoxESt6vectorIS6_SaIS6_EEEEEEvRSt10shared_ptrI16PseudoPRTreeNodeIiLi6EEET_SH_i.isra.0+0x32d>
    b694:	c5 f8 77             	vzeroupper 
    b697:	e9 01 fb ff ff       	jmpq   b19d <_ZN12PseudoPRTreeIiLi6EE9constructIN9__gnu_cxx17__normal_iteratorIPSt4pairIi11BoundingBoxESt6vectorIS6_SaIS6_EEEEEEvRSt10shared_ptrI16PseudoPRTreeNodeIiLi6EEET_SH_i.isra.0+0x51d>
    b69c:	c5 f8 77             	vzeroupper 
    b69f:	e9 60 f9 ff ff       	jmpq   b004 <_ZN12PseudoPRTreeIiLi6EE9constructIN9__gnu_cxx17__normal_iteratorIPSt4pairIi11BoundingBoxESt6vectorIS6_SaIS6_EEEEEEvRSt10shared_ptrI16PseudoPRTreeNodeIiLi6EEET_SH_i.isra.0+0x384>
    b6a4:	48 8b 54 24 38       	mov    0x38(%rsp),%rdx
    b6a9:	48 8d 7b 28          	lea    0x28(%rbx),%rdi
    b6ad:	4c 89 c6             	mov    %r8,%rsi
    b6b0:	c5 f8 77             	vzeroupper 
    b6b3:	e8 28 d8 ff ff       	callq  8ee0 <_ZNSt6vectorISt4pairIi11BoundingBoxESaIS2_EE17_M_realloc_insertIJRKS2_EEEvN9__gnu_cxx17__normal_iteratorIPS2_S4_EEDpOT_>
    b6b8:	48 8b 43 28          	mov    0x28(%rbx),%rax
    b6bc:	4c 8b 43 30          	mov    0x30(%rbx),%r8
    b6c0:	e9 0d fc ff ff       	jmpq   b2d2 <_ZN12PseudoPRTreeIiLi6EE9constructIN9__gnu_cxx17__normal_iteratorIPSt4pairIi11BoundingBoxESt6vectorIS6_SaIS6_EEEEEEvRSt10shared_ptrI16PseudoPRTreeNodeIiLi6EEET_SH_i.isra.0+0x652>
    b6c5:	48 39 c8             	cmp    %rcx,%rax
    b6c8:	48 0f 47 c1          	cmova  %rcx,%rax
    b6cc:	4c 8d 2c 80          	lea    (%rax,%rax,4),%r13
    b6d0:	49 c1 e5 03          	shl    $0x3,%r13
    b6d4:	4c 89 ef             	mov    %r13,%rdi
    b6d7:	c5 f8 77             	vzeroupper 
    b6da:	e8 21 6a ff ff       	callq  2100 <_Znwm@plt>
    b6df:	49 89 c0             	mov    %rax,%r8
    b6e2:	4c 01 e8             	add    %r13,%rax
    b6e5:	48 89 44 24 30       	mov    %rax,0x30(%rsp)
    b6ea:	49 8d 50 28          	lea    0x28(%r8),%rdx
    b6ee:	e9 9c fe ff ff       	jmpq   b58f <_ZN12PseudoPRTreeIiLi6EE9constructIN9__gnu_cxx17__normal_iteratorIPSt4pairIi11BoundingBoxESt6vectorIS6_SaIS6_EEEEEEvRSt10shared_ptrI16PseudoPRTreeNodeIiLi6EEET_SH_i.isra.0+0x90f>
    b6f3:	48 8d 1c 80          	lea    (%rax,%rax,4),%rbx
    b6f7:	48 c1 e3 03          	shl    $0x3,%rbx
    b6fb:	48 89 df             	mov    %rbx,%rdi
    b6fe:	e8 fd 69 ff ff       	callq  2100 <_Znwm@plt>
    b703:	48 8d 34 18          	lea    (%rax,%rbx,1),%rsi
    b707:	49 89 c7             	mov    %rax,%r15
    b70a:	48 89 5c 24 40       	mov    %rbx,0x40(%rsp)
    b70f:	48 89 74 24 30       	mov    %rsi,0x30(%rsp)
    b714:	4c 39 64 24 28       	cmp    %r12,0x28(%rsp)
    b719:	0f 85 03 f6 ff ff    	jne    ad22 <_ZN12PseudoPRTreeIiLi6EE9constructIN9__gnu_cxx17__normal_iteratorIPSt4pairIi11BoundingBoxESt6vectorIS6_SaIS6_EEEEEEvRSt10shared_ptrI16PseudoPRTreeNodeIiLi6EEET_SH_i.isra.0+0xa2>
    b71f:	48 89 44 24 48       	mov    %rax,0x48(%rsp)
    b724:	e9 e8 fa ff ff       	jmpq   b211 <_ZN12PseudoPRTreeIiLi6EE9constructIN9__gnu_cxx17__normal_iteratorIPSt4pairIi11BoundingBoxESt6vectorIS6_SaIS6_EEEEEEvRSt10shared_ptrI16PseudoPRTreeNodeIiLi6EEET_SH_i.isra.0+0x591>
    b729:	49 8b 06             	mov    (%r14),%rax
    b72c:	4c 89 f7             	mov    %r14,%rdi
    b72f:	ff 50 10             	callq  *0x10(%rax)
    b732:	48 85 db             	test   %rbx,%rbx
    b735:	0f 85 8c 00 00 00    	jne    b7c7 <_ZN12PseudoPRTreeIiLi6EE9constructIN9__gnu_cxx17__normal_iteratorIPSt4pairIi11BoundingBoxESt6vectorIS6_SaIS6_EEEEEEvRSt10shared_ptrI16PseudoPRTreeNodeIiLi6EEET_SH_i.isra.0+0xb47>
    b73b:	41 8b 46 0c          	mov    0xc(%r14),%eax
    b73f:	8d 50 ff             	lea    -0x1(%rax),%edx
    b742:	41 89 56 0c          	mov    %edx,0xc(%r14)
    b746:	83 f8 01             	cmp    $0x1,%eax
    b749:	0f 85 9a fa ff ff    	jne    b1e9 <_ZN12PseudoPRTreeIiLi6EE9constructIN9__gnu_cxx17__normal_iteratorIPSt4pairIi11BoundingBoxESt6vectorIS6_SaIS6_EEEEEEvRSt10shared_ptrI16PseudoPRTreeNodeIiLi6EEET_SH_i.isra.0+0x569>
    b74f:	49 8b 06             	mov    (%r14),%rax
    b752:	4c 89 f7             	mov    %r14,%rdi
    b755:	ff 50 18             	callq  *0x18(%rax)
    b758:	e9 8c fa ff ff       	jmpq   b1e9 <_ZN12PseudoPRTreeIiLi6EE9constructIN9__gnu_cxx17__normal_iteratorIPSt4pairIi11BoundingBoxESt6vectorIS6_SaIS6_EEEEEEvRSt10shared_ptrI16PseudoPRTreeNodeIiLi6EEET_SH_i.isra.0+0x569>
    b75d:	49 8b 06             	mov    (%r14),%rax
    b760:	4c 89 f7             	mov    %r14,%rdi
    b763:	ff 50 10             	callq  *0x10(%rax)
    b766:	48 85 db             	test   %rbx,%rbx
    b769:	75 4f                	jne    b7ba <_ZN12PseudoPRTreeIiLi6EE9constructIN9__gnu_cxx17__normal_iteratorIPSt4pairIi11BoundingBoxESt6vectorIS6_SaIS6_EEEEEEvRSt10shared_ptrI16PseudoPRTreeNodeIiLi6EEET_SH_i.isra.0+0xb3a>
    b76b:	41 8b 46 0c          	mov    0xc(%r14),%eax
    b76f:	8d 50 ff             	lea    -0x1(%rax),%edx
    b772:	41 89 56 0c          	mov    %edx,0xc(%r14)
    b776:	83 f8 01             	cmp    $0x1,%eax
    b779:	0f 85 d1 f8 ff ff    	jne    b050 <_ZN12PseudoPRTreeIiLi6EE9constructIN9__gnu_cxx17__normal_iteratorIPSt4pairIi11BoundingBoxESt6vectorIS6_SaIS6_EEEEEEvRSt10shared_ptrI16PseudoPRTreeNodeIiLi6EEET_SH_i.isra.0+0x3d0>
    b77f:	49 8b 06             	mov    (%r14),%rax
    b782:	4c 89 f7             	mov    %r14,%rdi
    b785:	ff 50 18             	callq  *0x18(%rax)
    b788:	e9 c3 f8 ff ff       	jmpq   b050 <_ZN12PseudoPRTreeIiLi6EE9constructIN9__gnu_cxx17__normal_iteratorIPSt4pairIi11BoundingBoxESt6vectorIS6_SaIS6_EEEEEEvRSt10shared_ptrI16PseudoPRTreeNodeIiLi6EEET_SH_i.isra.0+0x3d0>
    b78d:	b8 ff ff ff ff       	mov    $0xffffffff,%eax
    b792:	f0 41 0f c1 46 08    	lock xadd %eax,0x8(%r14)
    b798:	e9 43 fa ff ff       	jmpq   b1e0 <_ZN12PseudoPRTreeIiLi6EE9constructIN9__gnu_cxx17__normal_iteratorIPSt4pairIi11BoundingBoxESt6vectorIS6_SaIS6_EEEEEEvRSt10shared_ptrI16PseudoPRTreeNodeIiLi6EEET_SH_i.isra.0+0x560>
    b79d:	b8 ff ff ff ff       	mov    $0xffffffff,%eax
    b7a2:	f0 41 0f c1 46 08    	lock xadd %eax,0x8(%r14)
    b7a8:	e9 9a f8 ff ff       	jmpq   b047 <_ZN12PseudoPRTreeIiLi6EE9constructIN9__gnu_cxx17__normal_iteratorIPSt4pairIi11BoundingBoxESt6vectorIS6_SaIS6_EEEEEEvRSt10shared_ptrI16PseudoPRTreeNodeIiLi6EEET_SH_i.isra.0+0x3c7>
    b7ad:	49 89 d7             	mov    %rdx,%r15
    b7b0:	4c 89 44 24 38       	mov    %r8,0x38(%rsp)
    b7b5:	e9 78 fe ff ff       	jmpq   b632 <_ZN12PseudoPRTreeIiLi6EE9constructIN9__gnu_cxx17__normal_iteratorIPSt4pairIi11BoundingBoxESt6vectorIS6_SaIS6_EEEEEEvRSt10shared_ptrI16PseudoPRTreeNodeIiLi6EEET_SH_i.isra.0+0x9b2>
    b7ba:	b8 ff ff ff ff       	mov    $0xffffffff,%eax
    b7bf:	f0 41 0f c1 46 0c    	lock xadd %eax,0xc(%r14)
    b7c5:	eb af                	jmp    b776 <_ZN12PseudoPRTreeIiLi6EE9constructIN9__gnu_cxx17__normal_iteratorIPSt4pairIi11BoundingBoxESt6vectorIS6_SaIS6_EEEEEEvRSt10shared_ptrI16PseudoPRTreeNodeIiLi6EEET_SH_i.isra.0+0xaf6>
    b7c7:	b8 ff ff ff ff       	mov    $0xffffffff,%eax
    b7cc:	f0 41 0f c1 46 0c    	lock xadd %eax,0xc(%r14)
    b7d2:	e9 6f ff ff ff       	jmpq   b746 <_ZN12PseudoPRTreeIiLi6EE9constructIN9__gnu_cxx17__normal_iteratorIPSt4pairIi11BoundingBoxESt6vectorIS6_SaIS6_EEEEEEvRSt10shared_ptrI16PseudoPRTreeNodeIiLi6EEET_SH_i.isra.0+0xac6>
    b7d7:	48 8d 3d 5a 48 00 00 	lea    0x485a(%rip),%rdi        # 10038 <_IO_stdin_used+0x38>
    b7de:	c5 f8 77             	vzeroupper 
    b7e1:	e8 aa 68 ff ff       	callq  2090 <_ZSt20__throw_length_errorPKc@plt>
    b7e6:	e8 35 69 ff ff       	callq  2120 <__stack_chk_fail@plt>
    b7eb:	49 bd f8 ff ff ff ff 	movabs $0x7ffffffffffffff8,%r13
    b7f2:	ff ff 7f 
    b7f5:	e9 da fe ff ff       	jmpq   b6d4 <_ZN12PseudoPRTreeIiLi6EE9constructIN9__gnu_cxx17__normal_iteratorIPSt4pairIi11BoundingBoxESt6vectorIS6_SaIS6_EEEEEEvRSt10shared_ptrI16PseudoPRTreeNodeIiLi6EEET_SH_i.isra.0+0xa54>
    b7fa:	48 8d 3d 69 48 00 00 	lea    0x4869(%rip),%rdi        # 1006a <_IO_stdin_used+0x6a>
    b801:	e8 8a 68 ff ff       	callq  2090 <_ZSt20__throw_length_errorPKc@plt>
    b806:	49 89 c4             	mov    %rax,%r12
    b809:	eb 11                	jmp    b81c <_ZN12PseudoPRTreeIiLi6EE9constructIN9__gnu_cxx17__normal_iteratorIPSt4pairIi11BoundingBoxESt6vectorIS6_SaIS6_EEEEEEvRSt10shared_ptrI16PseudoPRTreeNodeIiLi6EEET_SH_i.isra.0+0xb9c>
    b80b:	49 89 c4             	mov    %rax,%r12
    b80e:	eb 77                	jmp    b887 <_ZN12PseudoPRTreeIiLi6EE9constructIN9__gnu_cxx17__normal_iteratorIPSt4pairIi11BoundingBoxESt6vectorIS6_SaIS6_EEEEEEvRSt10shared_ptrI16PseudoPRTreeNodeIiLi6EEET_SH_i.isra.0+0xc07>
    b810:	48 89 c3             	mov    %rax,%rbx
    b813:	eb 4b                	jmp    b860 <_ZN12PseudoPRTreeIiLi6EE9constructIN9__gnu_cxx17__normal_iteratorIPSt4pairIi11BoundingBoxESt6vectorIS6_SaIS6_EEEEEEvRSt10shared_ptrI16PseudoPRTreeNodeIiLi6EEET_SH_i.isra.0+0xbe0>
    b815:	48 89 c3             	mov    %rax,%rbx
    b818:	eb 0d                	jmp    b827 <_ZN12PseudoPRTreeIiLi6EE9constructIN9__gnu_cxx17__normal_iteratorIPSt4pairIi11BoundingBoxESt6vectorIS6_SaIS6_EEEEEEvRSt10shared_ptrI16PseudoPRTreeNodeIiLi6EEET_SH_i.isra.0+0xba7>
    b81a:	eb f9                	jmp    b815 <_ZN12PseudoPRTreeIiLi6EE9constructIN9__gnu_cxx17__normal_iteratorIPSt4pairIi11BoundingBoxESt6vectorIS6_SaIS6_EEEEEEvRSt10shared_ptrI16PseudoPRTreeNodeIiLi6EEET_SH_i.isra.0+0xb95>
    b81c:	c5 f8 77             	vzeroupper 
    b81f:	4c 89 e7             	mov    %r12,%rdi
    b822:	e8 c9 69 ff ff       	callq  21f0 <_Unwind_Resume@plt>
    b827:	49 8b bc 24 28 01 00 	mov    0x128(%r12),%rdi
    b82e:	00 
    b82f:	48 85 ff             	test   %rdi,%rdi
    b832:	74 75                	je     b8a9 <_ZN12PseudoPRTreeIiLi6EE9constructIN9__gnu_cxx17__normal_iteratorIPSt4pairIi11BoundingBoxESt6vectorIS6_SaIS6_EEEEEEvRSt10shared_ptrI16PseudoPRTreeNodeIiLi6EEET_SH_i.isra.0+0xc29>
    b834:	c5 f8 77             	vzeroupper 
    b837:	e8 24 a0 ff ff       	callq  5860 <_ZNSt16_Sp_counted_baseILN9__gnu_cxx12_Lock_policyE2EE10_M_releaseEv>
    b83c:	49 8b bc 24 18 01 00 	mov    0x118(%r12),%rdi
    b843:	00 
    b844:	48 85 ff             	test   %rdi,%rdi
    b847:	75 65                	jne    b8ae <_ZN12PseudoPRTreeIiLi6EE9constructIN9__gnu_cxx17__normal_iteratorIPSt4pairIi11BoundingBoxESt6vectorIS6_SaIS6_EEEEEEvRSt10shared_ptrI16PseudoPRTreeNodeIiLi6EEET_SH_i.isra.0+0xc2e>
    b849:	48 8b 7c 24 38       	mov    0x38(%rsp),%rdi
    b84e:	e8 0d f2 ff ff       	callq  aa60 <_ZNSt5arrayI4LeafIiLi6EELm4EED1Ev>
    b853:	be 30 01 00 00       	mov    $0x130,%esi
    b858:	4c 89 e7             	mov    %r12,%rdi
    b85b:	e8 b0 68 ff ff       	callq  2110 <_ZdlPvm@plt>
    b860:	48 83 7c 24 48 00    	cmpq   $0x0,0x48(%rsp)
    b866:	74 1a                	je     b882 <_ZN12PseudoPRTreeIiLi6EE9constructIN9__gnu_cxx17__normal_iteratorIPSt4pairIi11BoundingBoxESt6vectorIS6_SaIS6_EEEEEEvRSt10shared_ptrI16PseudoPRTreeNodeIiLi6EEET_SH_i.isra.0+0xc02>
    b868:	48 8b 74 24 40       	mov    0x40(%rsp),%rsi
    b86d:	48 8b 7c 24 48       	mov    0x48(%rsp),%rdi
    b872:	c5 f8 77             	vzeroupper 
    b875:	e8 96 68 ff ff       	callq  2110 <_ZdlPvm@plt>
    b87a:	48 89 df             	mov    %rbx,%rdi
    b87d:	e8 6e 69 ff ff       	callq  21f0 <_Unwind_Resume@plt>
    b882:	c5 f8 77             	vzeroupper 
    b885:	eb f3                	jmp    b87a <_ZN12PseudoPRTreeIiLi6EE9constructIN9__gnu_cxx17__normal_iteratorIPSt4pairIi11BoundingBoxESt6vectorIS6_SaIS6_EEEEEEvRSt10shared_ptrI16PseudoPRTreeNodeIiLi6EEET_SH_i.isra.0+0xbfa>
    b887:	48 8b 74 24 30       	mov    0x30(%rsp),%rsi
    b88c:	48 8b 44 24 48       	mov    0x48(%rsp),%rax
    b891:	48 29 c6             	sub    %rax,%rsi
    b894:	48 85 c0             	test   %rax,%rax
    b897:	74 83                	je     b81c <_ZN12PseudoPRTreeIiLi6EE9constructIN9__gnu_cxx17__normal_iteratorIPSt4pairIi11BoundingBoxESt6vectorIS6_SaIS6_EEEEEEvRSt10shared_ptrI16PseudoPRTreeNodeIiLi6EEET_SH_i.isra.0+0xb9c>
    b899:	48 89 c7             	mov    %rax,%rdi
    b89c:	c5 f8 77             	vzeroupper 
    b89f:	e8 6c 68 ff ff       	callq  2110 <_ZdlPvm@plt>
    b8a4:	e9 76 ff ff ff       	jmpq   b81f <_ZN12PseudoPRTreeIiLi6EE9constructIN9__gnu_cxx17__normal_iteratorIPSt4pairIi11BoundingBoxESt6vectorIS6_SaIS6_EEEEEEvRSt10shared_ptrI16PseudoPRTreeNodeIiLi6EEET_SH_i.isra.0+0xb9f>
    b8a9:	c5 f8 77             	vzeroupper 
    b8ac:	eb 8e                	jmp    b83c <_ZN12PseudoPRTreeIiLi6EE9constructIN9__gnu_cxx17__normal_iteratorIPSt4pairIi11BoundingBoxESt6vectorIS6_SaIS6_EEEEEEvRSt10shared_ptrI16PseudoPRTreeNodeIiLi6EEET_SH_i.isra.0+0xbbc>
    b8ae:	e8 ad 9f ff ff       	callq  5860 <_ZNSt16_Sp_counted_baseILN9__gnu_cxx12_Lock_policyE2EE10_M_releaseEv>
    b8b3:	eb 94                	jmp    b849 <_ZN12PseudoPRTreeIiLi6EE9constructIN9__gnu_cxx17__normal_iteratorIPSt4pairIi11BoundingBoxESt6vectorIS6_SaIS6_EEEEEEvRSt10shared_ptrI16PseudoPRTreeNodeIiLi6EEET_SH_i.isra.0+0xbc9>
    b8b5:	66 2e 0f 1f 84 00 00 	nopw   %cs:0x0(%rax,%rax,1)
    b8bc:	00 00 00 
    b8bf:	90                   	nop

000000000000b8c0 <_ZNSt5arrayI4LeafIdLi6EELm4EED1Ev>:
    b8c0:	55                   	push   %rbp
    b8c1:	53                   	push   %rbx
    b8c2:	48 8d 9f c0 00 00 00 	lea    0xc0(%rdi),%rbx
    b8c9:	48 89 fd             	mov    %rdi,%rbp
    b8cc:	48 83 ec 08          	sub    $0x8,%rsp
    b8d0:	48 8b 7b 28          	mov    0x28(%rbx),%rdi
    b8d4:	48 85 ff             	test   %rdi,%rdi
    b8d7:	74 21                	je     b8fa <_ZNSt5arrayI4LeafIdLi6EELm4EED1Ev+0x3a>
    b8d9:	48 8b 73 38          	mov    0x38(%rbx),%rsi
    b8dd:	48 29 fe             	sub    %rdi,%rsi
    b8e0:	e8 2b 68 ff ff       	callq  2110 <_ZdlPvm@plt>
    b8e5:	48 8d 43 c0          	lea    -0x40(%rbx),%rax
    b8e9:	48 39 eb             	cmp    %rbp,%rbx
    b8ec:	74 15                	je     b903 <_ZNSt5arrayI4LeafIdLi6EELm4EED1Ev+0x43>
    b8ee:	48 89 c3             	mov    %rax,%rbx
    b8f1:	48 8b 7b 28          	mov    0x28(%rbx),%rdi
    b8f5:	48 85 ff             	test   %rdi,%rdi
    b8f8:	75 df                	jne    b8d9 <_ZNSt5arrayI4LeafIdLi6EELm4EED1Ev+0x19>
    b8fa:	48 8d 43 c0          	lea    -0x40(%rbx),%rax
    b8fe:	48 39 eb             	cmp    %rbp,%rbx
    b901:	75 eb                	jne    b8ee <_ZNSt5arrayI4LeafIdLi6EELm4EED1Ev+0x2e>
    b903:	48 83 c4 08          	add    $0x8,%rsp
    b907:	5b                   	pop    %rbx
    b908:	5d                   	pop    %rbp
    b909:	c3                   	retq   
    b90a:	66 0f 1f 44 00 00    	nopw   0x0(%rax,%rax,1)

000000000000b910 <_ZN12PseudoPRTreeIdLi6EE9constructIN9__gnu_cxx17__normal_iteratorIPSt4pairId11BoundingBoxESt6vectorIS6_SaIS6_EEEEEEvRSt10shared_ptrI16PseudoPRTreeNodeIdLi6EEET_SH_i.isra.0>:
    b910:	55                   	push   %rbp
    b911:	48 89 e5             	mov    %rsp,%rbp
    b914:	41 57                	push   %r15
    b916:	41 56                	push   %r14
    b918:	41 55                	push   %r13
    b91a:	41 54                	push   %r12
    b91c:	49 89 f4             	mov    %rsi,%r12
    b91f:	53                   	push   %rbx
    b920:	48 83 e4 e0          	and    $0xffffffffffffffe0,%rsp
    b924:	48 83 ec 60          	sub    $0x60,%rsp
    b928:	48 89 7c 24 08       	mov    %rdi,0x8(%rsp)
    b92d:	48 89 54 24 28       	mov    %rdx,0x28(%rsp)
    b932:	89 4c 24 04          	mov    %ecx,0x4(%rsp)
    b936:	64 48 8b 04 25 28 00 	mov    %fs:0x28,%rax
    b93d:	00 00 
    b93f:	48 89 44 24 58       	mov    %rax,0x58(%rsp)
    b944:	48 89 d0             	mov    %rdx,%rax
    b947:	48 29 f0             	sub    %rsi,%rax
    b94a:	48 85 c0             	test   %rax,%rax
    b94d:	0f 8e 5d 05 00 00    	jle    beb0 <_ZN12PseudoPRTreeIdLi6EE9constructIN9__gnu_cxx17__normal_iteratorIPSt4pairId11BoundingBoxESt6vectorIS6_SaIS6_EEEEEEvRSt10shared_ptrI16PseudoPRTreeNodeIdLi6EEET_SH_i.isra.0+0x5a0>
    b953:	4c 8b 37             	mov    (%rdi),%r14
    b956:	4d 85 f6             	test   %r14,%r14
    b959:	0f 84 51 05 00 00    	je     beb0 <_ZN12PseudoPRTreeIdLi6EE9constructIN9__gnu_cxx17__normal_iteratorIPSt4pairId11BoundingBoxESt6vectorIS6_SaIS6_EEEEEEvRSt10shared_ptrI16PseudoPRTreeNodeIdLi6EEET_SH_i.isra.0+0x5a0>
    b95f:	89 ce                	mov    %ecx,%esi
    b961:	c1 f9 1f             	sar    $0x1f,%ecx
    b964:	48 c1 f8 03          	sar    $0x3,%rax
    b968:	c1 e9 1e             	shr    $0x1e,%ecx
    b96b:	69 c0 cd cc cc cc    	imul   $0xcccccccd,%eax,%eax
    b971:	8d 14 0e             	lea    (%rsi,%rcx,1),%edx
    b974:	83 e2 03             	and    $0x3,%edx
    b977:	29 ca                	sub    %ecx,%edx
    b979:	48 98                	cltq   
    b97b:	89 54 24 54          	mov    %edx,0x54(%rsp)
    b97f:	48 ba 33 33 33 33 33 	movabs $0x333333333333333,%rdx
    b986:	33 33 03 
    b989:	48 39 d0             	cmp    %rdx,%rax
    b98c:	0f 87 08 0b 00 00    	ja     c49a <_ZN12PseudoPRTreeIdLi6EE9constructIN9__gnu_cxx17__normal_iteratorIPSt4pairId11BoundingBoxESt6vectorIS6_SaIS6_EEEEEEvRSt10shared_ptrI16PseudoPRTreeNodeIdLi6EEET_SH_i.isra.0+0xb8a>
    b992:	48 85 c0             	test   %rax,%rax
    b995:	0f 85 f8 09 00 00    	jne    c393 <_ZN12PseudoPRTreeIdLi6EE9constructIN9__gnu_cxx17__normal_iteratorIPSt4pairId11BoundingBoxESt6vectorIS6_SaIS6_EEEEEEvRSt10shared_ptrI16PseudoPRTreeNodeIdLi6EEET_SH_i.isra.0+0xa83>
    b99b:	45 31 ff             	xor    %r15d,%r15d
    b99e:	48 c7 44 24 30 00 00 	movq   $0x0,0x30(%rsp)
    b9a5:	00 00 
    b9a7:	4c 39 64 24 28       	cmp    %r12,0x28(%rsp)
    b9ac:	0f 84 fe 04 00 00    	je     beb0 <_ZN12PseudoPRTreeIdLi6EE9constructIN9__gnu_cxx17__normal_iteratorIPSt4pairId11BoundingBoxESt6vectorIS6_SaIS6_EEEEEEvRSt10shared_ptrI16PseudoPRTreeNodeIdLi6EEET_SH_i.isra.0+0x5a0>
    b9b2:	4c 89 7c 24 48       	mov    %r15,0x48(%rsp)
    b9b7:	66 0f 1f 84 00 00 00 	nopw   0x0(%rax,%rax,1)
    b9be:	00 00 
    b9c0:	48 8b 44 24 30       	mov    0x30(%rsp),%rax
    b9c5:	c4 c1 7b 10 54 24 08 	vmovsd 0x8(%r12),%xmm2
    b9cc:	c4 c1 7b 10 5c 24 10 	vmovsd 0x10(%r12),%xmm3
    b9d3:	c4 c1 7b 10 6c 24 18 	vmovsd 0x18(%r12),%xmm5
    b9da:	c4 c1 7b 10 74 24 20 	vmovsd 0x20(%r12),%xmm6
    b9e1:	4d 8b 2c 24          	mov    (%r12),%r13
    b9e5:	48 89 c6             	mov    %rax,%rsi
    b9e8:	48 2b 74 24 48       	sub    0x48(%rsp),%rsi
    b9ed:	c5 fb 11 54 24 38    	vmovsd %xmm2,0x38(%rsp)
    b9f3:	c5 fb 11 5c 24 20    	vmovsd %xmm3,0x20(%rsp)
    b9f9:	48 89 74 24 40       	mov    %rsi,0x40(%rsp)
    b9fe:	c5 fb 11 6c 24 18    	vmovsd %xmm5,0x18(%rsp)
    ba04:	c5 fb 11 74 24 10    	vmovsd %xmm6,0x10(%rsp)
    ba0a:	49 39 c7             	cmp    %rax,%r15
    ba0d:	0f 84 b2 07 00 00    	je     c1c5 <_ZN12PseudoPRTreeIdLi6EE9constructIN9__gnu_cxx17__normal_iteratorIPSt4pairId11BoundingBoxESt6vectorIS6_SaIS6_EEEEEEvRSt10shared_ptrI16PseudoPRTreeNodeIdLi6EEET_SH_i.isra.0+0x8b5>
    ba13:	c5 e1 14 cd          	vunpcklpd %xmm5,%xmm3,%xmm1
    ba17:	c4 c1 f9 6e dd       	vmovq  %r13,%xmm3
    ba1c:	c4 c1 7b 11 77 20    	vmovsd %xmm6,0x20(%r15)
    ba22:	4c 89 7c 24 38       	mov    %r15,0x38(%rsp)
    ba27:	c5 e1 14 c2          	vunpcklpd %xmm2,%xmm3,%xmm0
    ba2b:	49 83 c7 28          	add    $0x28,%r15
    ba2f:	c4 e3 7d 18 c1 01    	vinsertf128 $0x1,%xmm1,%ymm0,%ymm0
    ba35:	c4 c1 7d 11 47 d8    	vmovupd %ymm0,-0x28(%r15)
    ba3b:	c5 fa 7e 2d 9d 48 00 	vmovq  0x489d(%rip),%xmm5        # 102e0 <_ZZNSt19_Sp_make_shared_tag5_S_tiEvE5__tag+0xe0>
    ba42:	00 
    ba43:	4c 89 f3             	mov    %r14,%rbx
    ba46:	4d 8d ae 00 01 00 00 	lea    0x100(%r14),%r13
    ba4d:	49 bb cd cc cc cc cc 	movabs $0xcccccccccccccccd,%r11
    ba54:	cc cc cc 
    ba57:	4c 8b 43 30          	mov    0x30(%rbx),%r8
    ba5b:	48 8b 43 28          	mov    0x28(%rbx),%rax
    ba5f:	4d 89 c1             	mov    %r8,%r9
    ba62:	49 29 c1             	sub    %rax,%r9
    ba65:	49 81 f9 c8 00 00 00 	cmp    $0xc8,%r9
    ba6c:	0f 86 be 04 00 00    	jbe    bf30 <_ZN12PseudoPRTreeIdLi6EE9constructIN9__gnu_cxx17__normal_iteratorIPSt4pairId11BoundingBoxESt6vectorIS6_SaIS6_EEEEEEvRSt10shared_ptrI16PseudoPRTreeNodeIdLi6EEET_SH_i.isra.0+0x620>
    ba72:	4c 89 ca             	mov    %r9,%rdx
    ba75:	48 89 c7             	mov    %rax,%rdi
    ba78:	48 c1 fa 03          	sar    $0x3,%rdx
    ba7c:	49 0f af d3          	imul   %r11,%rdx
    ba80:	48 85 d2             	test   %rdx,%rdx
    ba83:	7e 62                	jle    bae7 <_ZN12PseudoPRTreeIdLi6EE9constructIN9__gnu_cxx17__normal_iteratorIPSt4pairId11BoundingBoxESt6vectorIS6_SaIS6_EEEEEEvRSt10shared_ptrI16PseudoPRTreeNodeIdLi6EEET_SH_i.isra.0+0x1d7>
    ba85:	44 8b 13             	mov    (%rbx),%r10d
    ba88:	48 89 d6             	mov    %rdx,%rsi
    ba8b:	48 d1 fe             	sar    %rsi
    ba8e:	48 8d 0c b6          	lea    (%rsi,%rsi,4),%rcx
    ba92:	48 8d 0c cf          	lea    (%rdi,%rcx,8),%rcx
    ba96:	45 85 d2             	test   %r10d,%r10d
    ba99:	0f 84 51 04 00 00    	je     bef0 <_ZN12PseudoPRTreeIdLi6EE9constructIN9__gnu_cxx17__normal_iteratorIPSt4pairId11BoundingBoxESt6vectorIS6_SaIS6_EEEEEEvRSt10shared_ptrI16PseudoPRTreeNodeIdLi6EEET_SH_i.isra.0+0x5e0>
    ba9f:	41 83 fa 01          	cmp    $0x1,%r10d
    baa3:	0f 84 67 04 00 00    	je     bf10 <_ZN12PseudoPRTreeIdLi6EE9constructIN9__gnu_cxx17__normal_iteratorIPSt4pairId11BoundingBoxESt6vectorIS6_SaIS6_EEEEEEvRSt10shared_ptrI16PseudoPRTreeNodeIdLi6EEET_SH_i.isra.0+0x600>
    baa9:	41 83 fa 02          	cmp    $0x2,%r10d
    baad:	0f 84 4d 04 00 00    	je     bf00 <_ZN12PseudoPRTreeIdLi6EE9constructIN9__gnu_cxx17__normal_iteratorIPSt4pairId11BoundingBoxESt6vectorIS6_SaIS6_EEEEEEvRSt10shared_ptrI16PseudoPRTreeNodeIdLi6EEET_SH_i.isra.0+0x5f0>
    bab3:	c4 c1 7b 10 47 f8    	vmovsd -0x8(%r15),%xmm0
    bab9:	c5 fb 10 49 20       	vmovsd 0x20(%rcx),%xmm1
    babe:	c5 f9 57 05 1a 48 00 	vxorpd 0x481a(%rip),%xmm0,%xmm0        # 102e0 <_ZZNSt19_Sp_make_shared_tag5_S_tiEvE5__tag+0xe0>
    bac5:	00 
    bac6:	c5 f1 57 0d 12 48 00 	vxorpd 0x4812(%rip),%xmm1,%xmm1        # 102e0 <_ZZNSt19_Sp_make_shared_tag5_S_tiEvE5__tag+0xe0>
    bacd:	00 
    bace:	c5 f9 2f c8          	vcomisd %xmm0,%xmm1
    bad2:	0f 87 08 04 00 00    	ja     bee0 <_ZN12PseudoPRTreeIdLi6EE9constructIN9__gnu_cxx17__normal_iteratorIPSt4pairId11BoundingBoxESt6vectorIS6_SaIS6_EEEEEEvRSt10shared_ptrI16PseudoPRTreeNodeIdLi6EEET_SH_i.isra.0+0x5d0>
    bad8:	48 29 f2             	sub    %rsi,%rdx
    badb:	48 8d 79 28          	lea    0x28(%rcx),%rdi
    badf:	48 ff ca             	dec    %rdx
    bae2:	48 85 d2             	test   %rdx,%rdx
    bae5:	7f 9e                	jg     ba85 <_ZN12PseudoPRTreeIdLi6EE9constructIN9__gnu_cxx17__normal_iteratorIPSt4pairId11BoundingBoxESt6vectorIS6_SaIS6_EEEEEEvRSt10shared_ptrI16PseudoPRTreeNodeIdLi6EEET_SH_i.isra.0+0x175>
    bae7:	49 39 f8             	cmp    %rdi,%r8
    baea:	0f 85 90 05 00 00    	jne    c080 <_ZN12PseudoPRTreeIdLi6EE9constructIN9__gnu_cxx17__normal_iteratorIPSt4pairId11BoundingBoxESt6vectorIS6_SaIS6_EEEEEEvRSt10shared_ptrI16PseudoPRTreeNodeIdLi6EEET_SH_i.isra.0+0x770>
    baf0:	48 83 c3 40          	add    $0x40,%rbx
    baf4:	49 39 dd             	cmp    %rbx,%r13
    baf7:	0f 85 5a ff ff ff    	jne    ba57 <_ZN12PseudoPRTreeIdLi6EE9constructIN9__gnu_cxx17__normal_iteratorIPSt4pairId11BoundingBoxESt6vectorIS6_SaIS6_EEEEEEvRSt10shared_ptrI16PseudoPRTreeNodeIdLi6EEET_SH_i.isra.0+0x147>
    bafd:	49 83 c4 28          	add    $0x28,%r12
    bb01:	4c 39 64 24 28       	cmp    %r12,0x28(%rsp)
    bb06:	0f 85 b4 fe ff ff    	jne    b9c0 <_ZN12PseudoPRTreeIdLi6EE9constructIN9__gnu_cxx17__normal_iteratorIPSt4pairId11BoundingBoxESt6vectorIS6_SaIS6_EEEEEEvRSt10shared_ptrI16PseudoPRTreeNodeIdLi6EEET_SH_i.isra.0+0xb0>
    bb0c:	48 8b 74 24 48       	mov    0x48(%rsp),%rsi
    bb11:	4c 89 f8             	mov    %r15,%rax
    bb14:	48 ba cd cc cc cc cc 	movabs $0xcccccccccccccccd,%rdx
    bb1b:	cc cc cc 
    bb1e:	48 29 f0             	sub    %rsi,%rax
    bb21:	48 c1 f8 03          	sar    $0x3,%rax
    bb25:	48 0f af c2          	imul   %rdx,%rax
    bb29:	48 89 c2             	mov    %rax,%rdx
    bb2c:	48 d1 ea             	shr    %rdx
    bb2f:	48 8d 1c 92          	lea    (%rdx,%rdx,4),%rbx
    bb33:	48 c1 e3 03          	shl    $0x3,%rbx
    bb37:	4c 8d 2c 1e          	lea    (%rsi,%rbx,1),%r13
    bb3b:	4d 39 fd             	cmp    %r15,%r13
    bb3e:	0f 84 be 07 00 00    	je     c302 <_ZN12PseudoPRTreeIdLi6EE9constructIN9__gnu_cxx17__normal_iteratorIPSt4pairId11BoundingBoxESt6vectorIS6_SaIS6_EEEEEEvRSt10shared_ptrI16PseudoPRTreeNodeIdLi6EEET_SH_i.isra.0+0x9f2>
    bb44:	49 39 f7             	cmp    %rsi,%r15
    bb47:	0f 84 b5 07 00 00    	je     c302 <_ZN12PseudoPRTreeIdLi6EE9constructIN9__gnu_cxx17__normal_iteratorIPSt4pairId11BoundingBoxESt6vectorIS6_SaIS6_EEEEEEvRSt10shared_ptrI16PseudoPRTreeNodeIdLi6EEET_SH_i.isra.0+0x9f2>
    bb4d:	f3 48 0f bd c0       	lzcnt  %rax,%rax
    bb52:	b9 3f 00 00 00       	mov    $0x3f,%ecx
    bb57:	48 89 f7             	mov    %rsi,%rdi
    bb5a:	4c 8d 44 24 54       	lea    0x54(%rsp),%r8
    bb5f:	29 c1                	sub    %eax,%ecx
    bb61:	4c 89 fa             	mov    %r15,%rdx
    bb64:	4c 89 ee             	mov    %r13,%rsi
    bb67:	48 63 c9             	movslq %ecx,%rcx
    bb6a:	48 01 c9             	add    %rcx,%rcx
    bb6d:	c5 f8 77             	vzeroupper 
    bb70:	e8 6b e4 ff ff       	callq  9fe0 <_ZSt13__introselectIN9__gnu_cxx17__normal_iteratorIPSt4pairId11BoundingBoxESt6vectorIS4_SaIS4_EEEElNS0_5__ops15_Iter_comp_iterIZN12PseudoPRTreeIdLi6EE9constructIS9_EEvRSt10shared_ptrI16PseudoPRTreeNodeIdLi6EEET_SK_iEUlRKS4_SM_E_EEEvSK_SK_SK_T0_T1_>
    bb75:	48 85 db             	test   %rbx,%rbx
    bb78:	0f 8e 8a 01 00 00    	jle    bd08 <_ZN12PseudoPRTreeIdLi6EE9constructIN9__gnu_cxx17__normal_iteratorIPSt4pairId11BoundingBoxESt6vectorIS6_SaIS6_EEEEEEvRSt10shared_ptrI16PseudoPRTreeNodeIdLi6EEET_SH_i.isra.0+0x3f8>
    bb7e:	bf 30 01 00 00       	mov    $0x130,%edi
    bb83:	e8 78 65 ff ff       	callq  2100 <_Znwm@plt>
    bb88:	49 89 c4             	mov    %rax,%r12
    bb8b:	48 8b 05 5e 47 00 00 	mov    0x475e(%rip),%rax        # 102f0 <_ZZNSt19_Sp_make_shared_tag5_S_tiEvE5__tag+0xf0>
    bb92:	c5 f9 ef c0          	vpxor  %xmm0,%xmm0,%xmm0
    bb96:	45 31 f6             	xor    %r14d,%r14d
    bb99:	49 8d 5c 24 10       	lea    0x10(%r12),%rbx
    bb9e:	c4 c1 7a 7f 44 24 38 	vmovdqu %xmm0,0x38(%r12)
    bba5:	c4 c1 7a 7f 44 24 78 	vmovdqu %xmm0,0x78(%r12)
    bbac:	c4 c1 7a 7f 84 24 b8 	vmovdqu %xmm0,0xb8(%r12)
    bbb3:	00 00 00 
    bbb6:	c4 c1 7a 7f 84 24 f8 	vmovdqu %xmm0,0xf8(%r12)
    bbbd:	00 00 00 
    bbc0:	c5 f9 ef c0          	vpxor  %xmm0,%xmm0,%xmm0
    bbc4:	48 89 5c 24 38       	mov    %rbx,0x38(%rsp)
    bbc9:	41 c7 44 24 10 00 00 	movl   $0x0,0x10(%r12)
    bbd0:	00 00 
    bbd2:	49 c7 44 24 48 00 00 	movq   $0x0,0x48(%r12)
    bbd9:	00 00 
    bbdb:	41 c7 44 24 50 00 00 	movl   $0x0,0x50(%r12)
    bbe2:	00 00 
    bbe4:	49 c7 84 24 88 00 00 	movq   $0x0,0x88(%r12)
    bbeb:	00 00 00 00 00 
    bbf0:	49 89 44 24 08       	mov    %rax,0x8(%r12)
    bbf5:	48 8d 05 0c 70 00 00 	lea    0x700c(%rip),%rax        # 12c08 <_ZTVSt23_Sp_counted_ptr_inplaceI16PseudoPRTreeNodeIdLi6EESaIS1_ELN9__gnu_cxx12_Lock_policyE2EE+0x10>
    bbfc:	41 c7 84 24 90 00 00 	movl   $0x0,0x90(%r12)
    bc03:	00 00 00 00 00 
    bc08:	49 c7 84 24 c8 00 00 	movq   $0x0,0xc8(%r12)
    bc0f:	00 00 00 00 00 
    bc14:	49 89 04 24          	mov    %rax,(%r12)
    bc18:	41 c7 84 24 d0 00 00 	movl   $0x0,0xd0(%r12)
    bc1f:	00 00 00 00 00 
    bc24:	49 c7 84 24 08 01 00 	movq   $0x0,0x108(%r12)
    bc2b:	00 00 00 00 00 
    bc30:	c4 c1 7e 7f 84 24 10 	vmovdqu %ymm0,0x110(%r12)
    bc37:	01 00 00 
    bc3a:	c5 f8 77             	vzeroupper 
    bc3d:	bf f0 00 00 00       	mov    $0xf0,%edi
    bc42:	e8 b9 64 ff ff       	callq  2100 <_Znwm@plt>
    bc47:	48 8b 7b 28          	mov    0x28(%rbx),%rdi
    bc4b:	c5 e9 57 d2          	vxorpd %xmm2,%xmm2,%xmm2
    bc4f:	48 8b 73 38          	mov    0x38(%rbx),%rsi
    bc53:	44 89 33             	mov    %r14d,(%rbx)
    bc56:	c5 fd 11 53 08       	vmovupd %ymm2,0x8(%rbx)
    bc5b:	c4 e1 f9 6e d0       	vmovq  %rax,%xmm2
    bc60:	48 05 f0 00 00 00    	add    $0xf0,%rax
    bc66:	c5 e9 6c c2          	vpunpcklqdq %xmm2,%xmm2,%xmm0
    bc6a:	48 89 43 38          	mov    %rax,0x38(%rbx)
    bc6e:	c5 fa 7f 43 28       	vmovdqu %xmm0,0x28(%rbx)
    bc73:	48 85 ff             	test   %rdi,%rdi
    bc76:	0f 84 a3 06 00 00    	je     c31f <_ZN12PseudoPRTreeIdLi6EE9constructIN9__gnu_cxx17__normal_iteratorIPSt4pairId11BoundingBoxESt6vectorIS6_SaIS6_EEEEEEvRSt10shared_ptrI16PseudoPRTreeNodeIdLi6EEET_SH_i.isra.0+0xa0f>
    bc7c:	48 29 fe             	sub    %rdi,%rsi
    bc7f:	c5 f8 77             	vzeroupper 
    bc82:	41 ff c6             	inc    %r14d
    bc85:	e8 86 64 ff ff       	callq  2110 <_ZdlPvm@plt>
    bc8a:	48 83 c3 40          	add    $0x40,%rbx
    bc8e:	41 83 fe 04          	cmp    $0x4,%r14d
    bc92:	75 a9                	jne    bc3d <_ZN12PseudoPRTreeIdLi6EE9constructIN9__gnu_cxx17__normal_iteratorIPSt4pairId11BoundingBoxESt6vectorIS6_SaIS6_EEEEEEvRSt10shared_ptrI16PseudoPRTreeNodeIdLi6EEET_SH_i.isra.0+0x32d>
    bc94:	48 8b 44 24 08       	mov    0x8(%rsp),%rax
    bc99:	c5 fa 7e 54 24 38    	vmovq  0x38(%rsp),%xmm2
    bc9f:	48 8b 00             	mov    (%rax),%rax
    bca2:	4c 8b b0 08 01 00 00 	mov    0x108(%rax),%r14
    bca9:	c4 c3 e9 22 c4 01    	vpinsrq $0x1,%r12,%xmm2,%xmm0
    bcaf:	c5 fa 7f 80 00 01 00 	vmovdqu %xmm0,0x100(%rax)
    bcb6:	00 
    bcb7:	4d 85 f6             	test   %r14,%r14
    bcba:	74 24                	je     bce0 <_ZN12PseudoPRTreeIdLi6EE9constructIN9__gnu_cxx17__normal_iteratorIPSt4pairId11BoundingBoxESt6vectorIS6_SaIS6_EEEEEEvRSt10shared_ptrI16PseudoPRTreeNodeIdLi6EEET_SH_i.isra.0+0x3d0>
    bcbc:	48 8b 1d 05 73 00 00 	mov    0x7305(%rip),%rbx        # 12fc8 <__pthread_key_create>
    bcc3:	48 85 db             	test   %rbx,%rbx
    bcc6:	0f 85 71 07 00 00    	jne    c43d <_ZN12PseudoPRTreeIdLi6EE9constructIN9__gnu_cxx17__normal_iteratorIPSt4pairId11BoundingBoxESt6vectorIS6_SaIS6_EEEEEEvRSt10shared_ptrI16PseudoPRTreeNodeIdLi6EEET_SH_i.isra.0+0xb2d>
    bccc:	41 8b 46 08          	mov    0x8(%r14),%eax
    bcd0:	8d 50 ff             	lea    -0x1(%rax),%edx
    bcd3:	41 89 56 08          	mov    %edx,0x8(%r14)
    bcd7:	83 f8 01             	cmp    $0x1,%eax
    bcda:	0f 84 1d 07 00 00    	je     c3fd <_ZN12PseudoPRTreeIdLi6EE9constructIN9__gnu_cxx17__normal_iteratorIPSt4pairId11BoundingBoxESt6vectorIS6_SaIS6_EEEEEEvRSt10shared_ptrI16PseudoPRTreeNodeIdLi6EEET_SH_i.isra.0+0xaed>
    bce0:	48 8b 44 24 08       	mov    0x8(%rsp),%rax
    bce5:	48 8b 74 24 48       	mov    0x48(%rsp),%rsi
    bcea:	4c 89 ea             	mov    %r13,%rdx
    bced:	48 8b 00             	mov    (%rax),%rax
    bcf0:	48 89 44 24 38       	mov    %rax,0x38(%rsp)
    bcf5:	48 8d b8 00 01 00 00 	lea    0x100(%rax),%rdi
    bcfc:	8b 44 24 04          	mov    0x4(%rsp),%eax
    bd00:	8d 48 01             	lea    0x1(%rax),%ecx
    bd03:	e8 08 fc ff ff       	callq  b910 <_ZN12PseudoPRTreeIdLi6EE9constructIN9__gnu_cxx17__normal_iteratorIPSt4pairId11BoundingBoxESt6vectorIS6_SaIS6_EEEEEEvRSt10shared_ptrI16PseudoPRTreeNodeIdLi6EEET_SH_i.isra.0>
    bd08:	4c 89 f8             	mov    %r15,%rax
    bd0b:	4c 29 e8             	sub    %r13,%rax
    bd0e:	48 85 c0             	test   %rax,%rax
    bd11:	0f 8e 82 01 00 00    	jle    be99 <_ZN12PseudoPRTreeIdLi6EE9constructIN9__gnu_cxx17__normal_iteratorIPSt4pairId11BoundingBoxESt6vectorIS6_SaIS6_EEEEEEvRSt10shared_ptrI16PseudoPRTreeNodeIdLi6EEET_SH_i.isra.0+0x589>
    bd17:	bf 30 01 00 00       	mov    $0x130,%edi
    bd1c:	e8 df 63 ff ff       	callq  2100 <_Znwm@plt>
    bd21:	49 89 c4             	mov    %rax,%r12
    bd24:	48 8b 05 c5 45 00 00 	mov    0x45c5(%rip),%rax        # 102f0 <_ZZNSt19_Sp_make_shared_tag5_S_tiEvE5__tag+0xf0>
    bd2b:	c5 f9 ef c0          	vpxor  %xmm0,%xmm0,%xmm0
    bd2f:	45 31 f6             	xor    %r14d,%r14d
    bd32:	49 8d 5c 24 10       	lea    0x10(%r12),%rbx
    bd37:	c4 c1 7a 7f 44 24 38 	vmovdqu %xmm0,0x38(%r12)
    bd3e:	c4 c1 7a 7f 44 24 78 	vmovdqu %xmm0,0x78(%r12)
    bd45:	c4 c1 7a 7f 84 24 b8 	vmovdqu %xmm0,0xb8(%r12)
    bd4c:	00 00 00 
    bd4f:	c4 c1 7a 7f 84 24 f8 	vmovdqu %xmm0,0xf8(%r12)
    bd56:	00 00 00 
    bd59:	c5 f9 ef c0          	vpxor  %xmm0,%xmm0,%xmm0
    bd5d:	48 89 5c 24 38       	mov    %rbx,0x38(%rsp)
    bd62:	41 c7 44 24 10 00 00 	movl   $0x0,0x10(%r12)
    bd69:	00 00 
    bd6b:	49 c7 44 24 48 00 00 	movq   $0x0,0x48(%r12)
    bd72:	00 00 
    bd74:	41 c7 44 24 50 00 00 	movl   $0x0,0x50(%r12)
    bd7b:	00 00 
    bd7d:	49 c7 84 24 88 00 00 	movq   $0x0,0x88(%r12)
    bd84:	00 00 00 00 00 
    bd89:	49 89 44 24 08       	mov    %rax,0x8(%r12)
    bd8e:	48 8d 05 73 6e 00 00 	lea    0x6e73(%rip),%rax        # 12c08 <_ZTVSt23_Sp_counted_ptr_inplaceI16PseudoPRTreeNodeIdLi6EESaIS1_ELN9__gnu_cxx12_Lock_policyE2EE+0x10>
    bd95:	41 c7 84 24 90 00 00 	movl   $0x0,0x90(%r12)
    bd9c:	00 00 00 00 00 
    bda1:	49 c7 84 24 c8 00 00 	movq   $0x0,0xc8(%r12)
    bda8:	00 00 00 00 00 
    bdad:	49 89 04 24          	mov    %rax,(%r12)
    bdb1:	41 c7 84 24 d0 00 00 	movl   $0x0,0xd0(%r12)
    bdb8:	00 00 00 00 00 
    bdbd:	49 c7 84 24 08 01 00 	movq   $0x0,0x108(%r12)
    bdc4:	00 00 00 00 00 
    bdc9:	c4 c1 7e 7f 84 24 10 	vmovdqu %ymm0,0x110(%r12)
    bdd0:	01 00 00 
    bdd3:	c5 f8 77             	vzeroupper 
    bdd6:	bf f0 00 00 00       	mov    $0xf0,%edi
    bddb:	e8 20 63 ff ff       	callq  2100 <_Znwm@plt>
    bde0:	48 8b 7b 28          	mov    0x28(%rbx),%rdi
    bde4:	c5 e9 57 d2          	vxorpd %xmm2,%xmm2,%xmm2
    bde8:	48 8b 73 38          	mov    0x38(%rbx),%rsi
    bdec:	44 89 33             	mov    %r14d,(%rbx)
    bdef:	c5 fd 11 53 08       	vmovupd %ymm2,0x8(%rbx)
    bdf4:	c4 e1 f9 6e d0       	vmovq  %rax,%xmm2
    bdf9:	48 05 f0 00 00 00    	add    $0xf0,%rax
    bdff:	c5 e9 6c c2          	vpunpcklqdq %xmm2,%xmm2,%xmm0
    be03:	48 89 43 38          	mov    %rax,0x38(%rbx)
    be07:	c5 fa 7f 43 28       	vmovdqu %xmm0,0x28(%rbx)
    be0c:	48 85 ff             	test   %rdi,%rdi
    be0f:	0f 84 f5 04 00 00    	je     c30a <_ZN12PseudoPRTreeIdLi6EE9constructIN9__gnu_cxx17__normal_iteratorIPSt4pairId11BoundingBoxESt6vectorIS6_SaIS6_EEEEEEvRSt10shared_ptrI16PseudoPRTreeNodeIdLi6EEET_SH_i.isra.0+0x9fa>
    be15:	48 29 fe             	sub    %rdi,%rsi
    be18:	c5 f8 77             	vzeroupper 
    be1b:	41 ff c6             	inc    %r14d
    be1e:	e8 ed 62 ff ff       	callq  2110 <_ZdlPvm@plt>
    be23:	48 83 c3 40          	add    $0x40,%rbx
    be27:	41 83 fe 04          	cmp    $0x4,%r14d
    be2b:	75 a9                	jne    bdd6 <_ZN12PseudoPRTreeIdLi6EE9constructIN9__gnu_cxx17__normal_iteratorIPSt4pairId11BoundingBoxESt6vectorIS6_SaIS6_EEEEEEvRSt10shared_ptrI16PseudoPRTreeNodeIdLi6EEET_SH_i.isra.0+0x4c6>
    be2d:	48 8b 44 24 08       	mov    0x8(%rsp),%rax
    be32:	c5 fa 7e 5c 24 38    	vmovq  0x38(%rsp),%xmm3
    be38:	48 8b 00             	mov    (%rax),%rax
    be3b:	4c 8b b0 18 01 00 00 	mov    0x118(%rax),%r14
    be42:	c4 c3 e1 22 c4 01    	vpinsrq $0x1,%r12,%xmm3,%xmm0
    be48:	c5 fa 7f 80 10 01 00 	vmovdqu %xmm0,0x110(%rax)
    be4f:	00 
    be50:	4d 85 f6             	test   %r14,%r14
    be53:	74 24                	je     be79 <_ZN12PseudoPRTreeIdLi6EE9constructIN9__gnu_cxx17__normal_iteratorIPSt4pairId11BoundingBoxESt6vectorIS6_SaIS6_EEEEEEvRSt10shared_ptrI16PseudoPRTreeNodeIdLi6EEET_SH_i.isra.0+0x569>
    be55:	48 8b 1d 6c 71 00 00 	mov    0x716c(%rip),%rbx        # 12fc8 <__pthread_key_create>
    be5c:	48 85 db             	test   %rbx,%rbx
    be5f:	0f 85 c8 05 00 00    	jne    c42d <_ZN12PseudoPRTreeIdLi6EE9constructIN9__gnu_cxx17__normal_iteratorIPSt4pairId11BoundingBoxESt6vectorIS6_SaIS6_EEEEEEvRSt10shared_ptrI16PseudoPRTreeNodeIdLi6EEET_SH_i.isra.0+0xb1d>
    be65:	41 8b 46 08          	mov    0x8(%r14),%eax
    be69:	8d 50 ff             	lea    -0x1(%rax),%edx
    be6c:	41 89 56 08          	mov    %edx,0x8(%r14)
    be70:	83 f8 01             	cmp    $0x1,%eax
    be73:	0f 84 50 05 00 00    	je     c3c9 <_ZN12PseudoPRTreeIdLi6EE9constructIN9__gnu_cxx17__normal_iteratorIPSt4pairId11BoundingBoxESt6vectorIS6_SaIS6_EEEEEEvRSt10shared_ptrI16PseudoPRTreeNodeIdLi6EEET_SH_i.isra.0+0xab9>
    be79:	48 8b 44 24 08       	mov    0x8(%rsp),%rax
    be7e:	8b 4c 24 04          	mov    0x4(%rsp),%ecx
    be82:	4c 89 fa             	mov    %r15,%rdx
    be85:	4c 89 ee             	mov    %r13,%rsi
    be88:	48 8b 38             	mov    (%rax),%rdi
    be8b:	ff c1                	inc    %ecx
    be8d:	48 81 c7 10 01 00 00 	add    $0x110,%rdi
    be94:	e8 77 fa ff ff       	callq  b910 <_ZN12PseudoPRTreeIdLi6EE9constructIN9__gnu_cxx17__normal_iteratorIPSt4pairId11BoundingBoxESt6vectorIS6_SaIS6_EEEEEEvRSt10shared_ptrI16PseudoPRTreeNodeIdLi6EEET_SH_i.isra.0>
    be99:	48 83 7c 24 48 00    	cmpq   $0x0,0x48(%rsp)
    be9f:	74 0f                	je     beb0 <_ZN12PseudoPRTreeIdLi6EE9constructIN9__gnu_cxx17__normal_iteratorIPSt4pairId11BoundingBoxESt6vectorIS6_SaIS6_EEEEEEvRSt10shared_ptrI16PseudoPRTreeNodeIdLi6EEET_SH_i.isra.0+0x5a0>
    bea1:	48 8b 74 24 40       	mov    0x40(%rsp),%rsi
    bea6:	48 8b 7c 24 48       	mov    0x48(%rsp),%rdi
    beab:	e8 60 62 ff ff       	callq  2110 <_ZdlPvm@plt>
    beb0:	48 8b 44 24 58       	mov    0x58(%rsp),%rax
    beb5:	64 48 2b 04 25 28 00 	sub    %fs:0x28,%rax
    bebc:	00 00 
    bebe:	0f 85 c2 05 00 00    	jne    c486 <_ZN12PseudoPRTreeIdLi6EE9constructIN9__gnu_cxx17__normal_iteratorIPSt4pairId11BoundingBoxESt6vectorIS6_SaIS6_EEEEEEvRSt10shared_ptrI16PseudoPRTreeNodeIdLi6EEET_SH_i.isra.0+0xb76>
    bec4:	48 8d 65 d8          	lea    -0x28(%rbp),%rsp
    bec8:	5b                   	pop    %rbx
    bec9:	41 5c                	pop    %r12
    becb:	41 5d                	pop    %r13
    becd:	41 5e                	pop    %r14
    becf:	41 5f                	pop    %r15
    bed1:	5d                   	pop    %rbp
    bed2:	c3                   	retq   
    bed3:	66 66 2e 0f 1f 84 00 	data16 nopw %cs:0x0(%rax,%rax,1)
    beda:	00 00 00 00 
    bede:	66 90                	xchg   %ax,%ax
    bee0:	48 89 f2             	mov    %rsi,%rdx
    bee3:	e9 98 fb ff ff       	jmpq   ba80 <_ZN12PseudoPRTreeIdLi6EE9constructIN9__gnu_cxx17__normal_iteratorIPSt4pairId11BoundingBoxESt6vectorIS6_SaIS6_EEEEEEvRSt10shared_ptrI16PseudoPRTreeNodeIdLi6EEET_SH_i.isra.0+0x170>
    bee8:	0f 1f 84 00 00 00 00 	nopl   0x0(%rax,%rax,1)
    beef:	00 
    bef0:	c4 c1 7b 10 47 e0    	vmovsd -0x20(%r15),%xmm0
    bef6:	c5 fb 10 49 08       	vmovsd 0x8(%rcx),%xmm1
    befb:	e9 ce fb ff ff       	jmpq   bace <_ZN12PseudoPRTreeIdLi6EE9constructIN9__gnu_cxx17__normal_iteratorIPSt4pairId11BoundingBoxESt6vectorIS6_SaIS6_EEEEEEvRSt10shared_ptrI16PseudoPRTreeNodeIdLi6EEET_SH_i.isra.0+0x1be>
    bf00:	c4 c1 7b 10 47 f0    	vmovsd -0x10(%r15),%xmm0
    bf06:	c5 fb 10 49 18       	vmovsd 0x18(%rcx),%xmm1
    bf0b:	e9 be fb ff ff       	jmpq   bace <_ZN12PseudoPRTreeIdLi6EE9constructIN9__gnu_cxx17__normal_iteratorIPSt4pairId11BoundingBoxESt6vectorIS6_SaIS6_EEEEEEvRSt10shared_ptrI16PseudoPRTreeNodeIdLi6EEET_SH_i.isra.0+0x1be>
    bf10:	c4 c1 7b 10 47 e8    	vmovsd -0x18(%r15),%xmm0
    bf16:	c5 fb 10 49 10       	vmovsd 0x10(%rcx),%xmm1
    bf1b:	c5 f9 57 c5          	vxorpd %xmm5,%xmm0,%xmm0
    bf1f:	c5 f1 57 cd          	vxorpd %xmm5,%xmm1,%xmm1
    bf23:	e9 a6 fb ff ff       	jmpq   bace <_ZN12PseudoPRTreeIdLi6EE9constructIN9__gnu_cxx17__normal_iteratorIPSt4pairId11BoundingBoxESt6vectorIS6_SaIS6_EEEEEEvRSt10shared_ptrI16PseudoPRTreeNodeIdLi6EEET_SH_i.isra.0+0x1be>
    bf28:	0f 1f 84 00 00 00 00 	nopl   0x0(%rax,%rax,1)
    bf2f:	00 
    bf30:	4c 3b 43 38          	cmp    0x38(%rbx),%r8
    bf34:	0f 84 0a 04 00 00    	je     c344 <_ZN12PseudoPRTreeIdLi6EE9constructIN9__gnu_cxx17__normal_iteratorIPSt4pairId11BoundingBoxESt6vectorIS6_SaIS6_EEEEEEvRSt10shared_ptrI16PseudoPRTreeNodeIdLi6EEET_SH_i.isra.0+0xa34>
    bf3a:	c4 c1 7a 6f 5f d8    	vmovdqu -0x28(%r15),%xmm3
    bf40:	49 83 c0 28          	add    $0x28,%r8
    bf44:	c4 c1 7a 7f 58 d8    	vmovdqu %xmm3,-0x28(%r8)
    bf4a:	c4 c1 7a 6f 57 e8    	vmovdqu -0x18(%r15),%xmm2
    bf50:	c4 c1 7a 7f 50 e8    	vmovdqu %xmm2,-0x18(%r8)
    bf56:	49 8b 57 f8          	mov    -0x8(%r15),%rdx
    bf5a:	49 89 50 f8          	mov    %rdx,-0x8(%r8)
    bf5e:	4c 89 43 30          	mov    %r8,0x30(%rbx)
    bf62:	4c 89 c2             	mov    %r8,%rdx
    bf65:	c5 f1 57 c9          	vxorpd %xmm1,%xmm1,%xmm1
    bf69:	48 29 c2             	sub    %rax,%rdx
    bf6c:	c5 f3 10 d1          	vmovsd %xmm1,%xmm1,%xmm2
    bf70:	c5 f3 10 d9          	vmovsd %xmm1,%xmm1,%xmm3
    bf74:	c5 f3 10 c1          	vmovsd %xmm1,%xmm1,%xmm0
    bf78:	48 83 fa 78          	cmp    $0x78,%rdx
    bf7c:	0f 8e 9d 00 00 00    	jle    c01f <_ZN12PseudoPRTreeIdLi6EE9constructIN9__gnu_cxx17__normal_iteratorIPSt4pairId11BoundingBoxESt6vectorIS6_SaIS6_EEEEEEvRSt10shared_ptrI16PseudoPRTreeNodeIdLi6EEET_SH_i.isra.0+0x70f>
    bf82:	66 66 2e 0f 1f 84 00 	data16 nopw %cs:0x0(%rax,%rax,1)
    bf89:	00 00 00 00 
    bf8d:	0f 1f 00             	nopl   (%rax)
    bf90:	c5 fb 10 78 70       	vmovsd 0x70(%rax),%xmm7
    bf95:	c5 fb 10 70 60       	vmovsd 0x60(%rax),%xmm6
    bf9a:	4c 89 c2             	mov    %r8,%rdx
    bf9d:	48 05 a0 00 00 00    	add    $0xa0,%rax
    bfa3:	c5 c3 5f 60 f8       	vmaxsd -0x8(%rax),%xmm7,%xmm4
    bfa8:	c5 fb 10 78 80       	vmovsd -0x80(%rax),%xmm7
    bfad:	c5 c3 5f 68 a8       	vmaxsd -0x58(%rax),%xmm7,%xmm5
    bfb2:	c5 fb 10 78 a0       	vmovsd -0x60(%rax),%xmm7
    bfb7:	c5 db 5f e5          	vmaxsd %xmm5,%xmm4,%xmm4
    bfbb:	c5 f3 5f cc          	vmaxsd %xmm4,%xmm1,%xmm1
    bfbf:	c5 c3 5d a0 78 ff ff 	vminsd -0x88(%rax),%xmm7,%xmm4
    bfc6:	ff 
    bfc7:	c5 fb 10 78 f0       	vmovsd -0x10(%rax),%xmm7
    bfcc:	c5 c3 5d 68 c8       	vminsd -0x38(%rax),%xmm7,%xmm5
    bfd1:	c5 fb 10 b8 70 ff ff 	vmovsd -0x90(%rax),%xmm7
    bfd8:	ff 
    bfd9:	c5 db 5d e5          	vminsd %xmm5,%xmm4,%xmm4
    bfdd:	c5 c3 5f 68 98       	vmaxsd -0x68(%rax),%xmm7,%xmm5
    bfe2:	c5 fb 10 78 90       	vmovsd -0x70(%rax),%xmm7
    bfe7:	c5 eb 5d d4          	vminsd %xmm4,%xmm2,%xmm2
    bfeb:	c5 cb 5f 60 e8       	vmaxsd -0x18(%rax),%xmm6,%xmm4
    bff0:	c5 fb 10 70 e0       	vmovsd -0x20(%rax),%xmm6
    bff5:	c5 db 5f e5          	vmaxsd %xmm5,%xmm4,%xmm4
    bff9:	c5 c3 5d a8 68 ff ff 	vminsd -0x98(%rax),%xmm7,%xmm5
    c000:	ff 
    c001:	c5 e3 5f dc          	vmaxsd %xmm4,%xmm3,%xmm3
    c005:	c5 cb 5d 60 b8       	vminsd -0x48(%rax),%xmm6,%xmm4
    c00a:	48 29 c2             	sub    %rax,%rdx
    c00d:	c5 db 5d e5          	vminsd %xmm5,%xmm4,%xmm4
    c011:	c5 fb 5d c4          	vminsd %xmm4,%xmm0,%xmm0
    c015:	48 83 fa 78          	cmp    $0x78,%rdx
    c019:	0f 8f 71 ff ff ff    	jg     bf90 <_ZN12PseudoPRTreeIdLi6EE9constructIN9__gnu_cxx17__normal_iteratorIPSt4pairId11BoundingBoxESt6vectorIS6_SaIS6_EEEEEEvRSt10shared_ptrI16PseudoPRTreeNodeIdLi6EEET_SH_i.isra.0+0x680>
    c01f:	4c 39 c0             	cmp    %r8,%rax
    c022:	74 29                	je     c04d <_ZN12PseudoPRTreeIdLi6EE9constructIN9__gnu_cxx17__normal_iteratorIPSt4pairId11BoundingBoxESt6vectorIS6_SaIS6_EEEEEEvRSt10shared_ptrI16PseudoPRTreeNodeIdLi6EEET_SH_i.isra.0+0x73d>
    c024:	66 66 2e 0f 1f 84 00 	data16 nopw %cs:0x0(%rax,%rax,1)
    c02b:	00 00 00 00 
    c02f:	90                   	nop
    c030:	c5 f3 5f 48 20       	vmaxsd 0x20(%rax),%xmm1,%xmm1
    c035:	c5 eb 5d 50 18       	vminsd 0x18(%rax),%xmm2,%xmm2
    c03a:	48 83 c0 28          	add    $0x28,%rax
    c03e:	c5 e3 5f 58 e8       	vmaxsd -0x18(%rax),%xmm3,%xmm3
    c043:	c5 fb 5d 40 e0       	vminsd -0x20(%rax),%xmm0,%xmm0
    c048:	49 39 c0             	cmp    %rax,%r8
    c04b:	75 e3                	jne    c030 <_ZN12PseudoPRTreeIdLi6EE9constructIN9__gnu_cxx17__normal_iteratorIPSt4pairId11BoundingBoxESt6vectorIS6_SaIS6_EEEEEEvRSt10shared_ptrI16PseudoPRTreeNodeIdLi6EEET_SH_i.isra.0+0x720>
    c04d:	c5 e9 14 c9          	vunpcklpd %xmm1,%xmm2,%xmm1
    c051:	c5 f9 14 c3          	vunpcklpd %xmm3,%xmm0,%xmm0
    c055:	4c 8b 7c 24 38       	mov    0x38(%rsp),%r15
    c05a:	49 83 c4 28          	add    $0x28,%r12
    c05e:	c4 e3 7d 18 c1 01    	vinsertf128 $0x1,%xmm1,%ymm0,%ymm0
    c064:	c5 fd 11 43 08       	vmovupd %ymm0,0x8(%rbx)
    c069:	4c 39 64 24 28       	cmp    %r12,0x28(%rsp)
    c06e:	0f 85 4c f9 ff ff    	jne    b9c0 <_ZN12PseudoPRTreeIdLi6EE9constructIN9__gnu_cxx17__normal_iteratorIPSt4pairId11BoundingBoxESt6vectorIS6_SaIS6_EEEEEEvRSt10shared_ptrI16PseudoPRTreeNodeIdLi6EEET_SH_i.isra.0+0xb0>
    c074:	e9 93 fa ff ff       	jmpq   bb0c <_ZN12PseudoPRTreeIdLi6EE9constructIN9__gnu_cxx17__normal_iteratorIPSt4pairId11BoundingBoxESt6vectorIS6_SaIS6_EEEEEEvRSt10shared_ptrI16PseudoPRTreeNodeIdLi6EEET_SH_i.isra.0+0x1fc>
    c079:	0f 1f 80 00 00 00 00 	nopl   0x0(%rax)
    c080:	c4 c1 7b 10 4f d8    	vmovsd -0x28(%r15),%xmm1
    c086:	c5 fb 10 07          	vmovsd (%rdi),%xmm0
    c08a:	c5 fb 11 0f          	vmovsd %xmm1,(%rdi)
    c08e:	c4 c1 7a 6f 7f e0    	vmovdqu -0x20(%r15),%xmm7
    c094:	c4 c1 7b 11 47 d8    	vmovsd %xmm0,-0x28(%r15)
    c09a:	c5 fb 10 57 10       	vmovsd 0x10(%rdi),%xmm2
    c09f:	c5 fb 10 5f 18       	vmovsd 0x18(%rdi),%xmm3
    c0a4:	c5 fb 10 47 08       	vmovsd 0x8(%rdi),%xmm0
    c0a9:	c5 fb 10 4f 20       	vmovsd 0x20(%rdi),%xmm1
    c0ae:	c5 fa 7f 7f 08       	vmovdqu %xmm7,0x8(%rdi)
    c0b3:	c4 c1 7a 6f 7f f0    	vmovdqu -0x10(%r15),%xmm7
    c0b9:	c5 f9 14 c2          	vunpcklpd %xmm2,%xmm0,%xmm0
    c0bd:	c5 e1 14 c9          	vunpcklpd %xmm1,%xmm3,%xmm1
    c0c1:	c4 e3 7d 18 c1 01    	vinsertf128 $0x1,%xmm1,%ymm0,%ymm0
    c0c7:	c5 f1 57 c9          	vxorpd %xmm1,%xmm1,%xmm1
    c0cb:	c5 f3 10 d9          	vmovsd %xmm1,%xmm1,%xmm3
    c0cf:	c5 f3 10 d1          	vmovsd %xmm1,%xmm1,%xmm2
    c0d3:	c5 fa 7f 7f 18       	vmovdqu %xmm7,0x18(%rdi)
    c0d8:	c4 c1 7d 11 47 e0    	vmovupd %ymm0,-0x20(%r15)
    c0de:	c5 f3 10 c1          	vmovsd %xmm1,%xmm1,%xmm0
    c0e2:	49 83 f9 78          	cmp    $0x78,%r9
    c0e6:	0f 8e bc 00 00 00    	jle    c1a8 <_ZN12PseudoPRTreeIdLi6EE9constructIN9__gnu_cxx17__normal_iteratorIPSt4pairId11BoundingBoxESt6vectorIS6_SaIS6_EEEEEEvRSt10shared_ptrI16PseudoPRTreeNodeIdLi6EEET_SH_i.isra.0+0x898>
    c0ec:	0f 1f 40 00          	nopl   0x0(%rax)
    c0f0:	c5 fb 10 70 20       	vmovsd 0x20(%rax),%xmm6
    c0f5:	c5 fb 10 78 70       	vmovsd 0x70(%rax),%xmm7
    c0fa:	4c 89 c2             	mov    %r8,%rdx
    c0fd:	48 05 a0 00 00 00    	add    $0xa0,%rax
    c103:	c5 cb 5f 60 a8       	vmaxsd -0x58(%rax),%xmm6,%xmm4
    c108:	c5 c3 5f 70 f8       	vmaxsd -0x8(%rax),%xmm7,%xmm6
    c10d:	c5 fb 10 78 f0       	vmovsd -0x10(%rax),%xmm7
    c112:	c5 db 5f e6          	vmaxsd %xmm6,%xmm4,%xmm4
    c116:	c5 fb 10 70 a0       	vmovsd -0x60(%rax),%xmm6
    c11b:	c5 f3 5f cc          	vmaxsd %xmm4,%xmm1,%xmm1
    c11f:	c5 cb 5d a0 78 ff ff 	vminsd -0x88(%rax),%xmm6,%xmm4
    c126:	ff 
    c127:	c5 c3 5d 70 c8       	vminsd -0x38(%rax),%xmm7,%xmm6
    c12c:	c5 fb 10 78 c0       	vmovsd -0x40(%rax),%xmm7
    c131:	c5 db 5d e6          	vminsd %xmm6,%xmm4,%xmm4
    c135:	c5 fb 10 b0 70 ff ff 	vmovsd -0x90(%rax),%xmm6
    c13c:	ff 
    c13d:	c5 e3 5d dc          	vminsd %xmm4,%xmm3,%xmm3
    c141:	c5 cb 5f 60 98       	vmaxsd -0x68(%rax),%xmm6,%xmm4
    c146:	c5 c3 5f 70 e8       	vmaxsd -0x18(%rax),%xmm7,%xmm6
    c14b:	c5 fb 10 78 e0       	vmovsd -0x20(%rax),%xmm7
    c150:	c5 db 5f e6          	vmaxsd %xmm6,%xmm4,%xmm4
    c154:	c5 fb 10 70 90       	vmovsd -0x70(%rax),%xmm6
    c159:	c5 eb 5f d4          	vmaxsd %xmm4,%xmm2,%xmm2
    c15d:	c5 cb 5d a0 68 ff ff 	vminsd -0x98(%rax),%xmm6,%xmm4
    c164:	ff 
    c165:	c5 c3 5d 70 b8       	vminsd -0x48(%rax),%xmm7,%xmm6
    c16a:	48 29 c2             	sub    %rax,%rdx
    c16d:	c5 db 5d e6          	vminsd %xmm6,%xmm4,%xmm4
    c171:	c5 fb 5d c4          	vminsd %xmm4,%xmm0,%xmm0
    c175:	48 83 fa 78          	cmp    $0x78,%rdx
    c179:	0f 8f 71 ff ff ff    	jg     c0f0 <_ZN12PseudoPRTreeIdLi6EE9constructIN9__gnu_cxx17__normal_iteratorIPSt4pairId11BoundingBoxESt6vectorIS6_SaIS6_EEEEEEvRSt10shared_ptrI16PseudoPRTreeNodeIdLi6EEET_SH_i.isra.0+0x7e0>
    c17f:	49 39 c0             	cmp    %rax,%r8
    c182:	74 29                	je     c1ad <_ZN12PseudoPRTreeIdLi6EE9constructIN9__gnu_cxx17__normal_iteratorIPSt4pairId11BoundingBoxESt6vectorIS6_SaIS6_EEEEEEvRSt10shared_ptrI16PseudoPRTreeNodeIdLi6EEET_SH_i.isra.0+0x89d>
    c184:	66 66 2e 0f 1f 84 00 	data16 nopw %cs:0x0(%rax,%rax,1)
    c18b:	00 00 00 00 
    c18f:	90                   	nop
    c190:	c5 f3 5f 48 20       	vmaxsd 0x20(%rax),%xmm1,%xmm1
    c195:	c5 e3 5d 58 18       	vminsd 0x18(%rax),%xmm3,%xmm3
    c19a:	48 83 c0 28          	add    $0x28,%rax
    c19e:	c5 eb 5f 50 e8       	vmaxsd -0x18(%rax),%xmm2,%xmm2
    c1a3:	c5 fb 5d 40 e0       	vminsd -0x20(%rax),%xmm0,%xmm0
    c1a8:	49 39 c0             	cmp    %rax,%r8
    c1ab:	75 e3                	jne    c190 <_ZN12PseudoPRTreeIdLi6EE9constructIN9__gnu_cxx17__normal_iteratorIPSt4pairId11BoundingBoxESt6vectorIS6_SaIS6_EEEEEEvRSt10shared_ptrI16PseudoPRTreeNodeIdLi6EEET_SH_i.isra.0+0x880>
    c1ad:	c5 e1 14 c9          	vunpcklpd %xmm1,%xmm3,%xmm1
    c1b1:	c5 f9 14 c2          	vunpcklpd %xmm2,%xmm0,%xmm0
    c1b5:	c4 e3 7d 18 c1 01    	vinsertf128 $0x1,%xmm1,%ymm0,%ymm0
    c1bb:	c5 fd 11 43 08       	vmovupd %ymm0,0x8(%rbx)
    c1c0:	e9 2b f9 ff ff       	jmpq   baf0 <_ZN12PseudoPRTreeIdLi6EE9constructIN9__gnu_cxx17__normal_iteratorIPSt4pairId11BoundingBoxESt6vectorIS6_SaIS6_EEEEEEvRSt10shared_ptrI16PseudoPRTreeNodeIdLi6EEET_SH_i.isra.0+0x1e0>
    c1c5:	48 89 f0             	mov    %rsi,%rax
    c1c8:	48 ba cd cc cc cc cc 	movabs $0xcccccccccccccccd,%rdx
    c1cf:	cc cc cc 
    c1d2:	48 b9 33 33 33 33 33 	movabs $0x333333333333333,%rcx
    c1d9:	33 33 03 
    c1dc:	48 c1 f8 03          	sar    $0x3,%rax
    c1e0:	48 0f af c2          	imul   %rdx,%rax
    c1e4:	48 39 c8             	cmp    %rcx,%rax
    c1e7:	0f 84 8a 02 00 00    	je     c477 <_ZN12PseudoPRTreeIdLi6EE9constructIN9__gnu_cxx17__normal_iteratorIPSt4pairId11BoundingBoxESt6vectorIS6_SaIS6_EEEEEEvRSt10shared_ptrI16PseudoPRTreeNodeIdLi6EEET_SH_i.isra.0+0xb67>
    c1ed:	48 85 c0             	test   %rax,%rax
    c1f0:	ba 01 00 00 00       	mov    $0x1,%edx
    c1f5:	48 0f 45 d0          	cmovne %rax,%rdx
    c1f9:	48 01 d0             	add    %rdx,%rax
    c1fc:	0f 82 89 02 00 00    	jb     c48b <_ZN12PseudoPRTreeIdLi6EE9constructIN9__gnu_cxx17__normal_iteratorIPSt4pairId11BoundingBoxESt6vectorIS6_SaIS6_EEEEEEvRSt10shared_ptrI16PseudoPRTreeNodeIdLi6EEET_SH_i.isra.0+0xb7b>
    c202:	48 85 c0             	test   %rax,%rax
    c205:	0f 85 5a 01 00 00    	jne    c365 <_ZN12PseudoPRTreeIdLi6EE9constructIN9__gnu_cxx17__normal_iteratorIPSt4pairId11BoundingBoxESt6vectorIS6_SaIS6_EEEEEEvRSt10shared_ptrI16PseudoPRTreeNodeIdLi6EEET_SH_i.isra.0+0xa55>
    c20b:	ba 28 00 00 00       	mov    $0x28,%edx
    c210:	31 db                	xor    %ebx,%ebx
    c212:	48 c7 44 24 30 00 00 	movq   $0x0,0x30(%rsp)
    c219:	00 00 
    c21b:	45 31 c0             	xor    %r8d,%r8d
    c21e:	c5 fb 10 5c 24 20    	vmovsd 0x20(%rsp),%xmm3
    c224:	c4 c1 f9 6e d5       	vmovq  %r13,%xmm2
    c229:	48 8b 44 24 40       	mov    0x40(%rsp),%rax
    c22e:	c5 e9 16 44 24 38    	vmovhpd 0x38(%rsp),%xmm2,%xmm0
    c234:	4c 01 c0             	add    %r8,%rax
    c237:	c5 e1 16 4c 24 18    	vmovhpd 0x18(%rsp),%xmm3,%xmm1
    c23d:	c5 fb 10 5c 24 10    	vmovsd 0x10(%rsp),%xmm3
    c243:	c4 e3 7d 18 c1 01    	vinsertf128 $0x1,%xmm1,%ymm0,%ymm0
    c249:	c5 fd 11 00          	vmovupd %ymm0,(%rax)
    c24d:	c5 fb 11 58 20       	vmovsd %xmm3,0x20(%rax)
    c252:	48 8b 44 24 48       	mov    0x48(%rsp),%rax
    c257:	49 39 c7             	cmp    %rax,%r15
    c25a:	0f 84 ed 01 00 00    	je     c44d <_ZN12PseudoPRTreeIdLi6EE9constructIN9__gnu_cxx17__normal_iteratorIPSt4pairId11BoundingBoxESt6vectorIS6_SaIS6_EEEEEEvRSt10shared_ptrI16PseudoPRTreeNodeIdLi6EEET_SH_i.isra.0+0xb3d>
    c260:	4c 89 c2             	mov    %r8,%rdx
    c263:	66 66 2e 0f 1f 84 00 	data16 nopw %cs:0x0(%rax,%rax,1)
    c26a:	00 00 00 00 
    c26e:	66 90                	xchg   %ax,%ax
    c270:	c5 fa 6f 10          	vmovdqu (%rax),%xmm2
    c274:	48 83 c0 28          	add    $0x28,%rax
    c278:	48 83 c2 28          	add    $0x28,%rdx
    c27c:	c5 fa 7f 52 d8       	vmovdqu %xmm2,-0x28(%rdx)
    c281:	c5 fa 6f 58 e8       	vmovdqu -0x18(%rax),%xmm3
    c286:	c5 fa 7f 5a e8       	vmovdqu %xmm3,-0x18(%rdx)
    c28b:	48 8b 48 f8          	mov    -0x8(%rax),%rcx
    c28f:	48 89 4a f8          	mov    %rcx,-0x8(%rdx)
    c293:	49 39 c7             	cmp    %rax,%r15
    c296:	75 d8                	jne    c270 <_ZN12PseudoPRTreeIdLi6EE9constructIN9__gnu_cxx17__normal_iteratorIPSt4pairId11BoundingBoxESt6vectorIS6_SaIS6_EEEEEEvRSt10shared_ptrI16PseudoPRTreeNodeIdLi6EEET_SH_i.isra.0+0x960>
    c298:	49 8d 47 d8          	lea    -0x28(%r15),%rax
    c29c:	48 2b 44 24 48       	sub    0x48(%rsp),%rax
    c2a1:	48 ba cd cc cc cc cc 	movabs $0xccccccccccccccd,%rdx
    c2a8:	cc cc 0c 
    c2ab:	48 c1 e8 03          	shr    $0x3,%rax
    c2af:	48 0f af c2          	imul   %rdx,%rax
    c2b3:	48 ba ff ff ff ff ff 	movabs $0x1fffffffffffffff,%rdx
    c2ba:	ff ff 1f 
    c2bd:	48 21 d0             	and    %rdx,%rax
    c2c0:	48 8d 44 80 05       	lea    0x5(%rax,%rax,4),%rax
    c2c5:	49 8d 04 c0          	lea    (%r8,%rax,8),%rax
    c2c9:	48 89 44 24 38       	mov    %rax,0x38(%rsp)
    c2ce:	4c 8d 78 28          	lea    0x28(%rax),%r15
    c2d2:	48 8b 7c 24 48       	mov    0x48(%rsp),%rdi
    c2d7:	48 85 ff             	test   %rdi,%rdi
    c2da:	74 17                	je     c2f3 <_ZN12PseudoPRTreeIdLi6EE9constructIN9__gnu_cxx17__normal_iteratorIPSt4pairId11BoundingBoxESt6vectorIS6_SaIS6_EEEEEEvRSt10shared_ptrI16PseudoPRTreeNodeIdLi6EEET_SH_i.isra.0+0x9e3>
    c2dc:	48 8b 74 24 40       	mov    0x40(%rsp),%rsi
    c2e1:	4c 89 44 24 48       	mov    %r8,0x48(%rsp)
    c2e6:	c5 f8 77             	vzeroupper 
    c2e9:	e8 22 5e ff ff       	callq  2110 <_ZdlPvm@plt>
    c2ee:	4c 8b 44 24 48       	mov    0x48(%rsp),%r8
    c2f3:	48 89 5c 24 40       	mov    %rbx,0x40(%rsp)
    c2f8:	4c 89 44 24 48       	mov    %r8,0x48(%rsp)
    c2fd:	e9 39 f7 ff ff       	jmpq   ba3b <_ZN12PseudoPRTreeIdLi6EE9constructIN9__gnu_cxx17__normal_iteratorIPSt4pairId11BoundingBoxESt6vectorIS6_SaIS6_EEEEEEvRSt10shared_ptrI16PseudoPRTreeNodeIdLi6EEET_SH_i.isra.0+0x12b>
    c302:	c5 f8 77             	vzeroupper 
    c305:	e9 6b f8 ff ff       	jmpq   bb75 <_ZN12PseudoPRTreeIdLi6EE9constructIN9__gnu_cxx17__normal_iteratorIPSt4pairId11BoundingBoxESt6vectorIS6_SaIS6_EEEEEEvRSt10shared_ptrI16PseudoPRTreeNodeIdLi6EEET_SH_i.isra.0+0x265>
    c30a:	41 ff c6             	inc    %r14d
    c30d:	48 83 c3 40          	add    $0x40,%rbx
    c311:	41 83 fe 04          	cmp    $0x4,%r14d
    c315:	74 1d                	je     c334 <_ZN12PseudoPRTreeIdLi6EE9constructIN9__gnu_cxx17__normal_iteratorIPSt4pairId11BoundingBoxESt6vectorIS6_SaIS6_EEEEEEvRSt10shared_ptrI16PseudoPRTreeNodeIdLi6EEET_SH_i.isra.0+0xa24>
    c317:	c5 f8 77             	vzeroupper 
    c31a:	e9 b7 fa ff ff       	jmpq   bdd6 <_ZN12PseudoPRTreeIdLi6EE9constructIN9__gnu_cxx17__normal_iteratorIPSt4pairId11BoundingBoxESt6vectorIS6_SaIS6_EEEEEEvRSt10shared_ptrI16PseudoPRTreeNodeIdLi6EEET_SH_i.isra.0+0x4c6>
    c31f:	41 ff c6             	inc    %r14d
    c322:	48 83 c3 40          	add    $0x40,%rbx
    c326:	41 83 fe 04          	cmp    $0x4,%r14d
    c32a:	74 10                	je     c33c <_ZN12PseudoPRTreeIdLi6EE9constructIN9__gnu_cxx17__normal_iteratorIPSt4pairId11BoundingBoxESt6vectorIS6_SaIS6_EEEEEEvRSt10shared_ptrI16PseudoPRTreeNodeIdLi6EEET_SH_i.isra.0+0xa2c>
    c32c:	c5 f8 77             	vzeroupper 
    c32f:	e9 09 f9 ff ff       	jmpq   bc3d <_ZN12PseudoPRTreeIdLi6EE9constructIN9__gnu_cxx17__normal_iteratorIPSt4pairId11BoundingBoxESt6vectorIS6_SaIS6_EEEEEEvRSt10shared_ptrI16PseudoPRTreeNodeIdLi6EEET_SH_i.isra.0+0x32d>
    c334:	c5 f8 77             	vzeroupper 
    c337:	e9 f1 fa ff ff       	jmpq   be2d <_ZN12PseudoPRTreeIdLi6EE9constructIN9__gnu_cxx17__normal_iteratorIPSt4pairId11BoundingBoxESt6vectorIS6_SaIS6_EEEEEEvRSt10shared_ptrI16PseudoPRTreeNodeIdLi6EEET_SH_i.isra.0+0x51d>
    c33c:	c5 f8 77             	vzeroupper 
    c33f:	e9 50 f9 ff ff       	jmpq   bc94 <_ZN12PseudoPRTreeIdLi6EE9constructIN9__gnu_cxx17__normal_iteratorIPSt4pairId11BoundingBoxESt6vectorIS6_SaIS6_EEEEEEvRSt10shared_ptrI16PseudoPRTreeNodeIdLi6EEET_SH_i.isra.0+0x384>
    c344:	48 8b 54 24 38       	mov    0x38(%rsp),%rdx
    c349:	48 8d 7b 28          	lea    0x28(%rbx),%rdi
    c34d:	4c 89 c6             	mov    %r8,%rsi
    c350:	c5 f8 77             	vzeroupper 
    c353:	e8 88 c6 ff ff       	callq  89e0 <_ZNSt6vectorISt4pairId11BoundingBoxESaIS2_EE17_M_realloc_insertIJRKS2_EEEvN9__gnu_cxx17__normal_iteratorIPS2_S4_EEDpOT_>
    c358:	48 8b 43 28          	mov    0x28(%rbx),%rax
    c35c:	4c 8b 43 30          	mov    0x30(%rbx),%r8
    c360:	e9 fd fb ff ff       	jmpq   bf62 <_ZN12PseudoPRTreeIdLi6EE9constructIN9__gnu_cxx17__normal_iteratorIPSt4pairId11BoundingBoxESt6vectorIS6_SaIS6_EEEEEEvRSt10shared_ptrI16PseudoPRTreeNodeIdLi6EEET_SH_i.isra.0+0x652>
    c365:	48 39 c8             	cmp    %rcx,%rax
    c368:	48 0f 47 c1          	cmova  %rcx,%rax
    c36c:	48 8d 1c 80          	lea    (%rax,%rax,4),%rbx
    c370:	48 c1 e3 03          	shl    $0x3,%rbx
    c374:	48 89 df             	mov    %rbx,%rdi
    c377:	c5 f8 77             	vzeroupper 
    c37a:	e8 81 5d ff ff       	callq  2100 <_Znwm@plt>
    c37f:	49 89 c0             	mov    %rax,%r8
    c382:	48 01 d8             	add    %rbx,%rax
    c385:	48 89 44 24 30       	mov    %rax,0x30(%rsp)
    c38a:	49 8d 50 28          	lea    0x28(%r8),%rdx
    c38e:	e9 8b fe ff ff       	jmpq   c21e <_ZN12PseudoPRTreeIdLi6EE9constructIN9__gnu_cxx17__normal_iteratorIPSt4pairId11BoundingBoxESt6vectorIS6_SaIS6_EEEEEEvRSt10shared_ptrI16PseudoPRTreeNodeIdLi6EEET_SH_i.isra.0+0x90e>
    c393:	48 8d 1c 80          	lea    (%rax,%rax,4),%rbx
    c397:	48 c1 e3 03          	shl    $0x3,%rbx
    c39b:	48 89 df             	mov    %rbx,%rdi
    c39e:	e8 5d 5d ff ff       	callq  2100 <_Znwm@plt>
    c3a3:	48 8d 34 18          	lea    (%rax,%rbx,1),%rsi
    c3a7:	49 89 c7             	mov    %rax,%r15
    c3aa:	48 89 5c 24 40       	mov    %rbx,0x40(%rsp)
    c3af:	48 89 74 24 30       	mov    %rsi,0x30(%rsp)
    c3b4:	4c 39 64 24 28       	cmp    %r12,0x28(%rsp)
    c3b9:	0f 85 f3 f5 ff ff    	jne    b9b2 <_ZN12PseudoPRTreeIdLi6EE9constructIN9__gnu_cxx17__normal_iteratorIPSt4pairId11BoundingBoxESt6vectorIS6_SaIS6_EEEEEEvRSt10shared_ptrI16PseudoPRTreeNodeIdLi6EEET_SH_i.isra.0+0xa2>
    c3bf:	48 89 44 24 48       	mov    %rax,0x48(%rsp)
    c3c4:	e9 d8 fa ff ff       	jmpq   bea1 <_ZN12PseudoPRTreeIdLi6EE9constructIN9__gnu_cxx17__normal_iteratorIPSt4pairId11BoundingBoxESt6vectorIS6_SaIS6_EEEEEEvRSt10shared_ptrI16PseudoPRTreeNodeIdLi6EEET_SH_i.isra.0+0x591>
    c3c9:	49 8b 06             	mov    (%r14),%rax
    c3cc:	4c 89 f7             	mov    %r14,%rdi
    c3cf:	ff 50 10             	callq  *0x10(%rax)
    c3d2:	48 85 db             	test   %rbx,%rbx
    c3d5:	0f 85 8c 00 00 00    	jne    c467 <_ZN12PseudoPRTreeIdLi6EE9constructIN9__gnu_cxx17__normal_iteratorIPSt4pairId11BoundingBoxESt6vectorIS6_SaIS6_EEEEEEvRSt10shared_ptrI16PseudoPRTreeNodeIdLi6EEET_SH_i.isra.0+0xb57>
    c3db:	41 8b 46 0c          	mov    0xc(%r14),%eax
    c3df:	8d 50 ff             	lea    -0x1(%rax),%edx
    c3e2:	41 89 56 0c          	mov    %edx,0xc(%r14)
    c3e6:	83 f8 01             	cmp    $0x1,%eax
    c3e9:	0f 85 8a fa ff ff    	jne    be79 <_ZN12PseudoPRTreeIdLi6EE9constructIN9__gnu_cxx17__normal_iteratorIPSt4pairId11BoundingBoxESt6vectorIS6_SaIS6_EEEEEEvRSt10shared_ptrI16PseudoPRTreeNodeIdLi6EEET_SH_i.isra.0+0x569>
    c3ef:	49 8b 06             	mov    (%r14),%rax
    c3f2:	4c 89 f7             	mov    %r14,%rdi
    c3f5:	ff 50 18             	callq  *0x18(%rax)
    c3f8:	e9 7c fa ff ff       	jmpq   be79 <_ZN12PseudoPRTreeIdLi6EE9constructIN9__gnu_cxx17__normal_iteratorIPSt4pairId11BoundingBoxESt6vectorIS6_SaIS6_EEEEEEvRSt10shared_ptrI16PseudoPRTreeNodeIdLi6EEET_SH_i.isra.0+0x569>
    c3fd:	49 8b 06             	mov    (%r14),%rax
    c400:	4c 89 f7             	mov    %r14,%rdi
    c403:	ff 50 10             	callq  *0x10(%rax)
    c406:	48 85 db             	test   %rbx,%rbx
    c409:	75 4f                	jne    c45a <_ZN12PseudoPRTreeIdLi6EE9constructIN9__gnu_cxx17__normal_iteratorIPSt4pairId11BoundingBoxESt6vectorIS6_SaIS6_EEEEEEvRSt10shared_ptrI16PseudoPRTreeNodeIdLi6EEET_SH_i.isra.0+0xb4a>
    c40b:	41 8b 46 0c          	mov    0xc(%r14),%eax
    c40f:	8d 50 ff             	lea    -0x1(%rax),%edx
    c412:	41 89 56 0c          	mov    %edx,0xc(%r14)
    c416:	83 f8 01             	cmp    $0x1,%eax
    c419:	0f 85 c1 f8 ff ff    	jne    bce0 <_ZN12PseudoPRTreeIdLi6EE9constructIN9__gnu_cxx17__normal_iteratorIPSt4pairId11BoundingBoxESt6vectorIS6_SaIS6_EEEEEEvRSt10shared_ptrI16PseudoPRTreeNodeIdLi6EEET_SH_i.isra.0+0x3d0>
    c41f:	49 8b 06             	mov    (%r14),%rax
    c422:	4c 89 f7             	mov    %r14,%rdi
    c425:	ff 50 18             	callq  *0x18(%rax)
    c428:	e9 b3 f8 ff ff       	jmpq   bce0 <_ZN12PseudoPRTreeIdLi6EE9constructIN9__gnu_cxx17__normal_iteratorIPSt4pairId11BoundingBoxESt6vectorIS6_SaIS6_EEEEEEvRSt10shared_ptrI16PseudoPRTreeNodeIdLi6EEET_SH_i.isra.0+0x3d0>
    c42d:	b8 ff ff ff ff       	mov    $0xffffffff,%eax
    c432:	f0 41 0f c1 46 08    	lock xadd %eax,0x8(%r14)
    c438:	e9 33 fa ff ff       	jmpq   be70 <_ZN12PseudoPRTreeIdLi6EE9constructIN9__gnu_cxx17__normal_iteratorIPSt4pairId11BoundingBoxESt6vectorIS6_SaIS6_EEEEEEvRSt10shared_ptrI16PseudoPRTreeNodeIdLi6EEET_SH_i.isra.0+0x560>
    c43d:	b8 ff ff ff ff       	mov    $0xffffffff,%eax
    c442:	f0 41 0f c1 46 08    	lock xadd %eax,0x8(%r14)
    c448:	e9 8a f8 ff ff       	jmpq   bcd7 <_ZN12PseudoPRTreeIdLi6EE9constructIN9__gnu_cxx17__normal_iteratorIPSt4pairId11BoundingBoxESt6vectorIS6_SaIS6_EEEEEEvRSt10shared_ptrI16PseudoPRTreeNodeIdLi6EEET_SH_i.isra.0+0x3c7>
    c44d:	49 89 d7             	mov    %rdx,%r15
    c450:	4c 89 44 24 38       	mov    %r8,0x38(%rsp)
    c455:	e9 78 fe ff ff       	jmpq   c2d2 <_ZN12PseudoPRTreeIdLi6EE9constructIN9__gnu_cxx17__normal_iteratorIPSt4pairId11BoundingBoxESt6vectorIS6_SaIS6_EEEEEEvRSt10shared_ptrI16PseudoPRTreeNodeIdLi6EEET_SH_i.isra.0+0x9c2>
    c45a:	b8 ff ff ff ff       	mov    $0xffffffff,%eax
    c45f:	f0 41 0f c1 46 0c    	lock xadd %eax,0xc(%r14)
    c465:	eb af                	jmp    c416 <_ZN12PseudoPRTreeIdLi6EE9constructIN9__gnu_cxx17__normal_iteratorIPSt4pairId11BoundingBoxESt6vectorIS6_SaIS6_EEEEEEvRSt10shared_ptrI16PseudoPRTreeNodeIdLi6EEET_SH_i.isra.0+0xb06>
    c467:	b8 ff ff ff ff       	mov    $0xffffffff,%eax
    c46c:	f0 41 0f c1 46 0c    	lock xadd %eax,0xc(%r14)
    c472:	e9 6f ff ff ff       	jmpq   c3e6 <_ZN12PseudoPRTreeIdLi6EE9constructIN9__gnu_cxx17__normal_iteratorIPSt4pairId11BoundingBoxESt6vectorIS6_SaIS6_EEEEEEvRSt10shared_ptrI16PseudoPRTreeNodeIdLi6EEET_SH_i.isra.0+0xad6>
    c477:	48 8d 3d ba 3b 00 00 	lea    0x3bba(%rip),%rdi        # 10038 <_IO_stdin_used+0x38>
    c47e:	c5 f8 77             	vzeroupper 
    c481:	e8 0a 5c ff ff       	callq  2090 <_ZSt20__throw_length_errorPKc@plt>
    c486:	e8 95 5c ff ff       	callq  2120 <__stack_chk_fail@plt>
    c48b:	48 bb f8 ff ff ff ff 	movabs $0x7ffffffffffffff8,%rbx
    c492:	ff ff 7f 
    c495:	e9 da fe ff ff       	jmpq   c374 <_ZN12PseudoPRTreeIdLi6EE9constructIN9__gnu_cxx17__normal_iteratorIPSt4pairId11BoundingBoxESt6vectorIS6_SaIS6_EEEEEEvRSt10shared_ptrI16PseudoPRTreeNodeIdLi6EEET_SH_i.isra.0+0xa64>
    c49a:	48 8d 3d c9 3b 00 00 	lea    0x3bc9(%rip),%rdi        # 1006a <_IO_stdin_used+0x6a>
    c4a1:	e8 ea 5b ff ff       	callq  2090 <_ZSt20__throw_length_errorPKc@plt>
    c4a6:	49 89 c4             	mov    %rax,%r12
    c4a9:	eb 11                	jmp    c4bc <_ZN12PseudoPRTreeIdLi6EE9constructIN9__gnu_cxx17__normal_iteratorIPSt4pairId11BoundingBoxESt6vectorIS6_SaIS6_EEEEEEvRSt10shared_ptrI16PseudoPRTreeNodeIdLi6EEET_SH_i.isra.0+0xbac>
    c4ab:	49 89 c4             	mov    %rax,%r12
    c4ae:	eb 77                	jmp    c527 <_ZN12PseudoPRTreeIdLi6EE9constructIN9__gnu_cxx17__normal_iteratorIPSt4pairId11BoundingBoxESt6vectorIS6_SaIS6_EEEEEEvRSt10shared_ptrI16PseudoPRTreeNodeIdLi6EEET_SH_i.isra.0+0xc17>
    c4b0:	48 89 c3             	mov    %rax,%rbx
    c4b3:	eb 4b                	jmp    c500 <_ZN12PseudoPRTreeIdLi6EE9constructIN9__gnu_cxx17__normal_iteratorIPSt4pairId11BoundingBoxESt6vectorIS6_SaIS6_EEEEEEvRSt10shared_ptrI16PseudoPRTreeNodeIdLi6EEET_SH_i.isra.0+0xbf0>
    c4b5:	48 89 c3             	mov    %rax,%rbx
    c4b8:	eb 0d                	jmp    c4c7 <_ZN12PseudoPRTreeIdLi6EE9constructIN9__gnu_cxx17__normal_iteratorIPSt4pairId11BoundingBoxESt6vectorIS6_SaIS6_EEEEEEvRSt10shared_ptrI16PseudoPRTreeNodeIdLi6EEET_SH_i.isra.0+0xbb7>
    c4ba:	eb f9                	jmp    c4b5 <_ZN12PseudoPRTreeIdLi6EE9constructIN9__gnu_cxx17__normal_iteratorIPSt4pairId11BoundingBoxESt6vectorIS6_SaIS6_EEEEEEvRSt10shared_ptrI16PseudoPRTreeNodeIdLi6EEET_SH_i.isra.0+0xba5>
    c4bc:	c5 f8 77             	vzeroupper 
    c4bf:	4c 89 e7             	mov    %r12,%rdi
    c4c2:	e8 29 5d ff ff       	callq  21f0 <_Unwind_Resume@plt>
    c4c7:	49 8b bc 24 28 01 00 	mov    0x128(%r12),%rdi
    c4ce:	00 
    c4cf:	48 85 ff             	test   %rdi,%rdi
    c4d2:	74 75                	je     c549 <_ZN12PseudoPRTreeIdLi6EE9constructIN9__gnu_cxx17__normal_iteratorIPSt4pairId11BoundingBoxESt6vectorIS6_SaIS6_EEEEEEvRSt10shared_ptrI16PseudoPRTreeNodeIdLi6EEET_SH_i.isra.0+0xc39>
    c4d4:	c5 f8 77             	vzeroupper 
    c4d7:	e8 84 93 ff ff       	callq  5860 <_ZNSt16_Sp_counted_baseILN9__gnu_cxx12_Lock_policyE2EE10_M_releaseEv>
    c4dc:	49 8b bc 24 18 01 00 	mov    0x118(%r12),%rdi
    c4e3:	00 
    c4e4:	48 85 ff             	test   %rdi,%rdi
    c4e7:	75 65                	jne    c54e <_ZN12PseudoPRTreeIdLi6EE9constructIN9__gnu_cxx17__normal_iteratorIPSt4pairId11BoundingBoxESt6vectorIS6_SaIS6_EEEEEEvRSt10shared_ptrI16PseudoPRTreeNodeIdLi6EEET_SH_i.isra.0+0xc3e>
    c4e9:	48 8b 7c 24 38       	mov    0x38(%rsp),%rdi
    c4ee:	e8 cd f3 ff ff       	callq  b8c0 <_ZNSt5arrayI4LeafIdLi6EELm4EED1Ev>
    c4f3:	be 30 01 00 00       	mov    $0x130,%esi
    c4f8:	4c 89 e7             	mov    %r12,%rdi
    c4fb:	e8 10 5c ff ff       	callq  2110 <_ZdlPvm@plt>
    c500:	48 83 7c 24 48 00    	cmpq   $0x0,0x48(%rsp)
    c506:	74 1a                	je     c522 <_ZN12PseudoPRTreeIdLi6EE9constructIN9__gnu_cxx17__normal_iteratorIPSt4pairId11BoundingBoxESt6vectorIS6_SaIS6_EEEEEEvRSt10shared_ptrI16PseudoPRTreeNodeIdLi6EEET_SH_i.isra.0+0xc12>
    c508:	48 8b 74 24 40       	mov    0x40(%rsp),%rsi
    c50d:	48 8b 7c 24 48       	mov    0x48(%rsp),%rdi
    c512:	c5 f8 77             	vzeroupper 
    c515:	e8 f6 5b ff ff       	callq  2110 <_ZdlPvm@plt>
    c51a:	48 89 df             	mov    %rbx,%rdi
    c51d:	e8 ce 5c ff ff       	callq  21f0 <_Unwind_Resume@plt>
    c522:	c5 f8 77             	vzeroupper 
    c525:	eb f3                	jmp    c51a <_ZN12PseudoPRTreeIdLi6EE9constructIN9__gnu_cxx17__normal_iteratorIPSt4pairId11BoundingBoxESt6vectorIS6_SaIS6_EEEEEEvRSt10shared_ptrI16PseudoPRTreeNodeIdLi6EEET_SH_i.isra.0+0xc0a>
    c527:	48 8b 74 24 30       	mov    0x30(%rsp),%rsi
    c52c:	48 8b 44 24 48       	mov    0x48(%rsp),%rax
    c531:	48 29 c6             	sub    %rax,%rsi
    c534:	48 85 c0             	test   %rax,%rax
    c537:	74 83                	je     c4bc <_ZN12PseudoPRTreeIdLi6EE9constructIN9__gnu_cxx17__normal_iteratorIPSt4pairId11BoundingBoxESt6vectorIS6_SaIS6_EEEEEEvRSt10shared_ptrI16PseudoPRTreeNodeIdLi6EEET_SH_i.isra.0+0xbac>
    c539:	48 89 c7             	mov    %rax,%rdi
    c53c:	c5 f8 77             	vzeroupper 
    c53f:	e8 cc 5b ff ff       	callq  2110 <_ZdlPvm@plt>
    c544:	e9 76 ff ff ff       	jmpq   c4bf <_ZN12PseudoPRTreeIdLi6EE9constructIN9__gnu_cxx17__normal_iteratorIPSt4pairId11BoundingBoxESt6vectorIS6_SaIS6_EEEEEEvRSt10shared_ptrI16PseudoPRTreeNodeIdLi6EEET_SH_i.isra.0+0xbaf>
    c549:	c5 f8 77             	vzeroupper 
    c54c:	eb 8e                	jmp    c4dc <_ZN12PseudoPRTreeIdLi6EE9constructIN9__gnu_cxx17__normal_iteratorIPSt4pairId11BoundingBoxESt6vectorIS6_SaIS6_EEEEEEvRSt10shared_ptrI16PseudoPRTreeNodeIdLi6EEET_SH_i.isra.0+0xbcc>
    c54e:	e8 0d 93 ff ff       	callq  5860 <_ZNSt16_Sp_counted_baseILN9__gnu_cxx12_Lock_policyE2EE10_M_releaseEv>
    c553:	eb 94                	jmp    c4e9 <_ZN12PseudoPRTreeIdLi6EE9constructIN9__gnu_cxx17__normal_iteratorIPSt4pairId11BoundingBoxESt6vectorIS6_SaIS6_EEEEEEvRSt10shared_ptrI16PseudoPRTreeNodeIdLi6EEET_SH_i.isra.0+0xbd9>
    c555:	66 2e 0f 1f 84 00 00 	nopw   %cs:0x0(%rax,%rax,1)
    c55c:	00 00 00 
    c55f:	90                   	nop

000000000000c560 <_ZN6PRTreeIdLi6EEC1ERSt6vectorISt4pairId11BoundingBoxESaIS4_EE>:
    c560:	55                   	push   %rbp
    c561:	c5 f9 ef c0          	vpxor  %xmm0,%xmm0,%xmm0
    c565:	48 89 e5             	mov    %rsp,%rbp
    c568:	41 57                	push   %r15
    c56a:	41 56                	push   %r14
    c56c:	41 55                	push   %r13
    c56e:	41 54                	push   %r12
    c570:	49 89 f4             	mov    %rsi,%r12
    c573:	53                   	push   %rbx
    c574:	48 83 e4 e0          	and    $0xffffffffffffffe0,%rsp
    c578:	48 81 ec e0 01 00 00 	sub    $0x1e0,%rsp
    c57f:	48 89 7c 24 18       	mov    %rdi,0x18(%rsp)
    c584:	48 8d 94 24 70 01 00 	lea    0x170(%rsp),%rdx
    c58b:	00 
    c58c:	48 8d b4 24 90 01 00 	lea    0x190(%rsp),%rsi
    c593:	00 
    c594:	64 48 8b 04 25 28 00 	mov    %fs:0x28,%rax
    c59b:	00 00 
    c59d:	48 89 84 24 d8 01 00 	mov    %rax,0x1d8(%rsp)
    c5a4:	00 
    c5a5:	31 c0                	xor    %eax,%eax
    c5a7:	48 8d 84 24 98 01 00 	lea    0x198(%rsp),%rax
    c5ae:	00 
    c5af:	48 c7 07 00 00 00 00 	movq   $0x0,(%rdi)
    c5b6:	c5 f9 7f 84 24 b0 00 	vmovdqa %xmm0,0xb0(%rsp)
    c5bd:	00 00 
    c5bf:	48 89 54 24 50       	mov    %rdx,0x50(%rsp)
    c5c4:	48 89 c7             	mov    %rax,%rdi
    c5c7:	48 c7 84 24 90 01 00 	movq   $0x0,0x190(%rsp)
    c5ce:	00 00 00 00 00 
    c5d3:	48 89 74 24 60       	mov    %rsi,0x60(%rsp)
    c5d8:	48 89 44 24 30       	mov    %rax,0x30(%rsp)
    c5dd:	e8 ce e4 ff ff       	callq  aab0 <_ZNSt14__shared_countILN9__gnu_cxx12_Lock_policyE2EEC1I16PseudoPRTreeNodeIiLi6EESaIS5_EJEEERPT_St20_Sp_alloc_shared_tagIT0_EDpOT1_>
    c5e2:	c5 f9 6f 84 24 90 01 	vmovdqa 0x190(%rsp),%xmm0
    c5e9:	00 00 
    c5eb:	48 8b bc 24 b8 00 00 	mov    0xb8(%rsp),%rdi
    c5f2:	00 
    c5f3:	c5 f1 ef c9          	vpxor  %xmm1,%xmm1,%xmm1
    c5f7:	c5 f9 7f 8c 24 90 01 	vmovdqa %xmm1,0x190(%rsp)
    c5fe:	00 00 
    c600:	c5 f9 7f 84 24 b0 00 	vmovdqa %xmm0,0xb0(%rsp)
    c607:	00 00 
    c609:	48 85 ff             	test   %rdi,%rdi
    c60c:	74 17                	je     c625 <_ZN6PRTreeIdLi6EEC1ERSt6vectorISt4pairId11BoundingBoxESaIS4_EE+0xc5>
    c60e:	e8 4d 92 ff ff       	callq  5860 <_ZNSt16_Sp_counted_baseILN9__gnu_cxx12_Lock_policyE2EE10_M_releaseEv>
    c613:	48 8b bc 24 98 01 00 	mov    0x198(%rsp),%rdi
    c61a:	00 
    c61b:	48 85 ff             	test   %rdi,%rdi
    c61e:	74 05                	je     c625 <_ZN6PRTreeIdLi6EEC1ERSt6vectorISt4pairId11BoundingBoxESaIS4_EE+0xc5>
    c620:	e8 3b 92 ff ff       	callq  5860 <_ZNSt16_Sp_counted_baseILN9__gnu_cxx12_Lock_policyE2EE10_M_releaseEv>
    c625:	48 8b 7c 24 50       	mov    0x50(%rsp),%rdi
    c62a:	c5 f9 ef c0          	vpxor  %xmm0,%xmm0,%xmm0
    c62e:	4c 89 e6             	mov    %r12,%rsi
    c631:	48 c7 84 24 e0 00 00 	movq   $0x0,0xe0(%rsp)
    c638:	00 00 00 00 00 
    c63d:	c5 f9 7f 84 24 d0 00 	vmovdqa %xmm0,0xd0(%rsp)
    c644:	00 00 
    c646:	c5 f9 7f 84 24 f0 00 	vmovdqa %xmm0,0xf0(%rsp)
    c64d:	00 00 
    c64f:	48 c7 84 24 00 01 00 	movq   $0x0,0x100(%rsp)
    c656:	00 00 00 00 00 
    c65b:	c5 f9 7f 84 24 10 01 	vmovdqa %xmm0,0x110(%rsp)
    c662:	00 00 
    c664:	48 c7 84 24 20 01 00 	movq   $0x0,0x120(%rsp)
    c66b:	00 00 00 00 00 
    c670:	48 c7 84 24 98 00 00 	movq   $0x0,0x98(%rsp)
    c677:	00 00 00 00 00 
    c67c:	48 c7 84 24 a0 00 00 	movq   $0x0,0xa0(%rsp)
    c683:	00 00 00 00 00 
    c688:	48 c7 84 24 a8 00 00 	movq   $0x0,0xa8(%rsp)
    c68f:	00 00 00 00 00 
    c694:	e8 87 88 ff ff       	callq  4f20 <_ZNSt6vectorISt4pairId11BoundingBoxESaIS2_EEC1ERKS4_>
    c699:	c5 f9 ef c0          	vpxor  %xmm0,%xmm0,%xmm0
    c69d:	bf 30 01 00 00       	mov    $0x130,%edi
    c6a2:	c5 f9 7f 84 24 c0 00 	vmovdqa %xmm0,0xc0(%rsp)
    c6a9:	00 00 
    c6ab:	e8 50 5a ff ff       	callq  2100 <_Znwm@plt>
    c6b0:	49 89 c4             	mov    %rax,%r12
    c6b3:	48 8b 05 36 3c 00 00 	mov    0x3c36(%rip),%rax        # 102f0 <_ZZNSt19_Sp_make_shared_tag5_S_tiEvE5__tag+0xf0>
    c6ba:	c5 f9 ef c0          	vpxor  %xmm0,%xmm0,%xmm0
    c6be:	45 31 ed             	xor    %r13d,%r13d
    c6c1:	4d 8d 74 24 10       	lea    0x10(%r12),%r14
    c6c6:	c4 c1 7a 7f 44 24 38 	vmovdqu %xmm0,0x38(%r12)
    c6cd:	c4 c1 7a 7f 44 24 78 	vmovdqu %xmm0,0x78(%r12)
    c6d4:	c4 c1 7a 7f 84 24 b8 	vmovdqu %xmm0,0xb8(%r12)
    c6db:	00 00 00 
    c6de:	c4 c1 7a 7f 84 24 f8 	vmovdqu %xmm0,0xf8(%r12)
    c6e5:	00 00 00 
    c6e8:	4c 89 f3             	mov    %r14,%rbx
    c6eb:	c5 f9 ef c0          	vpxor  %xmm0,%xmm0,%xmm0
    c6ef:	41 c7 44 24 10 00 00 	movl   $0x0,0x10(%r12)
    c6f6:	00 00 
    c6f8:	49 c7 44 24 48 00 00 	movq   $0x0,0x48(%r12)
    c6ff:	00 00 
    c701:	41 c7 44 24 50 00 00 	movl   $0x0,0x50(%r12)
    c708:	00 00 
    c70a:	49 c7 84 24 88 00 00 	movq   $0x0,0x88(%r12)
    c711:	00 00 00 00 00 
    c716:	49 89 44 24 08       	mov    %rax,0x8(%r12)
    c71b:	48 8d 05 e6 64 00 00 	lea    0x64e6(%rip),%rax        # 12c08 <_ZTVSt23_Sp_counted_ptr_inplaceI16PseudoPRTreeNodeIdLi6EESaIS1_ELN9__gnu_cxx12_Lock_policyE2EE+0x10>
    c722:	41 c7 84 24 90 00 00 	movl   $0x0,0x90(%r12)
    c729:	00 00 00 00 00 
    c72e:	49 c7 84 24 c8 00 00 	movq   $0x0,0xc8(%r12)
    c735:	00 00 00 00 00 
    c73a:	49 89 04 24          	mov    %rax,(%r12)
    c73e:	41 c7 84 24 d0 00 00 	movl   $0x0,0xd0(%r12)
    c745:	00 00 00 00 00 
    c74a:	49 c7 84 24 08 01 00 	movq   $0x0,0x108(%r12)
    c751:	00 00 00 00 00 
    c756:	c4 c1 7e 7f 84 24 10 	vmovdqu %ymm0,0x110(%r12)
    c75d:	01 00 00 
    c760:	c5 f8 77             	vzeroupper 
    c763:	bf f0 00 00 00       	mov    $0xf0,%edi
    c768:	e8 93 59 ff ff       	callq  2100 <_Znwm@plt>
    c76d:	48 8b 7b 28          	mov    0x28(%rbx),%rdi
    c771:	c5 f9 57 c0          	vxorpd %xmm0,%xmm0,%xmm0
    c775:	c4 e1 f9 6e d0       	vmovq  %rax,%xmm2
    c77a:	48 05 f0 00 00 00    	add    $0xf0,%rax
    c780:	c5 fd 11 43 08       	vmovupd %ymm0,0x8(%rbx)
    c785:	c5 e9 6c c2          	vpunpcklqdq %xmm2,%xmm2,%xmm0
    c789:	48 8b 73 38          	mov    0x38(%rbx),%rsi
    c78d:	44 89 2b             	mov    %r13d,(%rbx)
    c790:	c5 fa 7f 43 28       	vmovdqu %xmm0,0x28(%rbx)
    c795:	48 89 43 38          	mov    %rax,0x38(%rbx)
    c799:	48 85 ff             	test   %rdi,%rdi
    c79c:	0f 84 dc 2e 00 00    	je     f67e <_ZN6PRTreeIdLi6EEC1ERSt6vectorISt4pairId11BoundingBoxESaIS4_EE+0x311e>
    c7a2:	48 29 fe             	sub    %rdi,%rsi
    c7a5:	c5 f8 77             	vzeroupper 
    c7a8:	41 ff c5             	inc    %r13d
    c7ab:	e8 60 59 ff ff       	callq  2110 <_ZdlPvm@plt>
    c7b0:	48 83 c3 40          	add    $0x40,%rbx
    c7b4:	41 83 fd 04          	cmp    $0x4,%r13d
    c7b8:	75 a9                	jne    c763 <_ZN6PRTreeIdLi6EEC1ERSt6vectorISt4pairId11BoundingBoxESaIS4_EE+0x203>
    c7ba:	48 8b bc 24 c8 00 00 	mov    0xc8(%rsp),%rdi
    c7c1:	00 
    c7c2:	c4 c1 f9 6e de       	vmovq  %r14,%xmm3
    c7c7:	c4 c3 e1 22 c4 01    	vpinsrq $0x1,%r12,%xmm3,%xmm0
    c7cd:	c5 f9 7f 84 24 c0 00 	vmovdqa %xmm0,0xc0(%rsp)
    c7d4:	00 00 
    c7d6:	48 85 ff             	test   %rdi,%rdi
    c7d9:	74 05                	je     c7e0 <_ZN6PRTreeIdLi6EEC1ERSt6vectorISt4pairId11BoundingBoxESaIS4_EE+0x280>
    c7db:	e8 80 90 ff ff       	callq  5860 <_ZNSt16_Sp_counted_baseILN9__gnu_cxx12_Lock_policyE2EE10_M_releaseEv>
    c7e0:	48 8b 94 24 78 01 00 	mov    0x178(%rsp),%rdx
    c7e7:	00 
    c7e8:	48 8b b4 24 70 01 00 	mov    0x170(%rsp),%rsi
    c7ef:	00 
    c7f0:	48 8d 84 24 c0 00 00 	lea    0xc0(%rsp),%rax
    c7f7:	00 
    c7f8:	31 c9                	xor    %ecx,%ecx
    c7fa:	48 89 c7             	mov    %rax,%rdi
    c7fd:	48 89 c3             	mov    %rax,%rbx
    c800:	48 89 84 24 80 00 00 	mov    %rax,0x80(%rsp)
    c807:	00 
    c808:	e8 03 f1 ff ff       	callq  b910 <_ZN12PseudoPRTreeIdLi6EE9constructIN9__gnu_cxx17__normal_iteratorIPSt4pairId11BoundingBoxESt6vectorIS6_SaIS6_EEEEEEvRSt10shared_ptrI16PseudoPRTreeNodeIdLi6EEET_SH_i.isra.0>
    c80d:	48 8b 7c 24 60       	mov    0x60(%rsp),%rdi
    c812:	48 89 de             	mov    %rbx,%rsi
    c815:	e8 06 94 ff ff       	callq  5c20 <_ZN12PseudoPRTreeIdLi6EE14get_all_leavesEv>
    c81a:	48 8b 9c 24 98 01 00 	mov    0x198(%rsp),%rbx
    c821:	00 
    c822:	4c 8b a4 24 90 01 00 	mov    0x190(%rsp),%r12
    c829:	00 
    c82a:	4c 39 e3             	cmp    %r12,%rbx
    c82d:	74 2d                	je     c85c <_ZN6PRTreeIdLi6EEC1ERSt6vectorISt4pairId11BoundingBoxESaIS4_EE+0x2fc>
    c82f:	90                   	nop
    c830:	49 8b 7c 24 28       	mov    0x28(%r12),%rdi
    c835:	48 85 ff             	test   %rdi,%rdi
    c838:	0f 84 b4 2c 00 00    	je     f4f2 <_ZN6PRTreeIdLi6EEC1ERSt6vectorISt4pairId11BoundingBoxESaIS4_EE+0x2f92>
    c83e:	49 8b 74 24 38       	mov    0x38(%r12),%rsi
    c843:	49 83 c4 40          	add    $0x40,%r12
    c847:	48 29 fe             	sub    %rdi,%rsi
    c84a:	e8 c1 58 ff ff       	callq  2110 <_ZdlPvm@plt>
    c84f:	4c 39 e3             	cmp    %r12,%rbx
    c852:	75 dc                	jne    c830 <_ZN6PRTreeIdLi6EEC1ERSt6vectorISt4pairId11BoundingBoxESaIS4_EE+0x2d0>
    c854:	4c 8b a4 24 90 01 00 	mov    0x190(%rsp),%r12
    c85b:	00 
    c85c:	4d 85 e4             	test   %r12,%r12
    c85f:	74 13                	je     c874 <_ZN6PRTreeIdLi6EEC1ERSt6vectorISt4pairId11BoundingBoxESaIS4_EE+0x314>
    c861:	48 8b b4 24 a0 01 00 	mov    0x1a0(%rsp),%rsi
    c868:	00 
    c869:	4c 89 e7             	mov    %r12,%rdi
    c86c:	4c 29 e6             	sub    %r12,%rsi
    c86f:	e8 9c 58 ff ff       	callq  2110 <_ZdlPvm@plt>
    c874:	48 8b bc 24 70 01 00 	mov    0x170(%rsp),%rdi
    c87b:	00 
    c87c:	48 85 ff             	test   %rdi,%rdi
    c87f:	74 10                	je     c891 <_ZN6PRTreeIdLi6EEC1ERSt6vectorISt4pairId11BoundingBoxESaIS4_EE+0x331>
    c881:	48 8b b4 24 80 01 00 	mov    0x180(%rsp),%rsi
    c888:	00 
    c889:	48 29 fe             	sub    %rdi,%rsi
    c88c:	e8 7f 58 ff ff       	callq  2110 <_ZdlPvm@plt>
    c891:	48 8b b4 24 80 00 00 	mov    0x80(%rsp),%rsi
    c898:	00 
    c899:	48 8b 7c 24 50       	mov    0x50(%rsp),%rdi
    c89e:	e8 7d 93 ff ff       	callq  5c20 <_ZN12PseudoPRTreeIdLi6EE14get_all_leavesEv>
    c8a3:	48 8b 84 24 78 01 00 	mov    0x178(%rsp),%rax
    c8aa:	00 
    c8ab:	4c 8b bc 24 70 01 00 	mov    0x170(%rsp),%r15
    c8b2:	00 
    c8b3:	48 89 44 24 70       	mov    %rax,0x70(%rsp)
    c8b8:	49 39 c7             	cmp    %rax,%r15
    c8bb:	48 8d 84 24 98 00 00 	lea    0x98(%rsp),%rax
    c8c2:	00 
    c8c3:	48 89 44 24 48       	mov    %rax,0x48(%rsp)
    c8c8:	48 8d 84 24 10 01 00 	lea    0x110(%rsp),%rax
    c8cf:	00 
    c8d0:	48 89 44 24 28       	mov    %rax,0x28(%rsp)
    c8d5:	0f 84 e6 03 00 00    	je     ccc1 <_ZN6PRTreeIdLi6EEC1ERSt6vectorISt4pairId11BoundingBoxESaIS4_EE+0x761>
    c8db:	48 8d 84 24 50 01 00 	lea    0x150(%rsp),%rax
    c8e2:	00 
    c8e3:	48 89 84 24 88 00 00 	mov    %rax,0x88(%rsp)
    c8ea:	00 
    c8eb:	0f 1f 44 00 00       	nopl   0x0(%rax,%rax,1)
    c8f0:	bf 38 00 00 00       	mov    $0x38,%edi
    c8f5:	e8 06 58 ff ff       	callq  2100 <_Znwm@plt>
    c8fa:	c5 f1 ef c9          	vpxor  %xmm1,%xmm1,%xmm1
    c8fe:	48 c7 40 30 00 00 00 	movq   $0x0,0x30(%rax)
    c905:	00 
    c906:	bf 40 00 00 00       	mov    $0x40,%edi
    c90b:	49 89 c5             	mov    %rax,%r13
    c90e:	c5 fa 7f 48 20       	vmovdqu %xmm1,0x20(%rax)
    c913:	e8 e8 57 ff ff       	callq  2100 <_Znwm@plt>
    c918:	4d 8b 65 20          	mov    0x20(%r13),%r12
    c91c:	c5 f1 ef c9          	vpxor  %xmm1,%xmm1,%xmm1
    c920:	48 89 c3             	mov    %rax,%rbx
    c923:	c7 00 00 00 00 00    	movl   $0x0,(%rax)
    c929:	c5 fa 7f 48 28       	vmovdqu %xmm1,0x28(%rax)
    c92e:	48 c7 40 38 00 00 00 	movq   $0x0,0x38(%rax)
    c935:	00 
    c936:	49 89 45 20          	mov    %rax,0x20(%r13)
    c93a:	4d 85 e4             	test   %r12,%r12
    c93d:	74 28                	je     c967 <_ZN6PRTreeIdLi6EEC1ERSt6vectorISt4pairId11BoundingBoxESaIS4_EE+0x407>
    c93f:	49 8b 7c 24 28       	mov    0x28(%r12),%rdi
    c944:	48 85 ff             	test   %rdi,%rdi
    c947:	74 0d                	je     c956 <_ZN6PRTreeIdLi6EEC1ERSt6vectorISt4pairId11BoundingBoxESaIS4_EE+0x3f6>
    c949:	49 8b 74 24 38       	mov    0x38(%r12),%rsi
    c94e:	48 29 fe             	sub    %rdi,%rsi
    c951:	e8 ba 57 ff ff       	callq  2110 <_ZdlPvm@plt>
    c956:	be 40 00 00 00       	mov    $0x40,%esi
    c95b:	4c 89 e7             	mov    %r12,%rdi
    c95e:	e8 ad 57 ff ff       	callq  2110 <_ZdlPvm@plt>
    c963:	49 8b 5d 20          	mov    0x20(%r13),%rbx
    c967:	c4 c1 7a 6f 57 08    	vmovdqu 0x8(%r15),%xmm2
    c96d:	4d 8b 67 28          	mov    0x28(%r15),%r12
    c971:	4d 8b 77 30          	mov    0x30(%r15),%r14
    c975:	c5 fa 7f 53 08       	vmovdqu %xmm2,0x8(%rbx)
    c97a:	c4 c1 7a 6f 4f 18    	vmovdqu 0x18(%r15),%xmm1
    c980:	c5 fa 7f 4b 18       	vmovdqu %xmm1,0x18(%rbx)
    c985:	c4 c1 7a 6f 47 08    	vmovdqu 0x8(%r15),%xmm0
    c98b:	c4 c1 7a 7f 45 00    	vmovdqu %xmm0,0x0(%r13)
    c991:	c4 c1 7a 6f 5f 18    	vmovdqu 0x18(%r15),%xmm3
    c997:	c4 c1 7a 7f 5d 10    	vmovdqu %xmm3,0x10(%r13)
    c99d:	4d 39 f4             	cmp    %r14,%r12
    c9a0:	0f 84 0d 02 00 00    	je     cbb3 <_ZN6PRTreeIdLi6EEC1ERSt6vectorISt4pairId11BoundingBoxESaIS4_EE+0x653>
    c9a6:	66 2e 0f 1f 84 00 00 	nopw   %cs:0x0(%rax,%rax,1)
    c9ad:	00 00 00 
    c9b0:	c4 c1 7b 10 04 24    	vmovsd (%r12),%xmm0
    c9b6:	48 8b 73 30          	mov    0x30(%rbx),%rsi
    c9ba:	c5 fb 11 84 24 50 01 	vmovsd %xmm0,0x150(%rsp)
    c9c1:	00 00 
    c9c3:	c4 c1 7a 6f 54 24 08 	vmovdqu 0x8(%r12),%xmm2
    c9ca:	c5 f9 7f 94 24 90 01 	vmovdqa %xmm2,0x190(%rsp)
    c9d1:	00 00 
    c9d3:	c4 c1 7a 6f 5c 24 18 	vmovdqu 0x18(%r12),%xmm3
    c9da:	c5 f9 7f 9c 24 a0 01 	vmovdqa %xmm3,0x1a0(%rsp)
    c9e1:	00 00 
    c9e3:	48 3b 73 38          	cmp    0x38(%rbx),%rsi
    c9e7:	0f 84 63 01 00 00    	je     cb50 <_ZN6PRTreeIdLi6EEC1ERSt6vectorISt4pairId11BoundingBoxESaIS4_EE+0x5f0>
    c9ed:	c5 fa 7f 56 08       	vmovdqu %xmm2,0x8(%rsi)
    c9f2:	c5 f9 6f 94 24 a0 01 	vmovdqa 0x1a0(%rsp),%xmm2
    c9f9:	00 00 
    c9fb:	c5 fb 11 06          	vmovsd %xmm0,(%rsi)
    c9ff:	48 83 c6 28          	add    $0x28,%rsi
    ca03:	48 8b 53 28          	mov    0x28(%rbx),%rdx
    ca07:	c5 fa 7f 56 f0       	vmovdqu %xmm2,-0x10(%rsi)
    ca0c:	48 89 f0             	mov    %rsi,%rax
    ca0f:	48 89 73 30          	mov    %rsi,0x30(%rbx)
    ca13:	48 29 d0             	sub    %rdx,%rax
    ca16:	48 83 f8 78          	cmp    $0x78,%rax
    ca1a:	0f 8e 70 01 00 00    	jle    cb90 <_ZN6PRTreeIdLi6EEC1ERSt6vectorISt4pairId11BoundingBoxESaIS4_EE+0x630>
    ca20:	c5 f1 57 c9          	vxorpd %xmm1,%xmm1,%xmm1
    ca24:	48 8d 82 a0 00 00 00 	lea    0xa0(%rdx),%rax
    ca2b:	c5 f3 10 d1          	vmovsd %xmm1,%xmm1,%xmm2
    ca2f:	c5 f3 10 d9          	vmovsd %xmm1,%xmm1,%xmm3
    ca33:	c5 f3 10 c1          	vmovsd %xmm1,%xmm1,%xmm0
    ca37:	66 0f 1f 84 00 00 00 	nopw   0x0(%rax,%rax,1)
    ca3e:	00 00 
    ca40:	c5 fb 10 70 80       	vmovsd -0x80(%rax),%xmm6
    ca45:	c5 fb 10 78 d0       	vmovsd -0x30(%rax),%xmm7
    ca4a:	48 89 c2             	mov    %rax,%rdx
    ca4d:	48 89 f1             	mov    %rsi,%rcx
    ca50:	c5 c3 5f 68 f8       	vmaxsd -0x8(%rax),%xmm7,%xmm5
    ca55:	c5 cb 5f 60 a8       	vmaxsd -0x58(%rax),%xmm6,%xmm4
    ca5a:	48 29 d1             	sub    %rdx,%rcx
    ca5d:	48 05 a0 00 00 00    	add    $0xa0,%rax
    ca63:	c5 fb 10 b0 00 ff ff 	vmovsd -0x100(%rax),%xmm6
    ca6a:	ff 
    ca6b:	c5 fb 10 b8 50 ff ff 	vmovsd -0xb0(%rax),%xmm7
    ca72:	ff 
    ca73:	c5 db 5f e5          	vmaxsd %xmm5,%xmm4,%xmm4
    ca77:	c5 c3 5d a8 28 ff ff 	vminsd -0xd8(%rax),%xmm7,%xmm5
    ca7e:	ff 
    ca7f:	c5 fb 10 b8 20 ff ff 	vmovsd -0xe0(%rax),%xmm7
    ca86:	ff 
    ca87:	c5 f3 5f cc          	vmaxsd %xmm4,%xmm1,%xmm1
    ca8b:	c5 cb 5d a0 d8 fe ff 	vminsd -0x128(%rax),%xmm6,%xmm4
    ca92:	ff 
    ca93:	c5 fb 10 b0 d0 fe ff 	vmovsd -0x130(%rax),%xmm6
    ca9a:	ff 
    ca9b:	c5 db 5d e5          	vminsd %xmm5,%xmm4,%xmm4
    ca9f:	c5 c3 5f a8 48 ff ff 	vmaxsd -0xb8(%rax),%xmm7,%xmm5
    caa6:	ff 
    caa7:	c5 eb 5d d4          	vminsd %xmm4,%xmm2,%xmm2
    caab:	c5 cb 5f a0 f8 fe ff 	vmaxsd -0x108(%rax),%xmm6,%xmm4
    cab2:	ff 
    cab3:	c5 fb 10 b0 40 ff ff 	vmovsd -0xc0(%rax),%xmm6
    caba:	ff 
    cabb:	c5 db 5f e5          	vmaxsd %xmm5,%xmm4,%xmm4
    cabf:	c5 fb 10 a8 f0 fe ff 	vmovsd -0x110(%rax),%xmm5
    cac6:	ff 
    cac7:	c5 e3 5f dc          	vmaxsd %xmm4,%xmm3,%xmm3
    cacb:	c5 d3 5d a0 c8 fe ff 	vminsd -0x138(%rax),%xmm5,%xmm4
    cad2:	ff 
    cad3:	c5 cb 5d a8 18 ff ff 	vminsd -0xe8(%rax),%xmm6,%xmm5
    cada:	ff 
    cadb:	c5 db 5d e5          	vminsd %xmm5,%xmm4,%xmm4
    cadf:	c5 fb 5d c4          	vminsd %xmm4,%xmm0,%xmm0
    cae3:	48 83 f9 78          	cmp    $0x78,%rcx
    cae7:	0f 8f 53 ff ff ff    	jg     ca40 <_ZN6PRTreeIdLi6EEC1ERSt6vectorISt4pairId11BoundingBoxESaIS4_EE+0x4e0>
    caed:	48 39 f2             	cmp    %rsi,%rdx
    caf0:	74 2b                	je     cb1d <_ZN6PRTreeIdLi6EEC1ERSt6vectorISt4pairId11BoundingBoxESaIS4_EE+0x5bd>
    caf2:	66 66 2e 0f 1f 84 00 	data16 nopw %cs:0x0(%rax,%rax,1)
    caf9:	00 00 00 00 
    cafd:	0f 1f 00             	nopl   (%rax)
    cb00:	c5 f3 5f 4a 20       	vmaxsd 0x20(%rdx),%xmm1,%xmm1
    cb05:	c5 eb 5d 52 18       	vminsd 0x18(%rdx),%xmm2,%xmm2
    cb0a:	48 83 c2 28          	add    $0x28,%rdx
    cb0e:	c5 e3 5f 5a e8       	vmaxsd -0x18(%rdx),%xmm3,%xmm3
    cb13:	c5 fb 5d 42 e0       	vminsd -0x20(%rdx),%xmm0,%xmm0
    cb18:	48 39 f2             	cmp    %rsi,%rdx
    cb1b:	75 e3                	jne    cb00 <_ZN6PRTreeIdLi6EEC1ERSt6vectorISt4pairId11BoundingBoxESaIS4_EE+0x5a0>
    cb1d:	c5 e9 14 c9          	vunpcklpd %xmm1,%xmm2,%xmm1
    cb21:	c5 f9 14 c3          	vunpcklpd %xmm3,%xmm0,%xmm0
    cb25:	49 83 c4 28          	add    $0x28,%r12
    cb29:	c4 e3 7d 18 c1 01    	vinsertf128 $0x1,%xmm1,%ymm0,%ymm0
    cb2f:	c5 fd 11 43 08       	vmovupd %ymm0,0x8(%rbx)
    cb34:	4d 39 e6             	cmp    %r12,%r14
    cb37:	74 77                	je     cbb0 <_ZN6PRTreeIdLi6EEC1ERSt6vectorISt4pairId11BoundingBoxESaIS4_EE+0x650>
    cb39:	49 8b 5d 20          	mov    0x20(%r13),%rbx
    cb3d:	e9 6e fe ff ff       	jmpq   c9b0 <_ZN6PRTreeIdLi6EEC1ERSt6vectorISt4pairId11BoundingBoxESaIS4_EE+0x450>
    cb42:	66 66 2e 0f 1f 84 00 	data16 nopw %cs:0x0(%rax,%rax,1)
    cb49:	00 00 00 00 
    cb4d:	0f 1f 00             	nopl   (%rax)
    cb50:	48 8b 4c 24 60       	mov    0x60(%rsp),%rcx
    cb55:	48 8b 94 24 88 00 00 	mov    0x88(%rsp),%rdx
    cb5c:	00 
    cb5d:	48 8d 7b 28          	lea    0x28(%rbx),%rdi
    cb61:	c5 f8 77             	vzeroupper 
    cb64:	e8 47 74 ff ff       	callq  3fb0 <_ZNSt6vectorISt4pairId11BoundingBoxESaIS2_EE17_M_realloc_insertIJRdRS1_EEEvN9__gnu_cxx17__normal_iteratorIPS2_S4_EEDpOT_>
    cb69:	48 8b 73 30          	mov    0x30(%rbx),%rsi
    cb6d:	48 8b 53 28          	mov    0x28(%rbx),%rdx
    cb71:	48 89 f0             	mov    %rsi,%rax
    cb74:	48 29 d0             	sub    %rdx,%rax
    cb77:	48 83 f8 78          	cmp    $0x78,%rax
    cb7b:	0f 8f 9f fe ff ff    	jg     ca20 <_ZN6PRTreeIdLi6EEC1ERSt6vectorISt4pairId11BoundingBoxESaIS4_EE+0x4c0>
    cb81:	66 66 2e 0f 1f 84 00 	data16 nopw %cs:0x0(%rax,%rax,1)
    cb88:	00 00 00 00 
    cb8c:	0f 1f 40 00          	nopl   0x0(%rax)
    cb90:	c5 f1 57 c9          	vxorpd %xmm1,%xmm1,%xmm1
    cb94:	c5 f3 10 d1          	vmovsd %xmm1,%xmm1,%xmm2
    cb98:	c5 f3 10 d9          	vmovsd %xmm1,%xmm1,%xmm3
    cb9c:	c5 f3 10 c1          	vmovsd %xmm1,%xmm1,%xmm0
    cba0:	e9 73 ff ff ff       	jmpq   cb18 <_ZN6PRTreeIdLi6EEC1ERSt6vectorISt4pairId11BoundingBoxESaIS4_EE+0x5b8>
    cba5:	66 66 2e 0f 1f 84 00 	data16 nopw %cs:0x0(%rax,%rax,1)
    cbac:	00 00 00 00 
    cbb0:	c5 f8 77             	vzeroupper 
    cbb3:	4c 8b a4 24 98 00 00 	mov    0x98(%rsp),%r12
    cbba:	00 
    cbbb:	48 c7 84 24 90 01 00 	movq   $0x0,0x190(%rsp)
    cbc2:	00 00 00 00 00 
    cbc7:	4c 89 ac 24 98 00 00 	mov    %r13,0x98(%rsp)
    cbce:	00 
    cbcf:	4d 85 e4             	test   %r12,%r12
    cbd2:	74 4d                	je     cc21 <_ZN6PRTreeIdLi6EEC1ERSt6vectorISt4pairId11BoundingBoxESaIS4_EE+0x6c1>
    cbd4:	49 8d 7c 24 30       	lea    0x30(%r12),%rdi
    cbd9:	e8 22 6f ff ff       	callq  3b00 <_ZNSt10unique_ptrI10PRTreeNodeIdLi6EESt14default_deleteIS1_EED1Ev>
    cbde:	49 8d 7c 24 28       	lea    0x28(%r12),%rdi
    cbe3:	e8 18 6f ff ff       	callq  3b00 <_ZNSt10unique_ptrI10PRTreeNodeIdLi6EESt14default_deleteIS1_EED1Ev>
    cbe8:	4d 8b 6c 24 20       	mov    0x20(%r12),%r13
    cbed:	4d 85 ed             	test   %r13,%r13
    cbf0:	74 22                	je     cc14 <_ZN6PRTreeIdLi6EEC1ERSt6vectorISt4pairId11BoundingBoxESaIS4_EE+0x6b4>
    cbf2:	49 8b 7d 28          	mov    0x28(%r13),%rdi
    cbf6:	48 85 ff             	test   %rdi,%rdi
    cbf9:	74 0c                	je     cc07 <_ZN6PRTreeIdLi6EEC1ERSt6vectorISt4pairId11BoundingBoxESaIS4_EE+0x6a7>
    cbfb:	49 8b 75 38          	mov    0x38(%r13),%rsi
    cbff:	48 29 fe             	sub    %rdi,%rsi
    cc02:	e8 09 55 ff ff       	callq  2110 <_ZdlPvm@plt>
    cc07:	be 40 00 00 00       	mov    $0x40,%esi
    cc0c:	4c 89 ef             	mov    %r13,%rdi
    cc0f:	e8 fc 54 ff ff       	callq  2110 <_ZdlPvm@plt>
    cc14:	be 38 00 00 00       	mov    $0x38,%esi
    cc19:	4c 89 e7             	mov    %r12,%rdi
    cc1c:	e8 ef 54 ff ff       	callq  2110 <_ZdlPvm@plt>
    cc21:	48 8b 7c 24 60       	mov    0x60(%rsp),%rdi
    cc26:	e8 d5 6e ff ff       	callq  3b00 <_ZNSt10unique_ptrI10PRTreeNodeIdLi6EESt14default_deleteIS1_EED1Ev>
    cc2b:	48 8b b4 24 18 01 00 	mov    0x118(%rsp),%rsi
    cc32:	00 
    cc33:	48 3b b4 24 20 01 00 	cmp    0x120(%rsp),%rsi
    cc3a:	00 
    cc3b:	0f 84 56 2a 00 00    	je     f697 <_ZN6PRTreeIdLi6EEC1ERSt6vectorISt4pairId11BoundingBoxESaIS4_EE+0x3137>
    cc41:	48 8b 84 24 98 00 00 	mov    0x98(%rsp),%rax
    cc48:	00 
    cc49:	48 83 c6 08          	add    $0x8,%rsi
    cc4d:	48 89 46 f8          	mov    %rax,-0x8(%rsi)
    cc51:	48 c7 84 24 98 00 00 	movq   $0x0,0x98(%rsp)
    cc58:	00 00 00 00 00 
    cc5d:	48 89 b4 24 18 01 00 	mov    %rsi,0x118(%rsp)
    cc64:	00 
    cc65:	49 83 c7 40          	add    $0x40,%r15
    cc69:	4c 39 7c 24 70       	cmp    %r15,0x70(%rsp)
    cc6e:	0f 85 7c fc ff ff    	jne    c8f0 <_ZN6PRTreeIdLi6EEC1ERSt6vectorISt4pairId11BoundingBoxESaIS4_EE+0x390>
    cc74:	4c 8b a4 24 70 01 00 	mov    0x170(%rsp),%r12
    cc7b:	00 
    cc7c:	48 8b 9c 24 78 01 00 	mov    0x178(%rsp),%rbx
    cc83:	00 
    cc84:	4c 89 64 24 70       	mov    %r12,0x70(%rsp)
    cc89:	4c 39 e3             	cmp    %r12,%rbx
    cc8c:	74 33                	je     ccc1 <_ZN6PRTreeIdLi6EEC1ERSt6vectorISt4pairId11BoundingBoxESaIS4_EE+0x761>
    cc8e:	66 90                	xchg   %ax,%ax
    cc90:	49 8b 7c 24 28       	mov    0x28(%r12),%rdi
    cc95:	48 85 ff             	test   %rdi,%rdi
    cc98:	0f 84 42 28 00 00    	je     f4e0 <_ZN6PRTreeIdLi6EEC1ERSt6vectorISt4pairId11BoundingBoxESaIS4_EE+0x2f80>
    cc9e:	49 8b 74 24 38       	mov    0x38(%r12),%rsi
    cca3:	49 83 c4 40          	add    $0x40,%r12
    cca7:	48 29 fe             	sub    %rdi,%rsi
    ccaa:	e8 61 54 ff ff       	callq  2110 <_ZdlPvm@plt>
    ccaf:	4c 39 e3             	cmp    %r12,%rbx
    ccb2:	75 dc                	jne    cc90 <_ZN6PRTreeIdLi6EEC1ERSt6vectorISt4pairId11BoundingBoxESaIS4_EE+0x730>
    ccb4:	48 8b 84 24 70 01 00 	mov    0x170(%rsp),%rax
    ccbb:	00 
    ccbc:	48 89 44 24 70       	mov    %rax,0x70(%rsp)
    ccc1:	48 8b 7c 24 70       	mov    0x70(%rsp),%rdi
    ccc6:	48 85 ff             	test   %rdi,%rdi
    ccc9:	74 10                	je     ccdb <_ZN6PRTreeIdLi6EEC1ERSt6vectorISt4pairId11BoundingBoxESaIS4_EE+0x77b>
    cccb:	48 8b b4 24 80 01 00 	mov    0x180(%rsp),%rsi
    ccd2:	00 
    ccd3:	48 29 fe             	sub    %rdi,%rsi
    ccd6:	e8 35 54 ff ff       	callq  2110 <_ZdlPvm@plt>
    ccdb:	48 8b b4 24 80 00 00 	mov    0x80(%rsp),%rsi
    cce2:	00 
    cce3:	48 8b 7c 24 50       	mov    0x50(%rsp),%rdi
    cce8:	c5 f9 ef c0          	vpxor  %xmm0,%xmm0,%xmm0
    ccec:	48 c7 84 24 40 01 00 	movq   $0x0,0x140(%rsp)
    ccf3:	00 00 00 00 00 
    ccf8:	c5 f9 7f 84 24 30 01 	vmovdqa %xmm0,0x130(%rsp)
    ccff:	00 00 
    cd01:	e8 1a 8f ff ff       	callq  5c20 <_ZN12PseudoPRTreeIdLi6EE14get_all_leavesEv>
    cd06:	48 8b 9c 24 70 01 00 	mov    0x170(%rsp),%rbx
    cd0d:	00 
    cd0e:	4c 8b b4 24 78 01 00 	mov    0x178(%rsp),%r14
    cd15:	00 
    cd16:	c7 84 24 50 01 00 00 	movl   $0x0,0x150(%rsp)
    cd1d:	00 00 00 00 
    cd21:	4c 39 f3             	cmp    %r14,%rbx
    cd24:	0f 84 d0 01 00 00    	je     cefa <_ZN6PRTreeIdLi6EEC1ERSt6vectorISt4pairId11BoundingBoxESaIS4_EE+0x99a>
    cd2a:	49 bf ff ff ff ff ff 	movabs $0x1fffffffffffffff,%r15
    cd31:	ff ff 1f 
    cd34:	66 66 2e 0f 1f 84 00 	data16 nopw %cs:0x0(%rax,%rax,1)
    cd3b:	00 00 00 00 
    cd3f:	90                   	nop
    cd40:	c5 fa 6f 53 08       	vmovdqu 0x8(%rbx),%xmm2
    cd45:	8b 03                	mov    (%rbx),%eax
    cd47:	c5 f9 ef c0          	vpxor  %xmm0,%xmm0,%xmm0
    cd4b:	4c 8b 63 30          	mov    0x30(%rbx),%r12
    cd4f:	4c 2b 63 28          	sub    0x28(%rbx),%r12
    cd53:	89 84 24 90 01 00 00 	mov    %eax,0x190(%rsp)
    cd5a:	c5 fa 7f 94 24 98 01 	vmovdqu %xmm2,0x198(%rsp)
    cd61:	00 00 
    cd63:	c5 fa 6f 4b 18       	vmovdqu 0x18(%rbx),%xmm1
    cd68:	c5 fa 7f 84 24 b8 01 	vmovdqu %xmm0,0x1b8(%rsp)
    cd6f:	00 00 
    cd71:	48 c7 84 24 c8 01 00 	movq   $0x0,0x1c8(%rsp)
    cd78:	00 00 00 00 00 
    cd7d:	c5 fa 7f 8c 24 a8 01 	vmovdqu %xmm1,0x1a8(%rsp)
    cd84:	00 00 
    cd86:	0f 84 e8 28 00 00    	je     f674 <_ZN6PRTreeIdLi6EEC1ERSt6vectorISt4pairId11BoundingBoxESaIS4_EE+0x3114>
    cd8c:	48 b8 f8 ff ff ff ff 	movabs $0x7ffffffffffffff8,%rax
    cd93:	ff ff 7f 
    cd96:	4d 89 e5             	mov    %r12,%r13
    cd99:	49 39 c4             	cmp    %rax,%r12
    cd9c:	0f 87 9e 29 00 00    	ja     f740 <_ZN6PRTreeIdLi6EEC1ERSt6vectorISt4pairId11BoundingBoxESaIS4_EE+0x31e0>
    cda2:	4c 89 e7             	mov    %r12,%rdi
    cda5:	e8 56 53 ff ff       	callq  2100 <_Znwm@plt>
    cdaa:	48 89 c7             	mov    %rax,%rdi
    cdad:	c4 e1 f9 6e df       	vmovq  %rdi,%xmm3
    cdb2:	49 01 fd             	add    %rdi,%r13
    cdb5:	c5 e1 6c c3          	vpunpcklqdq %xmm3,%xmm3,%xmm0
    cdb9:	4c 89 ac 24 c8 01 00 	mov    %r13,0x1c8(%rsp)
    cdc0:	00 
    cdc1:	c5 fa 7f 84 24 b8 01 	vmovdqu %xmm0,0x1b8(%rsp)
    cdc8:	00 00 
    cdca:	48 8b 4b 30          	mov    0x30(%rbx),%rcx
    cdce:	4c 8b 43 28          	mov    0x28(%rbx),%r8
    cdd2:	4c 39 c1             	cmp    %r8,%rcx
    cdd5:	0f 84 45 29 00 00    	je     f720 <_ZN6PRTreeIdLi6EEC1ERSt6vectorISt4pairId11BoundingBoxESaIS4_EE+0x31c0>
    cddb:	4c 89 c0             	mov    %r8,%rax
    cdde:	48 89 fa             	mov    %rdi,%rdx
    cde1:	66 66 2e 0f 1f 84 00 	data16 nopw %cs:0x0(%rax,%rax,1)
    cde8:	00 00 00 00 
    cdec:	0f 1f 40 00          	nopl   0x0(%rax)
    cdf0:	c5 fa 6f 08          	vmovdqu (%rax),%xmm1
    cdf4:	48 83 c0 28          	add    $0x28,%rax
    cdf8:	48 83 c2 28          	add    $0x28,%rdx
    cdfc:	c5 fa 7f 4a d8       	vmovdqu %xmm1,-0x28(%rdx)
    ce01:	c5 fa 6f 50 e8       	vmovdqu -0x18(%rax),%xmm2
    ce06:	c5 fa 7f 52 e8       	vmovdqu %xmm2,-0x18(%rdx)
    ce0b:	48 8b 70 f8          	mov    -0x8(%rax),%rsi
    ce0f:	48 89 72 f8          	mov    %rsi,-0x8(%rdx)
    ce13:	48 39 c1             	cmp    %rax,%rcx
    ce16:	75 d8                	jne    cdf0 <_ZN6PRTreeIdLi6EEC1ERSt6vectorISt4pairId11BoundingBoxESaIS4_EE+0x890>
    ce18:	48 8d 41 d8          	lea    -0x28(%rcx),%rax
    ce1c:	48 b9 cd cc cc cc cc 	movabs $0xccccccccccccccd,%rcx
    ce23:	cc cc 0c 
    ce26:	4c 29 c0             	sub    %r8,%rax
    ce29:	48 c1 e8 03          	shr    $0x3,%rax
    ce2d:	48 0f af c1          	imul   %rcx,%rax
    ce31:	4c 21 f8             	and    %r15,%rax
    ce34:	48 8d 44 80 05       	lea    0x5(%rax,%rax,4),%rax
    ce39:	48 8d 04 c7          	lea    (%rdi,%rax,8),%rax
    ce3d:	48 8b b4 24 38 01 00 	mov    0x138(%rsp),%rsi
    ce44:	00 
    ce45:	48 89 84 24 c0 01 00 	mov    %rax,0x1c0(%rsp)
    ce4c:	00 
    ce4d:	48 3b b4 24 40 01 00 	cmp    0x140(%rsp),%rsi
    ce54:	00 
    ce55:	0f 84 50 28 00 00    	je     f6ab <_ZN6PRTreeIdLi6EEC1ERSt6vectorISt4pairId11BoundingBoxESaIS4_EE+0x314b>
    ce5b:	c5 fa 6f 94 24 98 01 	vmovdqu 0x198(%rsp),%xmm2
    ce62:	00 00 
    ce64:	48 83 c6 28          	add    $0x28,%rsi
    ce68:	8b 84 24 50 01 00 00 	mov    0x150(%rsp),%eax
    ce6f:	89 46 d8             	mov    %eax,-0x28(%rsi)
    ce72:	c5 fa 7f 56 e0       	vmovdqu %xmm2,-0x20(%rsi)
    ce77:	c5 fa 6f 8c 24 a8 01 	vmovdqu 0x1a8(%rsp),%xmm1
    ce7e:	00 00 
    ce80:	c5 fa 7f 4e f0       	vmovdqu %xmm1,-0x10(%rsi)
    ce85:	48 89 b4 24 38 01 00 	mov    %rsi,0x138(%rsp)
    ce8c:	00 
    ce8d:	ff c0                	inc    %eax
    ce8f:	89 84 24 50 01 00 00 	mov    %eax,0x150(%rsp)
    ce96:	48 85 ff             	test   %rdi,%rdi
    ce99:	0f 84 77 26 00 00    	je     f516 <_ZN6PRTreeIdLi6EEC1ERSt6vectorISt4pairId11BoundingBoxESaIS4_EE+0x2fb6>
    ce9f:	4c 89 e6             	mov    %r12,%rsi
    cea2:	48 83 c3 40          	add    $0x40,%rbx
    cea6:	e8 65 52 ff ff       	callq  2110 <_ZdlPvm@plt>
    ceab:	49 39 de             	cmp    %rbx,%r14
    ceae:	0f 85 8c fe ff ff    	jne    cd40 <_ZN6PRTreeIdLi6EEC1ERSt6vectorISt4pairId11BoundingBoxESaIS4_EE+0x7e0>
    ceb4:	4c 8b b4 24 78 01 00 	mov    0x178(%rsp),%r14
    cebb:	00 
    cebc:	48 8b 9c 24 70 01 00 	mov    0x170(%rsp),%rbx
    cec3:	00 
    cec4:	4c 39 f3             	cmp    %r14,%rbx
    cec7:	74 31                	je     cefa <_ZN6PRTreeIdLi6EEC1ERSt6vectorISt4pairId11BoundingBoxESaIS4_EE+0x99a>
    cec9:	0f 1f 80 00 00 00 00 	nopl   0x0(%rax)
    ced0:	48 8b 7b 28          	mov    0x28(%rbx),%rdi
    ced4:	48 85 ff             	test   %rdi,%rdi
    ced7:	0f 84 27 26 00 00    	je     f504 <_ZN6PRTreeIdLi6EEC1ERSt6vectorISt4pairId11BoundingBoxESaIS4_EE+0x2fa4>
    cedd:	48 8b 73 38          	mov    0x38(%rbx),%rsi
    cee1:	48 83 c3 40          	add    $0x40,%rbx
    cee5:	48 29 fe             	sub    %rdi,%rsi
    cee8:	e8 23 52 ff ff       	callq  2110 <_ZdlPvm@plt>
    ceed:	4c 39 f3             	cmp    %r14,%rbx
    cef0:	75 de                	jne    ced0 <_ZN6PRTreeIdLi6EEC1ERSt6vectorISt4pairId11BoundingBoxESaIS4_EE+0x970>
    cef2:	4c 8b b4 24 70 01 00 	mov    0x170(%rsp),%r14
    cef9:	00 
    cefa:	4d 85 f6             	test   %r14,%r14
    cefd:	74 13                	je     cf12 <_ZN6PRTreeIdLi6EEC1ERSt6vectorISt4pairId11BoundingBoxESaIS4_EE+0x9b2>
    ceff:	48 8b b4 24 80 01 00 	mov    0x180(%rsp),%rsi
    cf06:	00 
    cf07:	4c 89 f7             	mov    %r14,%rdi
    cf0a:	4c 29 f6             	sub    %r14,%rsi
    cf0d:	e8 fe 51 ff ff       	callq  2110 <_ZdlPvm@plt>
    cf12:	48 8b 94 24 10 01 00 	mov    0x110(%rsp),%rdx
    cf19:	00 
    cf1a:	48 8b 84 24 18 01 00 	mov    0x118(%rsp),%rax
    cf21:	00 
    cf22:	48 8d 9c 24 f0 00 00 	lea    0xf0(%rsp),%rbx
    cf29:	00 
    cf2a:	48 89 5c 24 40       	mov    %rbx,0x40(%rsp)
    cf2f:	48 29 d0             	sub    %rdx,%rax
    cf32:	48 83 f8 08          	cmp    $0x8,%rax
    cf36:	0f 86 3c 23 00 00    	jbe    f278 <_ZN6PRTreeIdLi6EEC1ERSt6vectorISt4pairId11BoundingBoxESaIS4_EE+0x2d18>
    cf3c:	0f 1f 40 00          	nopl   0x0(%rax)
    cf40:	48 8b 8c 24 38 01 00 	mov    0x138(%rsp),%rcx
    cf47:	00 
    cf48:	48 8b bc 24 30 01 00 	mov    0x130(%rsp),%rdi
    cf4f:	00 
    cf50:	49 89 cf             	mov    %rcx,%r15
    cf53:	49 29 ff             	sub    %rdi,%r15
    cf56:	0f 84 02 27 00 00    	je     f65e <_ZN6PRTreeIdLi6EEC1ERSt6vectorISt4pairId11BoundingBoxESaIS4_EE+0x30fe>
    cf5c:	48 b8 f8 ff ff ff ff 	movabs $0x7ffffffffffffff8,%rax
    cf63:	ff ff 7f 
    cf66:	49 39 c7             	cmp    %rax,%r15
    cf69:	0f 87 ec 27 00 00    	ja     f75b <_ZN6PRTreeIdLi6EEC1ERSt6vectorISt4pairId11BoundingBoxESaIS4_EE+0x31fb>
    cf6f:	4c 89 ff             	mov    %r15,%rdi
    cf72:	e8 89 51 ff ff       	callq  2100 <_Znwm@plt>
    cf77:	48 8b 8c 24 38 01 00 	mov    0x138(%rsp),%rcx
    cf7e:	00 
    cf7f:	48 8b bc 24 30 01 00 	mov    0x130(%rsp),%rdi
    cf86:	00 
    cf87:	49 89 c6             	mov    %rax,%r14
    cf8a:	48 39 f9             	cmp    %rdi,%rcx
    cf8d:	0f 84 d7 26 00 00    	je     f66a <_ZN6PRTreeIdLi6EEC1ERSt6vectorISt4pairId11BoundingBoxESaIS4_EE+0x310a>
    cf93:	48 89 f8             	mov    %rdi,%rax
    cf96:	4c 89 f2             	mov    %r14,%rdx
    cf99:	0f 1f 80 00 00 00 00 	nopl   0x0(%rax)
    cfa0:	c5 fa 6f 10          	vmovdqu (%rax),%xmm2
    cfa4:	48 83 c0 28          	add    $0x28,%rax
    cfa8:	48 83 c2 28          	add    $0x28,%rdx
    cfac:	c5 fa 7f 52 d8       	vmovdqu %xmm2,-0x28(%rdx)
    cfb1:	c5 fa 6f 58 e8       	vmovdqu -0x18(%rax),%xmm3
    cfb6:	c5 fa 7f 5a e8       	vmovdqu %xmm3,-0x18(%rdx)
    cfbb:	48 8b 70 f8          	mov    -0x8(%rax),%rsi
    cfbf:	48 89 72 f8          	mov    %rsi,-0x8(%rdx)
    cfc3:	48 39 c1             	cmp    %rax,%rcx
    cfc6:	75 d8                	jne    cfa0 <_ZN6PRTreeIdLi6EEC1ERSt6vectorISt4pairId11BoundingBoxESaIS4_EE+0xa40>
    cfc8:	48 8d 41 d8          	lea    -0x28(%rcx),%rax
    cfcc:	48 bb cd cc cc cc cc 	movabs $0xccccccccccccccd,%rbx
    cfd3:	cc cc 0c 
    cfd6:	48 b9 ff ff ff ff ff 	movabs $0x1fffffffffffffff,%rcx
    cfdd:	ff ff 1f 
    cfe0:	48 29 f8             	sub    %rdi,%rax
    cfe3:	48 c1 e8 03          	shr    $0x3,%rax
    cfe7:	48 0f af c3          	imul   %rbx,%rax
    cfeb:	48 21 c8             	and    %rcx,%rax
    cfee:	48 8d 44 80 05       	lea    0x5(%rax,%rax,4),%rax
    cff3:	49 8d 04 c6          	lea    (%r14,%rax,8),%rax
    cff7:	48 89 44 24 70       	mov    %rax,0x70(%rsp)
    cffc:	c5 f9 ef c0          	vpxor  %xmm0,%xmm0,%xmm0
    d000:	bf 30 01 00 00       	mov    $0x130,%edi
    d005:	c5 f9 7f 84 24 70 01 	vmovdqa %xmm0,0x170(%rsp)
    d00c:	00 00 
    d00e:	e8 ed 50 ff ff       	callq  2100 <_Znwm@plt>
    d013:	49 89 c4             	mov    %rax,%r12
    d016:	48 8b 05 d3 32 00 00 	mov    0x32d3(%rip),%rax        # 102f0 <_ZZNSt19_Sp_make_shared_tag5_S_tiEvE5__tag+0xf0>
    d01d:	c5 f9 ef c0          	vpxor  %xmm0,%xmm0,%xmm0
    d021:	45 31 ed             	xor    %r13d,%r13d
    d024:	49 8d 5c 24 10       	lea    0x10(%r12),%rbx
    d029:	c4 c1 7a 7f 44 24 38 	vmovdqu %xmm0,0x38(%r12)
    d030:	c4 c1 7a 7f 44 24 78 	vmovdqu %xmm0,0x78(%r12)
    d037:	c4 c1 7a 7f 84 24 b8 	vmovdqu %xmm0,0xb8(%r12)
    d03e:	00 00 00 
    d041:	c5 f9 ef c0          	vpxor  %xmm0,%xmm0,%xmm0
    d045:	48 89 9c 24 88 00 00 	mov    %rbx,0x88(%rsp)
    d04c:	00 
    d04d:	41 c7 44 24 10 00 00 	movl   $0x0,0x10(%r12)
    d054:	00 00 
    d056:	49 c7 44 24 48 00 00 	movq   $0x0,0x48(%r12)
    d05d:	00 00 
    d05f:	41 c7 44 24 50 00 00 	movl   $0x0,0x50(%r12)
    d066:	00 00 
    d068:	49 c7 84 24 88 00 00 	movq   $0x0,0x88(%r12)
    d06f:	00 00 00 00 00 
    d074:	41 c7 84 24 90 00 00 	movl   $0x0,0x90(%r12)
    d07b:	00 00 00 00 00 
    d080:	49 89 44 24 08       	mov    %rax,0x8(%r12)
    d085:	48 8d 05 44 5b 00 00 	lea    0x5b44(%rip),%rax        # 12bd0 <_ZTVSt23_Sp_counted_ptr_inplaceI16PseudoPRTreeNodeIiLi6EESaIS1_ELN9__gnu_cxx12_Lock_policyE2EE+0x10>
    d08c:	49 c7 84 24 c8 00 00 	movq   $0x0,0xc8(%r12)
    d093:	00 00 00 00 00 
    d098:	41 c7 84 24 d0 00 00 	movl   $0x0,0xd0(%r12)
    d09f:	00 00 00 00 00 
    d0a4:	49 89 04 24          	mov    %rax,(%r12)
    d0a8:	c4 c1 7e 7f 84 24 f8 	vmovdqu %ymm0,0xf8(%r12)
    d0af:	00 00 00 
    d0b2:	49 c7 84 24 18 01 00 	movq   $0x0,0x118(%r12)
    d0b9:	00 00 00 00 00 
    d0be:	49 c7 84 24 20 01 00 	movq   $0x0,0x120(%r12)
    d0c5:	00 00 00 00 00 
    d0ca:	49 c7 84 24 28 01 00 	movq   $0x0,0x128(%r12)
    d0d1:	00 00 00 00 00 
    d0d6:	c5 f8 77             	vzeroupper 
    d0d9:	bf f0 00 00 00       	mov    $0xf0,%edi
    d0de:	e8 1d 50 ff ff       	callq  2100 <_Znwm@plt>
    d0e3:	48 8b 7b 28          	mov    0x28(%rbx),%rdi
    d0e7:	c4 e1 f9 6e d8       	vmovq  %rax,%xmm3
    d0ec:	c5 f1 57 c9          	vxorpd %xmm1,%xmm1,%xmm1
    d0f0:	48 05 f0 00 00 00    	add    $0xf0,%rax
    d0f6:	c5 e1 6c c3          	vpunpcklqdq %xmm3,%xmm3,%xmm0
    d0fa:	48 8b 73 38          	mov    0x38(%rbx),%rsi
    d0fe:	44 89 2b             	mov    %r13d,(%rbx)
    d101:	c5 fd 11 4b 08       	vmovupd %ymm1,0x8(%rbx)
    d106:	c5 fa 7f 43 28       	vmovdqu %xmm0,0x28(%rbx)
    d10b:	48 89 43 38          	mov    %rax,0x38(%rbx)
    d10f:	48 85 ff             	test   %rdi,%rdi
    d112:	0f 84 38 23 00 00    	je     f450 <_ZN6PRTreeIdLi6EEC1ERSt6vectorISt4pairId11BoundingBoxESaIS4_EE+0x2ef0>
    d118:	48 29 fe             	sub    %rdi,%rsi
    d11b:	c5 f8 77             	vzeroupper 
    d11e:	41 ff c5             	inc    %r13d
    d121:	e8 ea 4f ff ff       	callq  2110 <_ZdlPvm@plt>
    d126:	48 83 c3 40          	add    $0x40,%rbx
    d12a:	41 83 fd 04          	cmp    $0x4,%r13d
    d12e:	75 a9                	jne    d0d9 <_ZN6PRTreeIdLi6EEC1ERSt6vectorISt4pairId11BoundingBoxESaIS4_EE+0xb79>
    d130:	c5 fa 7e 94 24 88 00 	vmovq  0x88(%rsp),%xmm2
    d137:	00 00 
    d139:	48 8b bc 24 78 01 00 	mov    0x178(%rsp),%rdi
    d140:	00 
    d141:	c4 c3 e9 22 c4 01    	vpinsrq $0x1,%r12,%xmm2,%xmm0
    d147:	c5 f9 7f 84 24 70 01 	vmovdqa %xmm0,0x170(%rsp)
    d14e:	00 00 
    d150:	48 85 ff             	test   %rdi,%rdi
    d153:	74 05                	je     d15a <_ZN6PRTreeIdLi6EEC1ERSt6vectorISt4pairId11BoundingBoxESaIS4_EE+0xbfa>
    d155:	e8 06 87 ff ff       	callq  5860 <_ZNSt16_Sp_counted_baseILN9__gnu_cxx12_Lock_policyE2EE10_M_releaseEv>
    d15a:	48 8b 5c 24 50       	mov    0x50(%rsp),%rbx
    d15f:	48 8b 54 24 70       	mov    0x70(%rsp),%rdx
    d164:	31 c9                	xor    %ecx,%ecx
    d166:	4c 89 f6             	mov    %r14,%rsi
    d169:	48 89 df             	mov    %rbx,%rdi
    d16c:	e8 0f db ff ff       	callq  ac80 <_ZN12PseudoPRTreeIiLi6EE9constructIN9__gnu_cxx17__normal_iteratorIPSt4pairIi11BoundingBoxESt6vectorIS6_SaIS6_EEEEEEvRSt10shared_ptrI16PseudoPRTreeNodeIiLi6EEET_SH_i.isra.0>
    d171:	48 8b 7c 24 60       	mov    0x60(%rsp),%rdi
    d176:	48 89 de             	mov    %rbx,%rsi
    d179:	e8 72 9b ff ff       	callq  6cf0 <_ZN12PseudoPRTreeIiLi6EE14get_all_leavesEv>
    d17e:	48 8b 9c 24 98 01 00 	mov    0x198(%rsp),%rbx
    d185:	00 
    d186:	4c 8b a4 24 90 01 00 	mov    0x190(%rsp),%r12
    d18d:	00 
    d18e:	4c 39 e3             	cmp    %r12,%rbx
    d191:	74 39                	je     d1cc <_ZN6PRTreeIdLi6EEC1ERSt6vectorISt4pairId11BoundingBoxESaIS4_EE+0xc6c>
    d193:	66 66 2e 0f 1f 84 00 	data16 nopw %cs:0x0(%rax,%rax,1)
    d19a:	00 00 00 00 
    d19e:	66 90                	xchg   %ax,%ax
    d1a0:	49 8b 7c 24 28       	mov    0x28(%r12),%rdi
    d1a5:	48 85 ff             	test   %rdi,%rdi
    d1a8:	0f 84 12 22 00 00    	je     f3c0 <_ZN6PRTreeIdLi6EEC1ERSt6vectorISt4pairId11BoundingBoxESaIS4_EE+0x2e60>
    d1ae:	49 8b 74 24 38       	mov    0x38(%r12),%rsi
    d1b3:	49 83 c4 40          	add    $0x40,%r12
    d1b7:	48 29 fe             	sub    %rdi,%rsi
    d1ba:	e8 51 4f ff ff       	callq  2110 <_ZdlPvm@plt>
    d1bf:	4c 39 e3             	cmp    %r12,%rbx
    d1c2:	75 dc                	jne    d1a0 <_ZN6PRTreeIdLi6EEC1ERSt6vectorISt4pairId11BoundingBoxESaIS4_EE+0xc40>
    d1c4:	4c 8b a4 24 90 01 00 	mov    0x190(%rsp),%r12
    d1cb:	00 
    d1cc:	4d 85 e4             	test   %r12,%r12
    d1cf:	74 13                	je     d1e4 <_ZN6PRTreeIdLi6EEC1ERSt6vectorISt4pairId11BoundingBoxESaIS4_EE+0xc84>
    d1d1:	48 8b b4 24 a0 01 00 	mov    0x1a0(%rsp),%rsi
    d1d8:	00 
    d1d9:	4c 89 e7             	mov    %r12,%rdi
    d1dc:	4c 29 e6             	sub    %r12,%rsi
    d1df:	e8 2c 4f ff ff       	callq  2110 <_ZdlPvm@plt>
    d1e4:	c5 f9 6f 84 24 70 01 	vmovdqa 0x170(%rsp),%xmm0
    d1eb:	00 00 
    d1ed:	48 8b bc 24 b8 00 00 	mov    0xb8(%rsp),%rdi
    d1f4:	00 
    d1f5:	c5 f1 ef c9          	vpxor  %xmm1,%xmm1,%xmm1
    d1f9:	c5 f9 7f 8c 24 70 01 	vmovdqa %xmm1,0x170(%rsp)
    d200:	00 00 
    d202:	c5 f9 7f 84 24 b0 00 	vmovdqa %xmm0,0xb0(%rsp)
    d209:	00 00 
    d20b:	48 85 ff             	test   %rdi,%rdi
    d20e:	74 17                	je     d227 <_ZN6PRTreeIdLi6EEC1ERSt6vectorISt4pairId11BoundingBoxESaIS4_EE+0xcc7>
    d210:	e8 4b 86 ff ff       	callq  5860 <_ZNSt16_Sp_counted_baseILN9__gnu_cxx12_Lock_policyE2EE10_M_releaseEv>
    d215:	48 8b bc 24 78 01 00 	mov    0x178(%rsp),%rdi
    d21c:	00 
    d21d:	48 85 ff             	test   %rdi,%rdi
    d220:	74 05                	je     d227 <_ZN6PRTreeIdLi6EEC1ERSt6vectorISt4pairId11BoundingBoxESaIS4_EE+0xcc7>
    d222:	e8 39 86 ff ff       	callq  5860 <_ZNSt16_Sp_counted_baseILN9__gnu_cxx12_Lock_policyE2EE10_M_releaseEv>
    d227:	4d 85 f6             	test   %r14,%r14
    d22a:	74 0b                	je     d237 <_ZN6PRTreeIdLi6EEC1ERSt6vectorISt4pairId11BoundingBoxESaIS4_EE+0xcd7>
    d22c:	4c 89 fe             	mov    %r15,%rsi
    d22f:	4c 89 f7             	mov    %r14,%rdi
    d232:	e8 d9 4e ff ff       	callq  2110 <_ZdlPvm@plt>
    d237:	48 8b 7c 24 60       	mov    0x60(%rsp),%rdi
    d23c:	48 8d 84 24 b0 00 00 	lea    0xb0(%rsp),%rax
    d243:	00 
    d244:	48 89 c6             	mov    %rax,%rsi
    d247:	48 89 44 24 38       	mov    %rax,0x38(%rsp)
    d24c:	e8 9f 9a ff ff       	callq  6cf0 <_ZN12PseudoPRTreeIiLi6EE14get_all_leavesEv>
    d251:	c5 f9 6f 94 24 90 01 	vmovdqa 0x190(%rsp),%xmm2
    d258:	00 00 
    d25a:	4c 8b a4 24 d0 00 00 	mov    0xd0(%rsp),%r12
    d261:	00 
    d262:	c5 f9 ef c0          	vpxor  %xmm0,%xmm0,%xmm0
    d266:	48 8b 84 24 a0 01 00 	mov    0x1a0(%rsp),%rax
    d26d:	00 
    d26e:	48 8b 9c 24 d8 00 00 	mov    0xd8(%rsp),%rbx
    d275:	00 
    d276:	c5 f9 7f 84 24 90 01 	vmovdqa %xmm0,0x190(%rsp)
    d27d:	00 00 
    d27f:	48 c7 84 24 a0 01 00 	movq   $0x0,0x1a0(%rsp)
    d286:	00 00 00 00 00 
    d28b:	4c 8b ac 24 e0 00 00 	mov    0xe0(%rsp),%r13
    d292:	00 
    d293:	4d 89 e6             	mov    %r12,%r14
    d296:	48 89 84 24 e0 00 00 	mov    %rax,0xe0(%rsp)
    d29d:	00 
    d29e:	c5 f9 7f 94 24 d0 00 	vmovdqa %xmm2,0xd0(%rsp)
    d2a5:	00 00 
    d2a7:	49 39 dc             	cmp    %rbx,%r12
    d2aa:	74 26                	je     d2d2 <_ZN6PRTreeIdLi6EEC1ERSt6vectorISt4pairId11BoundingBoxESaIS4_EE+0xd72>
    d2ac:	0f 1f 40 00          	nopl   0x0(%rax)
    d2b0:	49 8b 7e 28          	mov    0x28(%r14),%rdi
    d2b4:	48 85 ff             	test   %rdi,%rdi
    d2b7:	0f 84 23 21 00 00    	je     f3e0 <_ZN6PRTreeIdLi6EEC1ERSt6vectorISt4pairId11BoundingBoxESaIS4_EE+0x2e80>
    d2bd:	49 8b 76 38          	mov    0x38(%r14),%rsi
    d2c1:	49 83 c6 40          	add    $0x40,%r14
    d2c5:	48 29 fe             	sub    %rdi,%rsi
    d2c8:	e8 43 4e ff ff       	callq  2110 <_ZdlPvm@plt>
    d2cd:	4c 39 f3             	cmp    %r14,%rbx
    d2d0:	75 de                	jne    d2b0 <_ZN6PRTreeIdLi6EEC1ERSt6vectorISt4pairId11BoundingBoxESaIS4_EE+0xd50>
    d2d2:	4d 85 e4             	test   %r12,%r12
    d2d5:	74 0e                	je     d2e5 <_ZN6PRTreeIdLi6EEC1ERSt6vectorISt4pairId11BoundingBoxESaIS4_EE+0xd85>
    d2d7:	4c 89 ee             	mov    %r13,%rsi
    d2da:	4c 89 e7             	mov    %r12,%rdi
    d2dd:	4c 29 e6             	sub    %r12,%rsi
    d2e0:	e8 2b 4e ff ff       	callq  2110 <_ZdlPvm@plt>
    d2e5:	48 8b 9c 24 98 01 00 	mov    0x198(%rsp),%rbx
    d2ec:	00 
    d2ed:	4c 8b a4 24 90 01 00 	mov    0x190(%rsp),%r12
    d2f4:	00 
    d2f5:	4c 39 e3             	cmp    %r12,%rbx
    d2f8:	74 32                	je     d32c <_ZN6PRTreeIdLi6EEC1ERSt6vectorISt4pairId11BoundingBoxESaIS4_EE+0xdcc>
    d2fa:	66 0f 1f 44 00 00    	nopw   0x0(%rax,%rax,1)
    d300:	49 8b 7c 24 28       	mov    0x28(%r12),%rdi
    d305:	48 85 ff             	test   %rdi,%rdi
    d308:	0f 84 92 20 00 00    	je     f3a0 <_ZN6PRTreeIdLi6EEC1ERSt6vectorISt4pairId11BoundingBoxESaIS4_EE+0x2e40>
    d30e:	49 8b 74 24 38       	mov    0x38(%r12),%rsi
    d313:	49 83 c4 40          	add    $0x40,%r12
    d317:	48 29 fe             	sub    %rdi,%rsi
    d31a:	e8 f1 4d ff ff       	callq  2110 <_ZdlPvm@plt>
    d31f:	4c 39 e3             	cmp    %r12,%rbx
    d322:	75 dc                	jne    d300 <_ZN6PRTreeIdLi6EEC1ERSt6vectorISt4pairId11BoundingBoxESaIS4_EE+0xda0>
    d324:	4c 8b a4 24 90 01 00 	mov    0x190(%rsp),%r12
    d32b:	00 
    d32c:	4d 85 e4             	test   %r12,%r12
    d32f:	74 13                	je     d344 <_ZN6PRTreeIdLi6EEC1ERSt6vectorISt4pairId11BoundingBoxESaIS4_EE+0xde4>
    d331:	48 8b b4 24 a0 01 00 	mov    0x1a0(%rsp),%rsi
    d338:	00 
    d339:	4c 89 e7             	mov    %r12,%rdi
    d33c:	4c 29 e6             	sub    %r12,%rsi
    d33f:	e8 cc 4d ff ff       	callq  2110 <_ZdlPvm@plt>
    d344:	48 8b 9c 24 f0 00 00 	mov    0xf0(%rsp),%rbx
    d34b:	00 
    d34c:	4c 8b ac 24 f8 00 00 	mov    0xf8(%rsp),%r13
    d353:	00 
    d354:	4c 39 eb             	cmp    %r13,%rbx
    d357:	0f 84 23 01 00 00    	je     d480 <_ZN6PRTreeIdLi6EEC1ERSt6vectorISt4pairId11BoundingBoxESaIS4_EE+0xf20>
    d35d:	49 89 dc             	mov    %rbx,%r12
    d360:	4d 8b 34 24          	mov    (%r12),%r14
    d364:	4d 85 f6             	test   %r14,%r14
    d367:	0f 84 fe 00 00 00    	je     d46b <_ZN6PRTreeIdLi6EEC1ERSt6vectorISt4pairId11BoundingBoxESaIS4_EE+0xf0b>
    d36d:	4d 8b 7e 30          	mov    0x30(%r14),%r15
    d371:	4d 85 ff             	test   %r15,%r15
    d374:	74 5a                	je     d3d0 <_ZN6PRTreeIdLi6EEC1ERSt6vectorISt4pairId11BoundingBoxESaIS4_EE+0xe70>
    d376:	49 8d 7f 30          	lea    0x30(%r15),%rdi
    d37a:	e8 81 67 ff ff       	callq  3b00 <_ZNSt10unique_ptrI10PRTreeNodeIdLi6EESt14default_deleteIS1_EED1Ev>
    d37f:	49 8d 7f 28          	lea    0x28(%r15),%rdi
    d383:	e8 78 67 ff ff       	callq  3b00 <_ZNSt10unique_ptrI10PRTreeNodeIdLi6EESt14default_deleteIS1_EED1Ev>
    d388:	4d 8b 47 20          	mov    0x20(%r15),%r8
    d38c:	4d 85 c0             	test   %r8,%r8
    d38f:	74 32                	je     d3c3 <_ZN6PRTreeIdLi6EEC1ERSt6vectorISt4pairId11BoundingBoxESaIS4_EE+0xe63>
    d391:	49 8b 78 28          	mov    0x28(%r8),%rdi
    d395:	48 85 ff             	test   %rdi,%rdi
    d398:	74 1c                	je     d3b6 <_ZN6PRTreeIdLi6EEC1ERSt6vectorISt4pairId11BoundingBoxESaIS4_EE+0xe56>
    d39a:	49 8b 70 38          	mov    0x38(%r8),%rsi
    d39e:	4c 89 84 24 88 00 00 	mov    %r8,0x88(%rsp)
    d3a5:	00 
    d3a6:	48 29 fe             	sub    %rdi,%rsi
    d3a9:	e8 62 4d ff ff       	callq  2110 <_ZdlPvm@plt>
    d3ae:	4c 8b 84 24 88 00 00 	mov    0x88(%rsp),%r8
    d3b5:	00 
    d3b6:	be 40 00 00 00       	mov    $0x40,%esi
    d3bb:	4c 89 c7             	mov    %r8,%rdi
    d3be:	e8 4d 4d ff ff       	callq  2110 <_ZdlPvm@plt>
    d3c3:	be 38 00 00 00       	mov    $0x38,%esi
    d3c8:	4c 89 ff             	mov    %r15,%rdi
    d3cb:	e8 40 4d ff ff       	callq  2110 <_ZdlPvm@plt>
    d3d0:	4d 8b 7e 28          	mov    0x28(%r14),%r15
    d3d4:	4d 85 ff             	test   %r15,%r15
    d3d7:	74 5a                	je     d433 <_ZN6PRTreeIdLi6EEC1ERSt6vectorISt4pairId11BoundingBoxESaIS4_EE+0xed3>
    d3d9:	49 8d 7f 30          	lea    0x30(%r15),%rdi
    d3dd:	e8 1e 67 ff ff       	callq  3b00 <_ZNSt10unique_ptrI10PRTreeNodeIdLi6EESt14default_deleteIS1_EED1Ev>
    d3e2:	49 8d 7f 28          	lea    0x28(%r15),%rdi
    d3e6:	e8 15 67 ff ff       	callq  3b00 <_ZNSt10unique_ptrI10PRTreeNodeIdLi6EESt14default_deleteIS1_EED1Ev>
    d3eb:	4d 8b 47 20          	mov    0x20(%r15),%r8
    d3ef:	4d 85 c0             	test   %r8,%r8
    d3f2:	74 32                	je     d426 <_ZN6PRTreeIdLi6EEC1ERSt6vectorISt4pairId11BoundingBoxESaIS4_EE+0xec6>
    d3f4:	49 8b 78 28          	mov    0x28(%r8),%rdi
    d3f8:	48 85 ff             	test   %rdi,%rdi
    d3fb:	74 1c                	je     d419 <_ZN6PRTreeIdLi6EEC1ERSt6vectorISt4pairId11BoundingBoxESaIS4_EE+0xeb9>
    d3fd:	49 8b 70 38          	mov    0x38(%r8),%rsi
    d401:	4c 89 84 24 88 00 00 	mov    %r8,0x88(%rsp)
    d408:	00 
    d409:	48 29 fe             	sub    %rdi,%rsi
    d40c:	e8 ff 4c ff ff       	callq  2110 <_ZdlPvm@plt>
    d411:	4c 8b 84 24 88 00 00 	mov    0x88(%rsp),%r8
    d418:	00 
    d419:	be 40 00 00 00       	mov    $0x40,%esi
    d41e:	4c 89 c7             	mov    %r8,%rdi
    d421:	e8 ea 4c ff ff       	callq  2110 <_ZdlPvm@plt>
    d426:	be 38 00 00 00       	mov    $0x38,%esi
    d42b:	4c 89 ff             	mov    %r15,%rdi
    d42e:	e8 dd 4c ff ff       	callq  2110 <_ZdlPvm@plt>
    d433:	4d 8b 7e 20          	mov    0x20(%r14),%r15
    d437:	4d 85 ff             	test   %r15,%r15
    d43a:	74 22                	je     d45e <_ZN6PRTreeIdLi6EEC1ERSt6vectorISt4pairId11BoundingBoxESaIS4_EE+0xefe>
    d43c:	49 8b 7f 28          	mov    0x28(%r15),%rdi
    d440:	48 85 ff             	test   %rdi,%rdi
    d443:	74 0c                	je     d451 <_ZN6PRTreeIdLi6EEC1ERSt6vectorISt4pairId11BoundingBoxESaIS4_EE+0xef1>
    d445:	49 8b 77 38          	mov    0x38(%r15),%rsi
    d449:	48 29 fe             	sub    %rdi,%rsi
    d44c:	e8 bf 4c ff ff       	callq  2110 <_ZdlPvm@plt>
    d451:	be 40 00 00 00       	mov    $0x40,%esi
    d456:	4c 89 ff             	mov    %r15,%rdi
    d459:	e8 b2 4c ff ff       	callq  2110 <_ZdlPvm@plt>
    d45e:	be 38 00 00 00       	mov    $0x38,%esi
    d463:	4c 89 f7             	mov    %r14,%rdi
    d466:	e8 a5 4c ff ff       	callq  2110 <_ZdlPvm@plt>
    d46b:	49 83 c4 08          	add    $0x8,%r12
    d46f:	4d 39 e5             	cmp    %r12,%r13
    d472:	0f 85 e8 fe ff ff    	jne    d360 <_ZN6PRTreeIdLi6EEC1ERSt6vectorISt4pairId11BoundingBoxESaIS4_EE+0xe00>
    d478:	48 89 9c 24 f8 00 00 	mov    %rbx,0xf8(%rsp)
    d47f:	00 
    d480:	48 8b 84 24 d8 00 00 	mov    0xd8(%rsp),%rax
    d487:	00 
    d488:	48 8b 8c 24 d0 00 00 	mov    0xd0(%rsp),%rcx
    d48f:	00 
    d490:	48 89 84 24 80 00 00 	mov    %rax,0x80(%rsp)
    d497:	00 
    d498:	48 29 c8             	sub    %rcx,%rax
    d49b:	48 89 8c 24 88 00 00 	mov    %rcx,0x88(%rsp)
    d4a2:	00 
    d4a3:	48 89 c2             	mov    %rax,%rdx
    d4a6:	48 c1 fa 06          	sar    $0x6,%rdx
    d4aa:	48 85 c0             	test   %rax,%rax
    d4ad:	0f 88 97 22 00 00    	js     f74a <_ZN6PRTreeIdLi6EEC1ERSt6vectorISt4pairId11BoundingBoxESaIS4_EE+0x31ea>
    d4b3:	48 8b bc 24 f0 00 00 	mov    0xf0(%rsp),%rdi
    d4ba:	00 
    d4bb:	48 8b b4 24 00 01 00 	mov    0x100(%rsp),%rsi
    d4c2:	00 
    d4c3:	48 29 fe             	sub    %rdi,%rsi
    d4c6:	48 89 f0             	mov    %rsi,%rax
    d4c9:	48 c1 f8 03          	sar    $0x3,%rax
    d4cd:	48 39 c2             	cmp    %rax,%rdx
    d4d0:	0f 87 52 20 00 00    	ja     f528 <_ZN6PRTreeIdLi6EEC1ERSt6vectorISt4pairId11BoundingBoxESaIS4_EE+0x2fc8>
    d4d6:	48 8b 9c 24 88 00 00 	mov    0x88(%rsp),%rbx
    d4dd:	00 
    d4de:	48 39 9c 24 80 00 00 	cmp    %rbx,0x80(%rsp)
    d4e5:	00 
    d4e6:	0f 84 85 1a 00 00    	je     ef71 <_ZN6PRTreeIdLi6EEC1ERSt6vectorISt4pairId11BoundingBoxESaIS4_EE+0x2a11>
    d4ec:	0f 1f 40 00          	nopl   0x0(%rax)
    d4f0:	48 8b 9c 24 88 00 00 	mov    0x88(%rsp),%rbx
    d4f7:	00 
    d4f8:	48 b8 cd cc cc cc cc 	movabs $0xcccccccccccccccd,%rax
    d4ff:	cc cc cc 
    d502:	bf 38 00 00 00       	mov    $0x38,%edi
    d507:	4c 8b 63 30          	mov    0x30(%rbx),%r12
    d50b:	4c 2b 63 28          	sub    0x28(%rbx),%r12
    d50f:	49 c1 fc 03          	sar    $0x3,%r12
    d513:	4c 0f af e0          	imul   %rax,%r12
    d517:	e8 e4 4b ff ff       	callq  2100 <_Znwm@plt>
    d51c:	c5 f9 ef c0          	vpxor  %xmm0,%xmm0,%xmm0
    d520:	4c 8b ac 24 98 00 00 	mov    0x98(%rsp),%r13
    d527:	00 
    d528:	48 c7 40 30 00 00 00 	movq   $0x0,0x30(%rax)
    d52f:	00 
    d530:	c5 fa 7f 40 20       	vmovdqu %xmm0,0x20(%rax)
    d535:	c5 fa 6f 53 08       	vmovdqu 0x8(%rbx),%xmm2
    d53a:	c5 fa 7f 10          	vmovdqu %xmm2,(%rax)
    d53e:	c5 fa 6f 53 18       	vmovdqu 0x18(%rbx),%xmm2
    d543:	48 89 84 24 98 00 00 	mov    %rax,0x98(%rsp)
    d54a:	00 
    d54b:	c5 f9 7f 54 24 70    	vmovdqa %xmm2,0x70(%rsp)
    d551:	c5 fa 7f 50 10       	vmovdqu %xmm2,0x10(%rax)
    d556:	4d 85 ed             	test   %r13,%r13
    d559:	0f 84 de 00 00 00    	je     d63d <_ZN6PRTreeIdLi6EEC1ERSt6vectorISt4pairId11BoundingBoxESaIS4_EE+0x10dd>
    d55f:	4d 8b 75 30          	mov    0x30(%r13),%r14
    d563:	4d 85 f6             	test   %r14,%r14
    d566:	74 4a                	je     d5b2 <_ZN6PRTreeIdLi6EEC1ERSt6vectorISt4pairId11BoundingBoxESaIS4_EE+0x1052>
    d568:	49 8d 7e 30          	lea    0x30(%r14),%rdi
    d56c:	e8 8f 65 ff ff       	callq  3b00 <_ZNSt10unique_ptrI10PRTreeNodeIdLi6EESt14default_deleteIS1_EED1Ev>
    d571:	49 8d 7e 28          	lea    0x28(%r14),%rdi
    d575:	e8 86 65 ff ff       	callq  3b00 <_ZNSt10unique_ptrI10PRTreeNodeIdLi6EESt14default_deleteIS1_EED1Ev>
    d57a:	4d 8b 7e 20          	mov    0x20(%r14),%r15
    d57e:	4d 85 ff             	test   %r15,%r15
    d581:	74 22                	je     d5a5 <_ZN6PRTreeIdLi6EEC1ERSt6vectorISt4pairId11BoundingBoxESaIS4_EE+0x1045>
    d583:	49 8b 7f 28          	mov    0x28(%r15),%rdi
    d587:	48 85 ff             	test   %rdi,%rdi
    d58a:	74 0c                	je     d598 <_ZN6PRTreeIdLi6EEC1ERSt6vectorISt4pairId11BoundingBoxESaIS4_EE+0x1038>
    d58c:	49 8b 77 38          	mov    0x38(%r15),%rsi
    d590:	48 29 fe             	sub    %rdi,%rsi
    d593:	e8 78 4b ff ff       	callq  2110 <_ZdlPvm@plt>
    d598:	be 40 00 00 00       	mov    $0x40,%esi
    d59d:	4c 89 ff             	mov    %r15,%rdi
    d5a0:	e8 6b 4b ff ff       	callq  2110 <_ZdlPvm@plt>
    d5a5:	be 38 00 00 00       	mov    $0x38,%esi
    d5aa:	4c 89 f7             	mov    %r14,%rdi
    d5ad:	e8 5e 4b ff ff       	callq  2110 <_ZdlPvm@plt>
    d5b2:	4d 8b 75 28          	mov    0x28(%r13),%r14
    d5b6:	4d 85 f6             	test   %r14,%r14
    d5b9:	74 4a                	je     d605 <_ZN6PRTreeIdLi6EEC1ERSt6vectorISt4pairId11BoundingBoxESaIS4_EE+0x10a5>
    d5bb:	49 8d 7e 30          	lea    0x30(%r14),%rdi
    d5bf:	e8 3c 65 ff ff       	callq  3b00 <_ZNSt10unique_ptrI10PRTreeNodeIdLi6EESt14default_deleteIS1_EED1Ev>
    d5c4:	49 8d 7e 28          	lea    0x28(%r14),%rdi
    d5c8:	e8 33 65 ff ff       	callq  3b00 <_ZNSt10unique_ptrI10PRTreeNodeIdLi6EESt14default_deleteIS1_EED1Ev>
    d5cd:	4d 8b 7e 20          	mov    0x20(%r14),%r15
    d5d1:	4d 85 ff             	test   %r15,%r15
    d5d4:	74 22                	je     d5f8 <_ZN6PRTreeIdLi6EEC1ERSt6vectorISt4pairId11BoundingBoxESaIS4_EE+0x1098>
    d5d6:	49 8b 7f 28          	mov    0x28(%r15),%rdi
    d5da:	48 85 ff             	test   %rdi,%rdi
    d5dd:	74 0c                	je     d5eb <_ZN6PRTreeIdLi6EEC1ERSt6vectorISt4pairId11BoundingBoxESaIS4_EE+0x108b>
    d5df:	49 8b 77 38          	mov    0x38(%r15),%rsi
    d5e3:	48 29 fe             	sub    %rdi,%rsi
    d5e6:	e8 25 4b ff ff       	callq  2110 <_ZdlPvm@plt>
    d5eb:	be 40 00 00 00       	mov    $0x40,%esi
    d5f0:	4c 89 ff             	mov    %r15,%rdi
    d5f3:	e8 18 4b ff ff       	callq  2110 <_ZdlPvm@plt>
    d5f8:	be 38 00 00 00       	mov    $0x38,%esi
    d5fd:	4c 89 f7             	mov    %r14,%rdi
    d600:	e8 0b 4b ff ff       	callq  2110 <_ZdlPvm@plt>
    d605:	4d 8b 75 20          	mov    0x20(%r13),%r14
    d609:	4d 85 f6             	test   %r14,%r14
    d60c:	74 22                	je     d630 <_ZN6PRTreeIdLi6EEC1ERSt6vectorISt4pairId11BoundingBoxESaIS4_EE+0x10d0>
    d60e:	49 8b 7e 28          	mov    0x28(%r14),%rdi
    d612:	48 85 ff             	test   %rdi,%rdi
    d615:	74 0c                	je     d623 <_ZN6PRTreeIdLi6EEC1ERSt6vectorISt4pairId11BoundingBoxESaIS4_EE+0x10c3>
    d617:	49 8b 76 38          	mov    0x38(%r14),%rsi
    d61b:	48 29 fe             	sub    %rdi,%rsi
    d61e:	e8 ed 4a ff ff       	callq  2110 <_ZdlPvm@plt>
    d623:	be 40 00 00 00       	mov    $0x40,%esi
    d628:	4c 89 f7             	mov    %r14,%rdi
    d62b:	e8 e0 4a ff ff       	callq  2110 <_ZdlPvm@plt>
    d630:	be 38 00 00 00       	mov    $0x38,%esi
    d635:	4c 89 ef             	mov    %r13,%rdi
    d638:	e8 d3 4a ff ff       	callq  2110 <_ZdlPvm@plt>
    d63d:	48 8b 84 24 88 00 00 	mov    0x88(%rsp),%rax
    d644:	00 
    d645:	48 8b 48 28          	mov    0x28(%rax),%rcx
    d649:	48 39 48 30          	cmp    %rcx,0x30(%rax)
    d64d:	0f 84 c5 18 00 00    	je     ef18 <_ZN6PRTreeIdLi6EEC1ERSt6vectorISt4pairId11BoundingBoxESaIS4_EE+0x29b8>
    d653:	48 8b b4 24 10 01 00 	mov    0x110(%rsp),%rsi
    d65a:	00 
    d65b:	41 83 fc 01          	cmp    $0x1,%r12d
    d65f:	0f 8e a8 17 00 00    	jle    ee0d <_ZN6PRTreeIdLi6EEC1ERSt6vectorISt4pairId11BoundingBoxESaIS4_EE+0x28ad>
    d665:	49 63 c4             	movslq %r12d,%rax
    d668:	48 8d 14 80          	lea    (%rax,%rax,4),%rdx
    d66c:	48 8d 1c d5 b0 ff ff 	lea    -0x50(,%rdx,8),%rbx
    d673:	ff 
    d674:	41 8d 54 24 fe       	lea    -0x2(%r12),%edx
    d679:	48 29 d0             	sub    %rdx,%rax
    d67c:	48 8d 04 80          	lea    (%rax,%rax,4),%rax
    d680:	48 8d 04 c5 88 ff ff 	lea    -0x78(,%rax,8),%rax
    d687:	ff 
    d688:	48 89 44 24 70       	mov    %rax,0x70(%rsp)
    d68d:	0f 1f 00             	nopl   (%rax)
    d690:	48 63 44 19 28       	movslq 0x28(%rcx,%rbx,1),%rax
    d695:	48 8d 14 c6          	lea    (%rsi,%rax,8),%rdx
    d699:	48 63 04 19          	movslq (%rcx,%rbx,1),%rax
    d69d:	48 8b 3a             	mov    (%rdx),%rdi
    d6a0:	48 8b 04 c6          	mov    (%rsi,%rax,8),%rax
    d6a4:	48 c7 02 00 00 00 00 	movq   $0x0,(%rdx)
    d6ab:	4c 8b 60 30          	mov    0x30(%rax),%r12
    d6af:	48 89 78 30          	mov    %rdi,0x30(%rax)
    d6b3:	4d 85 e4             	test   %r12,%r12
    d6b6:	0f 84 42 17 00 00    	je     edfe <_ZN6PRTreeIdLi6EEC1ERSt6vectorISt4pairId11BoundingBoxESaIS4_EE+0x289e>
    d6bc:	4d 8b 6c 24 30       	mov    0x30(%r12),%r13
    d6c1:	4d 85 ed             	test   %r13,%r13
    d6c4:	0f 84 a3 09 00 00    	je     e06d <_ZN6PRTreeIdLi6EEC1ERSt6vectorISt4pairId11BoundingBoxESaIS4_EE+0x1b0d>
    d6ca:	4d 8b 75 30          	mov    0x30(%r13),%r14
    d6ce:	4d 85 f6             	test   %r14,%r14
    d6d1:	0f 84 a4 04 00 00    	je     db7b <_ZN6PRTreeIdLi6EEC1ERSt6vectorISt4pairId11BoundingBoxESaIS4_EE+0x161b>
    d6d7:	4d 8b 7e 30          	mov    0x30(%r14),%r15
    d6db:	4d 85 ff             	test   %r15,%r15
    d6de:	0f 84 42 01 00 00    	je     d826 <_ZN6PRTreeIdLi6EEC1ERSt6vectorISt4pairId11BoundingBoxESaIS4_EE+0x12c6>
    d6e4:	4d 8b 47 30          	mov    0x30(%r15),%r8
    d6e8:	4d 85 c0             	test   %r8,%r8
    d6eb:	74 77                	je     d764 <_ZN6PRTreeIdLi6EEC1ERSt6vectorISt4pairId11BoundingBoxESaIS4_EE+0x1204>
    d6ed:	49 8d 78 30          	lea    0x30(%r8),%rdi
    d6f1:	4c 89 44 24 68       	mov    %r8,0x68(%rsp)
    d6f6:	e8 05 64 ff ff       	callq  3b00 <_ZNSt10unique_ptrI10PRTreeNodeIdLi6EESt14default_deleteIS1_EED1Ev>
    d6fb:	4c 8b 44 24 68       	mov    0x68(%rsp),%r8
    d700:	49 8d 78 28          	lea    0x28(%r8),%rdi
    d704:	e8 f7 63 ff ff       	callq  3b00 <_ZNSt10unique_ptrI10PRTreeNodeIdLi6EESt14default_deleteIS1_EED1Ev>
    d709:	4c 8b 44 24 68       	mov    0x68(%rsp),%r8
    d70e:	4d 8b 48 20          	mov    0x20(%r8),%r9
    d712:	4d 85 c9             	test   %r9,%r9
    d715:	74 40                	je     d757 <_ZN6PRTreeIdLi6EEC1ERSt6vectorISt4pairId11BoundingBoxESaIS4_EE+0x11f7>
    d717:	49 8b 79 28          	mov    0x28(%r9),%rdi
    d71b:	48 85 ff             	test   %rdi,%rdi
    d71e:	74 20                	je     d740 <_ZN6PRTreeIdLi6EEC1ERSt6vectorISt4pairId11BoundingBoxESaIS4_EE+0x11e0>
    d720:	49 8b 71 38          	mov    0x38(%r9),%rsi
    d724:	4c 89 44 24 58       	mov    %r8,0x58(%rsp)
    d729:	4c 89 4c 24 68       	mov    %r9,0x68(%rsp)
    d72e:	48 29 fe             	sub    %rdi,%rsi
    d731:	e8 da 49 ff ff       	callq  2110 <_ZdlPvm@plt>
    d736:	4c 8b 44 24 58       	mov    0x58(%rsp),%r8
    d73b:	4c 8b 4c 24 68       	mov    0x68(%rsp),%r9
    d740:	be 40 00 00 00       	mov    $0x40,%esi
    d745:	4c 89 cf             	mov    %r9,%rdi
    d748:	4c 89 44 24 68       	mov    %r8,0x68(%rsp)
    d74d:	e8 be 49 ff ff       	callq  2110 <_ZdlPvm@plt>
    d752:	4c 8b 44 24 68       	mov    0x68(%rsp),%r8
    d757:	be 38 00 00 00       	mov    $0x38,%esi
    d75c:	4c 89 c7             	mov    %r8,%rdi
    d75f:	e8 ac 49 ff ff       	callq  2110 <_ZdlPvm@plt>
    d764:	4d 8b 47 28          	mov    0x28(%r15),%r8
    d768:	4d 85 c0             	test   %r8,%r8
    d76b:	74 77                	je     d7e4 <_ZN6PRTreeIdLi6EEC1ERSt6vectorISt4pairId11BoundingBoxESaIS4_EE+0x1284>
    d76d:	49 8d 78 30          	lea    0x30(%r8),%rdi
    d771:	4c 89 44 24 68       	mov    %r8,0x68(%rsp)
    d776:	e8 85 63 ff ff       	callq  3b00 <_ZNSt10unique_ptrI10PRTreeNodeIdLi6EESt14default_deleteIS1_EED1Ev>
    d77b:	4c 8b 44 24 68       	mov    0x68(%rsp),%r8
    d780:	49 8d 78 28          	lea    0x28(%r8),%rdi
    d784:	e8 77 63 ff ff       	callq  3b00 <_ZNSt10unique_ptrI10PRTreeNodeIdLi6EESt14default_deleteIS1_EED1Ev>
    d789:	4c 8b 44 24 68       	mov    0x68(%rsp),%r8
    d78e:	4d 8b 48 20          	mov    0x20(%r8),%r9
    d792:	4d 85 c9             	test   %r9,%r9
    d795:	74 40                	je     d7d7 <_ZN6PRTreeIdLi6EEC1ERSt6vectorISt4pairId11BoundingBoxESaIS4_EE+0x1277>
    d797:	49 8b 79 28          	mov    0x28(%r9),%rdi
    d79b:	48 85 ff             	test   %rdi,%rdi
    d79e:	74 20                	je     d7c0 <_ZN6PRTreeIdLi6EEC1ERSt6vectorISt4pairId11BoundingBoxESaIS4_EE+0x1260>
    d7a0:	49 8b 71 38          	mov    0x38(%r9),%rsi
    d7a4:	4c 89 44 24 58       	mov    %r8,0x58(%rsp)
    d7a9:	4c 89 4c 24 68       	mov    %r9,0x68(%rsp)
    d7ae:	48 29 fe             	sub    %rdi,%rsi
    d7b1:	e8 5a 49 ff ff       	callq  2110 <_ZdlPvm@plt>
    d7b6:	4c 8b 44 24 58       	mov    0x58(%rsp),%r8
    d7bb:	4c 8b 4c 24 68       	mov    0x68(%rsp),%r9
    d7c0:	be 40 00 00 00       	mov    $0x40,%esi
    d7c5:	4c 89 cf             	mov    %r9,%rdi
    d7c8:	4c 89 44 24 68       	mov    %r8,0x68(%rsp)
    d7cd:	e8 3e 49 ff ff       	callq  2110 <_ZdlPvm@plt>
    d7d2:	4c 8b 44 24 68       	mov    0x68(%rsp),%r8
    d7d7:	be 38 00 00 00       	mov    $0x38,%esi
    d7dc:	4c 89 c7             	mov    %r8,%rdi
    d7df:	e8 2c 49 ff ff       	callq  2110 <_ZdlPvm@plt>
    d7e4:	4d 8b 47 20          	mov    0x20(%r15),%r8
    d7e8:	4d 85 c0             	test   %r8,%r8
    d7eb:	74 2c                	je     d819 <_ZN6PRTreeIdLi6EEC1ERSt6vectorISt4pairId11BoundingBoxESaIS4_EE+0x12b9>
    d7ed:	49 8b 78 28          	mov    0x28(%r8),%rdi
    d7f1:	48 85 ff             	test   %rdi,%rdi
    d7f4:	74 16                	je     d80c <_ZN6PRTreeIdLi6EEC1ERSt6vectorISt4pairId11BoundingBoxESaIS4_EE+0x12ac>
    d7f6:	49 8b 70 38          	mov    0x38(%r8),%rsi
    d7fa:	4c 89 44 24 68       	mov    %r8,0x68(%rsp)
    d7ff:	48 29 fe             	sub    %rdi,%rsi
    d802:	e8 09 49 ff ff       	callq  2110 <_ZdlPvm@plt>
    d807:	4c 8b 44 24 68       	mov    0x68(%rsp),%r8
    d80c:	be 40 00 00 00       	mov    $0x40,%esi
    d811:	4c 89 c7             	mov    %r8,%rdi
    d814:	e8 f7 48 ff ff       	callq  2110 <_ZdlPvm@plt>
    d819:	be 38 00 00 00       	mov    $0x38,%esi
    d81e:	4c 89 ff             	mov    %r15,%rdi
    d821:	e8 ea 48 ff ff       	callq  2110 <_ZdlPvm@plt>
    d826:	4d 8b 7e 28          	mov    0x28(%r14),%r15
    d82a:	4d 85 ff             	test   %r15,%r15
    d82d:	0f 84 10 03 00 00    	je     db43 <_ZN6PRTreeIdLi6EEC1ERSt6vectorISt4pairId11BoundingBoxESaIS4_EE+0x15e3>
    d833:	4d 8b 47 30          	mov    0x30(%r15),%r8
    d837:	4d 85 c0             	test   %r8,%r8
    d83a:	0f 84 10 01 00 00    	je     d950 <_ZN6PRTreeIdLi6EEC1ERSt6vectorISt4pairId11BoundingBoxESaIS4_EE+0x13f0>
    d840:	49 8d 78 30          	lea    0x30(%r8),%rdi
    d844:	4c 89 44 24 68       	mov    %r8,0x68(%rsp)
    d849:	e8 b2 62 ff ff       	callq  3b00 <_ZNSt10unique_ptrI10PRTreeNodeIdLi6EESt14default_deleteIS1_EED1Ev>
    d84e:	4c 8b 44 24 68       	mov    0x68(%rsp),%r8
    d853:	4d 8b 48 28          	mov    0x28(%r8),%r9
    d857:	4d 85 c9             	test   %r9,%r9
    d85a:	0f 84 9a 00 00 00    	je     d8fa <_ZN6PRTreeIdLi6EEC1ERSt6vectorISt4pairId11BoundingBoxESaIS4_EE+0x139a>
    d860:	49 8d 79 30          	lea    0x30(%r9),%rdi
    d864:	4c 89 44 24 58       	mov    %r8,0x58(%rsp)
    d869:	4c 89 4c 24 68       	mov    %r9,0x68(%rsp)
    d86e:	e8 8d 62 ff ff       	callq  3b00 <_ZNSt10unique_ptrI10PRTreeNodeIdLi6EESt14default_deleteIS1_EED1Ev>
    d873:	4c 8b 4c 24 68       	mov    0x68(%rsp),%r9
    d878:	49 8d 79 28          	lea    0x28(%r9),%rdi
    d87c:	e8 7f 62 ff ff       	callq  3b00 <_ZNSt10unique_ptrI10PRTreeNodeIdLi6EESt14default_deleteIS1_EED1Ev>
    d881:	4c 8b 4c 24 68       	mov    0x68(%rsp),%r9
    d886:	4c 8b 44 24 58       	mov    0x58(%rsp),%r8
    d88b:	4d 8b 51 20          	mov    0x20(%r9),%r10
    d88f:	4d 85 d2             	test   %r10,%r10
    d892:	74 4f                	je     d8e3 <_ZN6PRTreeIdLi6EEC1ERSt6vectorISt4pairId11BoundingBoxESaIS4_EE+0x1383>
    d894:	49 8b 7a 28          	mov    0x28(%r10),%rdi
    d898:	48 85 ff             	test   %rdi,%rdi
    d89b:	74 25                	je     d8c2 <_ZN6PRTreeIdLi6EEC1ERSt6vectorISt4pairId11BoundingBoxESaIS4_EE+0x1362>
    d89d:	49 8b 72 38          	mov    0x38(%r10),%rsi
    d8a1:	4c 89 4c 24 20       	mov    %r9,0x20(%rsp)
    d8a6:	4c 89 54 24 68       	mov    %r10,0x68(%rsp)
    d8ab:	48 29 fe             	sub    %rdi,%rsi
    d8ae:	e8 5d 48 ff ff       	callq  2110 <_ZdlPvm@plt>
    d8b3:	4c 8b 4c 24 20       	mov    0x20(%rsp),%r9
    d8b8:	4c 8b 44 24 58       	mov    0x58(%rsp),%r8
    d8bd:	4c 8b 54 24 68       	mov    0x68(%rsp),%r10
    d8c2:	be 40 00 00 00       	mov    $0x40,%esi
    d8c7:	4c 89 d7             	mov    %r10,%rdi
    d8ca:	4c 89 4c 24 58       	mov    %r9,0x58(%rsp)
    d8cf:	4c 89 44 24 68       	mov    %r8,0x68(%rsp)
    d8d4:	e8 37 48 ff ff       	callq  2110 <_ZdlPvm@plt>
    d8d9:	4c 8b 4c 24 58       	mov    0x58(%rsp),%r9
    d8de:	4c 8b 44 24 68       	mov    0x68(%rsp),%r8
    d8e3:	be 38 00 00 00       	mov    $0x38,%esi
    d8e8:	4c 89 cf             	mov    %r9,%rdi
    d8eb:	4c 89 44 24 68       	mov    %r8,0x68(%rsp)
    d8f0:	e8 1b 48 ff ff       	callq  2110 <_ZdlPvm@plt>
    d8f5:	4c 8b 44 24 68       	mov    0x68(%rsp),%r8
    d8fa:	4d 8b 48 20          	mov    0x20(%r8),%r9
    d8fe:	4d 85 c9             	test   %r9,%r9
    d901:	74 40                	je     d943 <_ZN6PRTreeIdLi6EEC1ERSt6vectorISt4pairId11BoundingBoxESaIS4_EE+0x13e3>
    d903:	49 8b 79 28          	mov    0x28(%r9),%rdi
    d907:	48 85 ff             	test   %rdi,%rdi
    d90a:	74 20                	je     d92c <_ZN6PRTreeIdLi6EEC1ERSt6vectorISt4pairId11BoundingBoxESaIS4_EE+0x13cc>
    d90c:	49 8b 71 38          	mov    0x38(%r9),%rsi
    d910:	4c 89 44 24 58       	mov    %r8,0x58(%rsp)
    d915:	4c 89 4c 24 68       	mov    %r9,0x68(%rsp)
    d91a:	48 29 fe             	sub    %rdi,%rsi
    d91d:	e8 ee 47 ff ff       	callq  2110 <_ZdlPvm@plt>
    d922:	4c 8b 44 24 58       	mov    0x58(%rsp),%r8
    d927:	4c 8b 4c 24 68       	mov    0x68(%rsp),%r9
    d92c:	be 40 00 00 00       	mov    $0x40,%esi
    d931:	4c 89 cf             	mov    %r9,%rdi
    d934:	4c 89 44 24 68       	mov    %r8,0x68(%rsp)
    d939:	e8 d2 47 ff ff       	callq  2110 <_ZdlPvm@plt>
    d93e:	4c 8b 44 24 68       	mov    0x68(%rsp),%r8
    d943:	be 38 00 00 00       	mov    $0x38,%esi
    d948:	4c 89 c7             	mov    %r8,%rdi
    d94b:	e8 c0 47 ff ff       	callq  2110 <_ZdlPvm@plt>
    d950:	4d 8b 47 28          	mov    0x28(%r15),%r8
    d954:	4d 85 c0             	test   %r8,%r8
    d957:	0f 84 a4 01 00 00    	je     db01 <_ZN6PRTreeIdLi6EEC1ERSt6vectorISt4pairId11BoundingBoxESaIS4_EE+0x15a1>
    d95d:	4d 8b 48 30          	mov    0x30(%r8),%r9
    d961:	4d 85 c9             	test   %r9,%r9
    d964:	0f 84 9a 00 00 00    	je     da04 <_ZN6PRTreeIdLi6EEC1ERSt6vectorISt4pairId11BoundingBoxESaIS4_EE+0x14a4>
    d96a:	49 8d 79 30          	lea    0x30(%r9),%rdi
    d96e:	4c 89 44 24 58       	mov    %r8,0x58(%rsp)
    d973:	4c 89 4c 24 68       	mov    %r9,0x68(%rsp)
    d978:	e8 83 61 ff ff       	callq  3b00 <_ZNSt10unique_ptrI10PRTreeNodeIdLi6EESt14default_deleteIS1_EED1Ev>
    d97d:	4c 8b 4c 24 68       	mov    0x68(%rsp),%r9
    d982:	49 8d 79 28          	lea    0x28(%r9),%rdi
    d986:	e8 75 61 ff ff       	callq  3b00 <_ZNSt10unique_ptrI10PRTreeNodeIdLi6EESt14default_deleteIS1_EED1Ev>
    d98b:	4c 8b 4c 24 68       	mov    0x68(%rsp),%r9
    d990:	4c 8b 44 24 58       	mov    0x58(%rsp),%r8
    d995:	4d 8b 51 20          	mov    0x20(%r9),%r10
    d999:	4d 85 d2             	test   %r10,%r10
    d99c:	74 4f                	je     d9ed <_ZN6PRTreeIdLi6EEC1ERSt6vectorISt4pairId11BoundingBoxESaIS4_EE+0x148d>
    d99e:	49 8b 7a 28          	mov    0x28(%r10),%rdi
    d9a2:	48 85 ff             	test   %rdi,%rdi
    d9a5:	74 25                	je     d9cc <_ZN6PRTreeIdLi6EEC1ERSt6vectorISt4pairId11BoundingBoxESaIS4_EE+0x146c>
    d9a7:	49 8b 72 38          	mov    0x38(%r10),%rsi
    d9ab:	4c 89 4c 24 20       	mov    %r9,0x20(%rsp)
    d9b0:	4c 89 54 24 68       	mov    %r10,0x68(%rsp)
    d9b5:	48 29 fe             	sub    %rdi,%rsi
    d9b8:	e8 53 47 ff ff       	callq  2110 <_ZdlPvm@plt>
    d9bd:	4c 8b 4c 24 20       	mov    0x20(%rsp),%r9
    d9c2:	4c 8b 44 24 58       	mov    0x58(%rsp),%r8
    d9c7:	4c 8b 54 24 68       	mov    0x68(%rsp),%r10
    d9cc:	be 40 00 00 00       	mov    $0x40,%esi
    d9d1:	4c 89 d7             	mov    %r10,%rdi
    d9d4:	4c 89 4c 24 58       	mov    %r9,0x58(%rsp)
    d9d9:	4c 89 44 24 68       	mov    %r8,0x68(%rsp)
    d9de:	e8 2d 47 ff ff       	callq  2110 <_ZdlPvm@plt>
    d9e3:	4c 8b 4c 24 58       	mov    0x58(%rsp),%r9
    d9e8:	4c 8b 44 24 68       	mov    0x68(%rsp),%r8
    d9ed:	be 38 00 00 00       	mov    $0x38,%esi
    d9f2:	4c 89 cf             	mov    %r9,%rdi
    d9f5:	4c 89 44 24 68       	mov    %r8,0x68(%rsp)
    d9fa:	e8 11 47 ff ff       	callq  2110 <_ZdlPvm@plt>
    d9ff:	4c 8b 44 24 68       	mov    0x68(%rsp),%r8
    da04:	4d 8b 48 28          	mov    0x28(%r8),%r9
    da08:	4d 85 c9             	test   %r9,%r9
    da0b:	0f 84 9a 00 00 00    	je     daab <_ZN6PRTreeIdLi6EEC1ERSt6vectorISt4pairId11BoundingBoxESaIS4_EE+0x154b>
    da11:	49 8d 79 30          	lea    0x30(%r9),%rdi
    da15:	4c 89 44 24 58       	mov    %r8,0x58(%rsp)
    da1a:	4c 89 4c 24 68       	mov    %r9,0x68(%rsp)
    da1f:	e8 dc 60 ff ff       	callq  3b00 <_ZNSt10unique_ptrI10PRTreeNodeIdLi6EESt14default_deleteIS1_EED1Ev>
    da24:	4c 8b 4c 24 68       	mov    0x68(%rsp),%r9
    da29:	49 8d 79 28          	lea    0x28(%r9),%rdi
    da2d:	e8 ce 60 ff ff       	callq  3b00 <_ZNSt10unique_ptrI10PRTreeNodeIdLi6EESt14default_deleteIS1_EED1Ev>
    da32:	4c 8b 4c 24 68       	mov    0x68(%rsp),%r9
    da37:	4c 8b 44 24 58       	mov    0x58(%rsp),%r8
    da3c:	4d 8b 51 20          	mov    0x20(%r9),%r10
    da40:	4d 85 d2             	test   %r10,%r10
    da43:	74 4f                	je     da94 <_ZN6PRTreeIdLi6EEC1ERSt6vectorISt4pairId11BoundingBoxESaIS4_EE+0x1534>
    da45:	49 8b 7a 28          	mov    0x28(%r10),%rdi
    da49:	48 85 ff             	test   %rdi,%rdi
    da4c:	74 25                	je     da73 <_ZN6PRTreeIdLi6EEC1ERSt6vectorISt4pairId11BoundingBoxESaIS4_EE+0x1513>
    da4e:	49 8b 72 38          	mov    0x38(%r10),%rsi
    da52:	4c 89 4c 24 20       	mov    %r9,0x20(%rsp)
    da57:	4c 89 54 24 68       	mov    %r10,0x68(%rsp)
    da5c:	48 29 fe             	sub    %rdi,%rsi
    da5f:	e8 ac 46 ff ff       	callq  2110 <_ZdlPvm@plt>
    da64:	4c 8b 4c 24 20       	mov    0x20(%rsp),%r9
    da69:	4c 8b 44 24 58       	mov    0x58(%rsp),%r8
    da6e:	4c 8b 54 24 68       	mov    0x68(%rsp),%r10
    da73:	be 40 00 00 00       	mov    $0x40,%esi
    da78:	4c 89 d7             	mov    %r10,%rdi
    da7b:	4c 89 4c 24 58       	mov    %r9,0x58(%rsp)
    da80:	4c 89 44 24 68       	mov    %r8,0x68(%rsp)
    da85:	e8 86 46 ff ff       	callq  2110 <_ZdlPvm@plt>
    da8a:	4c 8b 4c 24 58       	mov    0x58(%rsp),%r9
    da8f:	4c 8b 44 24 68       	mov    0x68(%rsp),%r8
    da94:	be 38 00 00 00       	mov    $0x38,%esi
    da99:	4c 89 cf             	mov    %r9,%rdi
    da9c:	4c 89 44 24 68       	mov    %r8,0x68(%rsp)
    daa1:	e8 6a 46 ff ff       	callq  2110 <_ZdlPvm@plt>
    daa6:	4c 8b 44 24 68       	mov    0x68(%rsp),%r8
    daab:	4d 8b 48 20          	mov    0x20(%r8),%r9
    daaf:	4d 85 c9             	test   %r9,%r9
    dab2:	74 40                	je     daf4 <_ZN6PRTreeIdLi6EEC1ERSt6vectorISt4pairId11BoundingBoxESaIS4_EE+0x1594>
    dab4:	49 8b 79 28          	mov    0x28(%r9),%rdi
    dab8:	48 85 ff             	test   %rdi,%rdi
    dabb:	74 20                	je     dadd <_ZN6PRTreeIdLi6EEC1ERSt6vectorISt4pairId11BoundingBoxESaIS4_EE+0x157d>
    dabd:	49 8b 71 38          	mov    0x38(%r9),%rsi
    dac1:	4c 89 44 24 58       	mov    %r8,0x58(%rsp)
    dac6:	4c 89 4c 24 68       	mov    %r9,0x68(%rsp)
    dacb:	48 29 fe             	sub    %rdi,%rsi
    dace:	e8 3d 46 ff ff       	callq  2110 <_ZdlPvm@plt>
    dad3:	4c 8b 44 24 58       	mov    0x58(%rsp),%r8
    dad8:	4c 8b 4c 24 68       	mov    0x68(%rsp),%r9
    dadd:	be 40 00 00 00       	mov    $0x40,%esi
    dae2:	4c 89 cf             	mov    %r9,%rdi
    dae5:	4c 89 44 24 68       	mov    %r8,0x68(%rsp)
    daea:	e8 21 46 ff ff       	callq  2110 <_ZdlPvm@plt>
    daef:	4c 8b 44 24 68       	mov    0x68(%rsp),%r8
    daf4:	be 38 00 00 00       	mov    $0x38,%esi
    daf9:	4c 89 c7             	mov    %r8,%rdi
    dafc:	e8 0f 46 ff ff       	callq  2110 <_ZdlPvm@plt>
    db01:	4d 8b 47 20          	mov    0x20(%r15),%r8
    db05:	4d 85 c0             	test   %r8,%r8
    db08:	74 2c                	je     db36 <_ZN6PRTreeIdLi6EEC1ERSt6vectorISt4pairId11BoundingBoxESaIS4_EE+0x15d6>
    db0a:	49 8b 78 28          	mov    0x28(%r8),%rdi
    db0e:	48 85 ff             	test   %rdi,%rdi
    db11:	74 16                	je     db29 <_ZN6PRTreeIdLi6EEC1ERSt6vectorISt4pairId11BoundingBoxESaIS4_EE+0x15c9>
    db13:	49 8b 70 38          	mov    0x38(%r8),%rsi
    db17:	4c 89 44 24 68       	mov    %r8,0x68(%rsp)
    db1c:	48 29 fe             	sub    %rdi,%rsi
    db1f:	e8 ec 45 ff ff       	callq  2110 <_ZdlPvm@plt>
    db24:	4c 8b 44 24 68       	mov    0x68(%rsp),%r8
    db29:	be 40 00 00 00       	mov    $0x40,%esi
    db2e:	4c 89 c7             	mov    %r8,%rdi
    db31:	e8 da 45 ff ff       	callq  2110 <_ZdlPvm@plt>
    db36:	be 38 00 00 00       	mov    $0x38,%esi
    db3b:	4c 89 ff             	mov    %r15,%rdi
    db3e:	e8 cd 45 ff ff       	callq  2110 <_ZdlPvm@plt>
    db43:	4d 8b 7e 20          	mov    0x20(%r14),%r15
    db47:	4d 85 ff             	test   %r15,%r15
    db4a:	74 22                	je     db6e <_ZN6PRTreeIdLi6EEC1ERSt6vectorISt4pairId11BoundingBoxESaIS4_EE+0x160e>
    db4c:	49 8b 7f 28          	mov    0x28(%r15),%rdi
    db50:	48 85 ff             	test   %rdi,%rdi
    db53:	74 0c                	je     db61 <_ZN6PRTreeIdLi6EEC1ERSt6vectorISt4pairId11BoundingBoxESaIS4_EE+0x1601>
    db55:	49 8b 77 38          	mov    0x38(%r15),%rsi
    db59:	48 29 fe             	sub    %rdi,%rsi
    db5c:	e8 af 45 ff ff       	callq  2110 <_ZdlPvm@plt>
    db61:	be 40 00 00 00       	mov    $0x40,%esi
    db66:	4c 89 ff             	mov    %r15,%rdi
    db69:	e8 a2 45 ff ff       	callq  2110 <_ZdlPvm@plt>
    db6e:	be 38 00 00 00       	mov    $0x38,%esi
    db73:	4c 89 f7             	mov    %r14,%rdi
    db76:	e8 95 45 ff ff       	callq  2110 <_ZdlPvm@plt>
    db7b:	4d 8b 75 28          	mov    0x28(%r13),%r14
    db7f:	4d 85 f6             	test   %r14,%r14
    db82:	0f 84 ad 04 00 00    	je     e035 <_ZN6PRTreeIdLi6EEC1ERSt6vectorISt4pairId11BoundingBoxESaIS4_EE+0x1ad5>
    db88:	4d 8b 7e 30          	mov    0x30(%r14),%r15
    db8c:	4d 85 ff             	test   %r15,%r15
    db8f:	0f 84 df 01 00 00    	je     dd74 <_ZN6PRTreeIdLi6EEC1ERSt6vectorISt4pairId11BoundingBoxESaIS4_EE+0x1814>
    db95:	4d 8b 47 30          	mov    0x30(%r15),%r8
    db99:	4d 85 c0             	test   %r8,%r8
    db9c:	0f 84 10 01 00 00    	je     dcb2 <_ZN6PRTreeIdLi6EEC1ERSt6vectorISt4pairId11BoundingBoxESaIS4_EE+0x1752>
    dba2:	49 8d 78 30          	lea    0x30(%r8),%rdi
    dba6:	4c 89 44 24 68       	mov    %r8,0x68(%rsp)
    dbab:	e8 50 5f ff ff       	callq  3b00 <_ZNSt10unique_ptrI10PRTreeNodeIdLi6EESt14default_deleteIS1_EED1Ev>
    dbb0:	4c 8b 44 24 68       	mov    0x68(%rsp),%r8
    dbb5:	4d 8b 48 28          	mov    0x28(%r8),%r9
    dbb9:	4d 85 c9             	test   %r9,%r9
    dbbc:	0f 84 9a 00 00 00    	je     dc5c <_ZN6PRTreeIdLi6EEC1ERSt6vectorISt4pairId11BoundingBoxESaIS4_EE+0x16fc>
    dbc2:	49 8d 79 30          	lea    0x30(%r9),%rdi
    dbc6:	4c 89 44 24 58       	mov    %r8,0x58(%rsp)
    dbcb:	4c 89 4c 24 68       	mov    %r9,0x68(%rsp)
    dbd0:	e8 2b 5f ff ff       	callq  3b00 <_ZNSt10unique_ptrI10PRTreeNodeIdLi6EESt14default_deleteIS1_EED1Ev>
    dbd5:	4c 8b 4c 24 68       	mov    0x68(%rsp),%r9
    dbda:	49 8d 79 28          	lea    0x28(%r9),%rdi
    dbde:	e8 1d 5f ff ff       	callq  3b00 <_ZNSt10unique_ptrI10PRTreeNodeIdLi6EESt14default_deleteIS1_EED1Ev>
    dbe3:	4c 8b 4c 24 68       	mov    0x68(%rsp),%r9
    dbe8:	4c 8b 44 24 58       	mov    0x58(%rsp),%r8
    dbed:	4d 8b 51 20          	mov    0x20(%r9),%r10
    dbf1:	4d 85 d2             	test   %r10,%r10
    dbf4:	74 4f                	je     dc45 <_ZN6PRTreeIdLi6EEC1ERSt6vectorISt4pairId11BoundingBoxESaIS4_EE+0x16e5>
    dbf6:	49 8b 7a 28          	mov    0x28(%r10),%rdi
    dbfa:	48 85 ff             	test   %rdi,%rdi
    dbfd:	74 25                	je     dc24 <_ZN6PRTreeIdLi6EEC1ERSt6vectorISt4pairId11BoundingBoxESaIS4_EE+0x16c4>
    dbff:	49 8b 72 38          	mov    0x38(%r10),%rsi
    dc03:	4c 89 4c 24 20       	mov    %r9,0x20(%rsp)
    dc08:	4c 89 54 24 68       	mov    %r10,0x68(%rsp)
    dc0d:	48 29 fe             	sub    %rdi,%rsi
    dc10:	e8 fb 44 ff ff       	callq  2110 <_ZdlPvm@plt>
    dc15:	4c 8b 4c 24 20       	mov    0x20(%rsp),%r9
    dc1a:	4c 8b 44 24 58       	mov    0x58(%rsp),%r8
    dc1f:	4c 8b 54 24 68       	mov    0x68(%rsp),%r10
    dc24:	be 40 00 00 00       	mov    $0x40,%esi
    dc29:	4c 89 d7             	mov    %r10,%rdi
    dc2c:	4c 89 4c 24 58       	mov    %r9,0x58(%rsp)
    dc31:	4c 89 44 24 68       	mov    %r8,0x68(%rsp)
    dc36:	e8 d5 44 ff ff       	callq  2110 <_ZdlPvm@plt>
    dc3b:	4c 8b 4c 24 58       	mov    0x58(%rsp),%r9
    dc40:	4c 8b 44 24 68       	mov    0x68(%rsp),%r8
    dc45:	be 38 00 00 00       	mov    $0x38,%esi
    dc4a:	4c 89 cf             	mov    %r9,%rdi
    dc4d:	4c 89 44 24 68       	mov    %r8,0x68(%rsp)
    dc52:	e8 b9 44 ff ff       	callq  2110 <_ZdlPvm@plt>
    dc57:	4c 8b 44 24 68       	mov    0x68(%rsp),%r8
    dc5c:	4d 8b 48 20          	mov    0x20(%r8),%r9
    dc60:	4d 85 c9             	test   %r9,%r9
    dc63:	74 40                	je     dca5 <_ZN6PRTreeIdLi6EEC1ERSt6vectorISt4pairId11BoundingBoxESaIS4_EE+0x1745>
    dc65:	49 8b 79 28          	mov    0x28(%r9),%rdi
    dc69:	48 85 ff             	test   %rdi,%rdi
    dc6c:	74 20                	je     dc8e <_ZN6PRTreeIdLi6EEC1ERSt6vectorISt4pairId11BoundingBoxESaIS4_EE+0x172e>
    dc6e:	49 8b 71 38          	mov    0x38(%r9),%rsi
    dc72:	4c 89 44 24 58       	mov    %r8,0x58(%rsp)
    dc77:	4c 89 4c 24 68       	mov    %r9,0x68(%rsp)
    dc7c:	48 29 fe             	sub    %rdi,%rsi
    dc7f:	e8 8c 44 ff ff       	callq  2110 <_ZdlPvm@plt>
    dc84:	4c 8b 44 24 58       	mov    0x58(%rsp),%r8
    dc89:	4c 8b 4c 24 68       	mov    0x68(%rsp),%r9
    dc8e:	be 40 00 00 00       	mov    $0x40,%esi
    dc93:	4c 89 cf             	mov    %r9,%rdi
    dc96:	4c 89 44 24 68       	mov    %r8,0x68(%rsp)
    dc9b:	e8 70 44 ff ff       	callq  2110 <_ZdlPvm@plt>
    dca0:	4c 8b 44 24 68       	mov    0x68(%rsp),%r8
    dca5:	be 38 00 00 00       	mov    $0x38,%esi
    dcaa:	4c 89 c7             	mov    %r8,%rdi
    dcad:	e8 5e 44 ff ff       	callq  2110 <_ZdlPvm@plt>
    dcb2:	4d 8b 47 28          	mov    0x28(%r15),%r8
    dcb6:	4d 85 c0             	test   %r8,%r8
    dcb9:	74 77                	je     dd32 <_ZN6PRTreeIdLi6EEC1ERSt6vectorISt4pairId11BoundingBoxESaIS4_EE+0x17d2>
    dcbb:	49 8d 78 30          	lea    0x30(%r8),%rdi
    dcbf:	4c 89 44 24 68       	mov    %r8,0x68(%rsp)
    dcc4:	e8 37 5e ff ff       	callq  3b00 <_ZNSt10unique_ptrI10PRTreeNodeIdLi6EESt14default_deleteIS1_EED1Ev>
    dcc9:	4c 8b 44 24 68       	mov    0x68(%rsp),%r8
    dcce:	49 8d 78 28          	lea    0x28(%r8),%rdi
    dcd2:	e8 29 5e ff ff       	callq  3b00 <_ZNSt10unique_ptrI10PRTreeNodeIdLi6EESt14default_deleteIS1_EED1Ev>
    dcd7:	4c 8b 44 24 68       	mov    0x68(%rsp),%r8
    dcdc:	4d 8b 48 20          	mov    0x20(%r8),%r9
    dce0:	4d 85 c9             	test   %r9,%r9
    dce3:	74 40                	je     dd25 <_ZN6PRTreeIdLi6EEC1ERSt6vectorISt4pairId11BoundingBoxESaIS4_EE+0x17c5>
    dce5:	49 8b 79 28          	mov    0x28(%r9),%rdi
    dce9:	48 85 ff             	test   %rdi,%rdi
    dcec:	74 20                	je     dd0e <_ZN6PRTreeIdLi6EEC1ERSt6vectorISt4pairId11BoundingBoxESaIS4_EE+0x17ae>
    dcee:	49 8b 71 38          	mov    0x38(%r9),%rsi
    dcf2:	4c 89 44 24 58       	mov    %r8,0x58(%rsp)
    dcf7:	4c 89 4c 24 68       	mov    %r9,0x68(%rsp)
    dcfc:	48 29 fe             	sub    %rdi,%rsi
    dcff:	e8 0c 44 ff ff       	callq  2110 <_ZdlPvm@plt>
    dd04:	4c 8b 44 24 58       	mov    0x58(%rsp),%r8
    dd09:	4c 8b 4c 24 68       	mov    0x68(%rsp),%r9
    dd0e:	be 40 00 00 00       	mov    $0x40,%esi
    dd13:	4c 89 cf             	mov    %r9,%rdi
    dd16:	4c 89 44 24 68       	mov    %r8,0x68(%rsp)
    dd1b:	e8 f0 43 ff ff       	callq  2110 <_ZdlPvm@plt>
    dd20:	4c 8b 44 24 68       	mov    0x68(%rsp),%r8
    dd25:	be 38 00 00 00       	mov    $0x38,%esi
    dd2a:	4c 89 c7             	mov    %r8,%rdi
    dd2d:	e8 de 43 ff ff       	callq  2110 <_ZdlPvm@plt>
    dd32:	4d 8b 47 20          	mov    0x20(%r15),%r8
    dd36:	4d 85 c0             	test   %r8,%r8
    dd39:	74 2c                	je     dd67 <_ZN6PRTreeIdLi6EEC1ERSt6vectorISt4pairId11BoundingBoxESaIS4_EE+0x1807>
    dd3b:	49 8b 78 28          	mov    0x28(%r8),%rdi
    dd3f:	48 85 ff             	test   %rdi,%rdi
    dd42:	74 16                	je     dd5a <_ZN6PRTreeIdLi6EEC1ERSt6vectorISt4pairId11BoundingBoxESaIS4_EE+0x17fa>
    dd44:	49 8b 70 38          	mov    0x38(%r8),%rsi
    dd48:	4c 89 44 24 68       	mov    %r8,0x68(%rsp)
    dd4d:	48 29 fe             	sub    %rdi,%rsi
    dd50:	e8 bb 43 ff ff       	callq  2110 <_ZdlPvm@plt>
    dd55:	4c 8b 44 24 68       	mov    0x68(%rsp),%r8
    dd5a:	be 40 00 00 00       	mov    $0x40,%esi
    dd5f:	4c 89 c7             	mov    %r8,%rdi
    dd62:	e8 a9 43 ff ff       	callq  2110 <_ZdlPvm@plt>
    dd67:	be 38 00 00 00       	mov    $0x38,%esi
    dd6c:	4c 89 ff             	mov    %r15,%rdi
    dd6f:	e8 9c 43 ff ff       	callq  2110 <_ZdlPvm@plt>
    dd74:	4d 8b 7e 28          	mov    0x28(%r14),%r15
    dd78:	4d 85 ff             	test   %r15,%r15
    dd7b:	0f 84 7c 02 00 00    	je     dffd <_ZN6PRTreeIdLi6EEC1ERSt6vectorISt4pairId11BoundingBoxESaIS4_EE+0x1a9d>
    dd81:	4d 8b 47 30          	mov    0x30(%r15),%r8
    dd85:	4d 85 c0             	test   %r8,%r8
    dd88:	0f 84 10 01 00 00    	je     de9e <_ZN6PRTreeIdLi6EEC1ERSt6vectorISt4pairId11BoundingBoxESaIS4_EE+0x193e>
    dd8e:	4d 8b 48 30          	mov    0x30(%r8),%r9
    dd92:	4d 85 c9             	test   %r9,%r9
    dd95:	0f 84 9a 00 00 00    	je     de35 <_ZN6PRTreeIdLi6EEC1ERSt6vectorISt4pairId11BoundingBoxESaIS4_EE+0x18d5>
    dd9b:	49 8d 79 30          	lea    0x30(%r9),%rdi
    dd9f:	4c 89 44 24 58       	mov    %r8,0x58(%rsp)
    dda4:	4c 89 4c 24 68       	mov    %r9,0x68(%rsp)
    dda9:	e8 52 5d ff ff       	callq  3b00 <_ZNSt10unique_ptrI10PRTreeNodeIdLi6EESt14default_deleteIS1_EED1Ev>
    ddae:	4c 8b 4c 24 68       	mov    0x68(%rsp),%r9
    ddb3:	49 8d 79 28          	lea    0x28(%r9),%rdi
    ddb7:	e8 44 5d ff ff       	callq  3b00 <_ZNSt10unique_ptrI10PRTreeNodeIdLi6EESt14default_deleteIS1_EED1Ev>
    ddbc:	4c 8b 4c 24 68       	mov    0x68(%rsp),%r9
    ddc1:	4c 8b 44 24 58       	mov    0x58(%rsp),%r8
    ddc6:	4d 8b 51 20          	mov    0x20(%r9),%r10
    ddca:	4d 85 d2             	test   %r10,%r10
    ddcd:	74 4f                	je     de1e <_ZN6PRTreeIdLi6EEC1ERSt6vectorISt4pairId11BoundingBoxESaIS4_EE+0x18be>
    ddcf:	49 8b 7a 28          	mov    0x28(%r10),%rdi
    ddd3:	48 85 ff             	test   %rdi,%rdi
    ddd6:	74 25                	je     ddfd <_ZN6PRTreeIdLi6EEC1ERSt6vectorISt4pairId11BoundingBoxESaIS4_EE+0x189d>
    ddd8:	49 8b 72 38          	mov    0x38(%r10),%rsi
    dddc:	4c 89 4c 24 20       	mov    %r9,0x20(%rsp)
    dde1:	4c 89 54 24 68       	mov    %r10,0x68(%rsp)
    dde6:	48 29 fe             	sub    %rdi,%rsi
    dde9:	e8 22 43 ff ff       	callq  2110 <_ZdlPvm@plt>
    ddee:	4c 8b 4c 24 20       	mov    0x20(%rsp),%r9
    ddf3:	4c 8b 44 24 58       	mov    0x58(%rsp),%r8
    ddf8:	4c 8b 54 24 68       	mov    0x68(%rsp),%r10
    ddfd:	be 40 00 00 00       	mov    $0x40,%esi
    de02:	4c 89 d7             	mov    %r10,%rdi
    de05:	4c 89 4c 24 58       	mov    %r9,0x58(%rsp)
    de0a:	4c 89 44 24 68       	mov    %r8,0x68(%rsp)
    de0f:	e8 fc 42 ff ff       	callq  2110 <_ZdlPvm@plt>
    de14:	4c 8b 4c 24 58       	mov    0x58(%rsp),%r9
    de19:	4c 8b 44 24 68       	mov    0x68(%rsp),%r8
    de1e:	be 38 00 00 00       	mov    $0x38,%esi
    de23:	4c 89 cf             	mov    %r9,%rdi
    de26:	4c 89 44 24 68       	mov    %r8,0x68(%rsp)
    de2b:	e8 e0 42 ff ff       	callq  2110 <_ZdlPvm@plt>
    de30:	4c 8b 44 24 68       	mov    0x68(%rsp),%r8
    de35:	49 8d 78 28          	lea    0x28(%r8),%rdi
    de39:	4c 89 44 24 68       	mov    %r8,0x68(%rsp)
    de3e:	e8 bd 5c ff ff       	callq  3b00 <_ZNSt10unique_ptrI10PRTreeNodeIdLi6EESt14default_deleteIS1_EED1Ev>
    de43:	4c 8b 44 24 68       	mov    0x68(%rsp),%r8
    de48:	4d 8b 48 20          	mov    0x20(%r8),%r9
    de4c:	4d 85 c9             	test   %r9,%r9
    de4f:	74 40                	je     de91 <_ZN6PRTreeIdLi6EEC1ERSt6vectorISt4pairId11BoundingBoxESaIS4_EE+0x1931>
    de51:	49 8b 79 28          	mov    0x28(%r9),%rdi
    de55:	48 85 ff             	test   %rdi,%rdi
    de58:	74 20                	je     de7a <_ZN6PRTreeIdLi6EEC1ERSt6vectorISt4pairId11BoundingBoxESaIS4_EE+0x191a>
    de5a:	49 8b 71 38          	mov    0x38(%r9),%rsi
    de5e:	4c 89 44 24 58       	mov    %r8,0x58(%rsp)
    de63:	4c 89 4c 24 68       	mov    %r9,0x68(%rsp)
    de68:	48 29 fe             	sub    %rdi,%rsi
    de6b:	e8 a0 42 ff ff       	callq  2110 <_ZdlPvm@plt>
    de70:	4c 8b 44 24 58       	mov    0x58(%rsp),%r8
    de75:	4c 8b 4c 24 68       	mov    0x68(%rsp),%r9
    de7a:	be 40 00 00 00       	mov    $0x40,%esi
    de7f:	4c 89 cf             	mov    %r9,%rdi
    de82:	4c 89 44 24 68       	mov    %r8,0x68(%rsp)
    de87:	e8 84 42 ff ff       	callq  2110 <_ZdlPvm@plt>
    de8c:	4c 8b 44 24 68       	mov    0x68(%rsp),%r8
    de91:	be 38 00 00 00       	mov    $0x38,%esi
    de96:	4c 89 c7             	mov    %r8,%rdi
    de99:	e8 72 42 ff ff       	callq  2110 <_ZdlPvm@plt>
    de9e:	4d 8b 47 28          	mov    0x28(%r15),%r8
    dea2:	4d 85 c0             	test   %r8,%r8
    dea5:	0f 84 10 01 00 00    	je     dfbb <_ZN6PRTreeIdLi6EEC1ERSt6vectorISt4pairId11BoundingBoxESaIS4_EE+0x1a5b>
    deab:	49 8d 78 30          	lea    0x30(%r8),%rdi
    deaf:	4c 89 44 24 68       	mov    %r8,0x68(%rsp)
    deb4:	e8 47 5c ff ff       	callq  3b00 <_ZNSt10unique_ptrI10PRTreeNodeIdLi6EESt14default_deleteIS1_EED1Ev>
    deb9:	4c 8b 44 24 68       	mov    0x68(%rsp),%r8
    debe:	4d 8b 48 28          	mov    0x28(%r8),%r9
    dec2:	4d 85 c9             	test   %r9,%r9
    dec5:	0f 84 9a 00 00 00    	je     df65 <_ZN6PRTreeIdLi6EEC1ERSt6vectorISt4pairId11BoundingBoxESaIS4_EE+0x1a05>
    decb:	49 8d 79 30          	lea    0x30(%r9),%rdi
    decf:	4c 89 44 24 58       	mov    %r8,0x58(%rsp)
    ded4:	4c 89 4c 24 68       	mov    %r9,0x68(%rsp)
    ded9:	e8 22 5c ff ff       	callq  3b00 <_ZNSt10unique_ptrI10PRTreeNodeIdLi6EESt14default_deleteIS1_EED1Ev>
    dede:	4c 8b 4c 24 68       	mov    0x68(%rsp),%r9
    dee3:	49 8d 79 28          	lea    0x28(%r9),%rdi
    dee7:	e8 14 5c ff ff       	callq  3b00 <_ZNSt10unique_ptrI10PRTreeNodeIdLi6EESt14default_deleteIS1_EED1Ev>
    deec:	4c 8b 4c 24 68       	mov    0x68(%rsp),%r9
    def1:	4c 8b 44 24 58       	mov    0x58(%rsp),%r8
    def6:	4d 8b 51 20          	mov    0x20(%r9),%r10
    defa:	4d 85 d2             	test   %r10,%r10
    defd:	74 4f                	je     df4e <_ZN6PRTreeIdLi6EEC1ERSt6vectorISt4pairId11BoundingBoxESaIS4_EE+0x19ee>
    deff:	49 8b 7a 28          	mov    0x28(%r10),%rdi
    df03:	48 85 ff             	test   %rdi,%rdi
    df06:	74 25                	je     df2d <_ZN6PRTreeIdLi6EEC1ERSt6vectorISt4pairId11BoundingBoxESaIS4_EE+0x19cd>
    df08:	49 8b 72 38          	mov    0x38(%r10),%rsi
    df0c:	4c 89 4c 24 20       	mov    %r9,0x20(%rsp)
    df11:	4c 89 54 24 68       	mov    %r10,0x68(%rsp)
    df16:	48 29 fe             	sub    %rdi,%rsi
    df19:	e8 f2 41 ff ff       	callq  2110 <_ZdlPvm@plt>
    df1e:	4c 8b 4c 24 20       	mov    0x20(%rsp),%r9
    df23:	4c 8b 44 24 58       	mov    0x58(%rsp),%r8
    df28:	4c 8b 54 24 68       	mov    0x68(%rsp),%r10
    df2d:	be 40 00 00 00       	mov    $0x40,%esi
    df32:	4c 89 d7             	mov    %r10,%rdi
    df35:	4c 89 4c 24 58       	mov    %r9,0x58(%rsp)
    df3a:	4c 89 44 24 68       	mov    %r8,0x68(%rsp)
    df3f:	e8 cc 41 ff ff       	callq  2110 <_ZdlPvm@plt>
    df44:	4c 8b 4c 24 58       	mov    0x58(%rsp),%r9
    df49:	4c 8b 44 24 68       	mov    0x68(%rsp),%r8
    df4e:	be 38 00 00 00       	mov    $0x38,%esi
    df53:	4c 89 cf             	mov    %r9,%rdi
    df56:	4c 89 44 24 68       	mov    %r8,0x68(%rsp)
    df5b:	e8 b0 41 ff ff       	callq  2110 <_ZdlPvm@plt>
    df60:	4c 8b 44 24 68       	mov    0x68(%rsp),%r8
    df65:	4d 8b 48 20          	mov    0x20(%r8),%r9
    df69:	4d 85 c9             	test   %r9,%r9
    df6c:	74 40                	je     dfae <_ZN6PRTreeIdLi6EEC1ERSt6vectorISt4pairId11BoundingBoxESaIS4_EE+0x1a4e>
    df6e:	49 8b 79 28          	mov    0x28(%r9),%rdi
    df72:	48 85 ff             	test   %rdi,%rdi
    df75:	74 20                	je     df97 <_ZN6PRTreeIdLi6EEC1ERSt6vectorISt4pairId11BoundingBoxESaIS4_EE+0x1a37>
    df77:	49 8b 71 38          	mov    0x38(%r9),%rsi
    df7b:	4c 89 44 24 58       	mov    %r8,0x58(%rsp)
    df80:	4c 89 4c 24 68       	mov    %r9,0x68(%rsp)
    df85:	48 29 fe             	sub    %rdi,%rsi
    df88:	e8 83 41 ff ff       	callq  2110 <_ZdlPvm@plt>
    df8d:	4c 8b 44 24 58       	mov    0x58(%rsp),%r8
    df92:	4c 8b 4c 24 68       	mov    0x68(%rsp),%r9
    df97:	be 40 00 00 00       	mov    $0x40,%esi
    df9c:	4c 89 cf             	mov    %r9,%rdi
    df9f:	4c 89 44 24 68       	mov    %r8,0x68(%rsp)
    dfa4:	e8 67 41 ff ff       	callq  2110 <_ZdlPvm@plt>
    dfa9:	4c 8b 44 24 68       	mov    0x68(%rsp),%r8
    dfae:	be 38 00 00 00       	mov    $0x38,%esi
    dfb3:	4c 89 c7             	mov    %r8,%rdi
    dfb6:	e8 55 41 ff ff       	callq  2110 <_ZdlPvm@plt>
    dfbb:	4d 8b 47 20          	mov    0x20(%r15),%r8
    dfbf:	4d 85 c0             	test   %r8,%r8
    dfc2:	74 2c                	je     dff0 <_ZN6PRTreeIdLi6EEC1ERSt6vectorISt4pairId11BoundingBoxESaIS4_EE+0x1a90>
    dfc4:	49 8b 78 28          	mov    0x28(%r8),%rdi
    dfc8:	48 85 ff             	test   %rdi,%rdi
    dfcb:	74 16                	je     dfe3 <_ZN6PRTreeIdLi6EEC1ERSt6vectorISt4pairId11BoundingBoxESaIS4_EE+0x1a83>
    dfcd:	49 8b 70 38          	mov    0x38(%r8),%rsi
    dfd1:	4c 89 44 24 68       	mov    %r8,0x68(%rsp)
    dfd6:	48 29 fe             	sub    %rdi,%rsi
    dfd9:	e8 32 41 ff ff       	callq  2110 <_ZdlPvm@plt>
    dfde:	4c 8b 44 24 68       	mov    0x68(%rsp),%r8
    dfe3:	be 40 00 00 00       	mov    $0x40,%esi
    dfe8:	4c 89 c7             	mov    %r8,%rdi
    dfeb:	e8 20 41 ff ff       	callq  2110 <_ZdlPvm@plt>
    dff0:	be 38 00 00 00       	mov    $0x38,%esi
    dff5:	4c 89 ff             	mov    %r15,%rdi
    dff8:	e8 13 41 ff ff       	callq  2110 <_ZdlPvm@plt>
    dffd:	4d 8b 7e 20          	mov    0x20(%r14),%r15
    e001:	4d 85 ff             	test   %r15,%r15
    e004:	74 22                	je     e028 <_ZN6PRTreeIdLi6EEC1ERSt6vectorISt4pairId11BoundingBoxESaIS4_EE+0x1ac8>
    e006:	49 8b 7f 28          	mov    0x28(%r15),%rdi
    e00a:	48 85 ff             	test   %rdi,%rdi
    e00d:	74 0c                	je     e01b <_ZN6PRTreeIdLi6EEC1ERSt6vectorISt4pairId11BoundingBoxESaIS4_EE+0x1abb>
    e00f:	49 8b 77 38          	mov    0x38(%r15),%rsi
    e013:	48 29 fe             	sub    %rdi,%rsi
    e016:	e8 f5 40 ff ff       	callq  2110 <_ZdlPvm@plt>
    e01b:	be 40 00 00 00       	mov    $0x40,%esi
    e020:	4c 89 ff             	mov    %r15,%rdi
    e023:	e8 e8 40 ff ff       	callq  2110 <_ZdlPvm@plt>
    e028:	be 38 00 00 00       	mov    $0x38,%esi
    e02d:	4c 89 f7             	mov    %r14,%rdi
    e030:	e8 db 40 ff ff       	callq  2110 <_ZdlPvm@plt>
    e035:	4d 8b 75 20          	mov    0x20(%r13),%r14
    e039:	4d 85 f6             	test   %r14,%r14
    e03c:	74 22                	je     e060 <_ZN6PRTreeIdLi6EEC1ERSt6vectorISt4pairId11BoundingBoxESaIS4_EE+0x1b00>
    e03e:	49 8b 7e 28          	mov    0x28(%r14),%rdi
    e042:	48 85 ff             	test   %rdi,%rdi
    e045:	74 0c                	je     e053 <_ZN6PRTreeIdLi6EEC1ERSt6vectorISt4pairId11BoundingBoxESaIS4_EE+0x1af3>
    e047:	49 8b 76 38          	mov    0x38(%r14),%rsi
    e04b:	48 29 fe             	sub    %rdi,%rsi
    e04e:	e8 bd 40 ff ff       	callq  2110 <_ZdlPvm@plt>
    e053:	be 40 00 00 00       	mov    $0x40,%esi
    e058:	4c 89 f7             	mov    %r14,%rdi
    e05b:	e8 b0 40 ff ff       	callq  2110 <_ZdlPvm@plt>
    e060:	be 38 00 00 00       	mov    $0x38,%esi
    e065:	4c 89 ef             	mov    %r13,%rdi
    e068:	e8 a3 40 ff ff       	callq  2110 <_ZdlPvm@plt>
    e06d:	4d 8b 6c 24 28       	mov    0x28(%r12),%r13
    e072:	4d 85 ed             	test   %r13,%r13
    e075:	0f 84 36 0d 00 00    	je     edb1 <_ZN6PRTreeIdLi6EEC1ERSt6vectorISt4pairId11BoundingBoxESaIS4_EE+0x2851>
    e07b:	4d 8b 75 30          	mov    0x30(%r13),%r14
    e07f:	4d 85 f6             	test   %r14,%r14
    e082:	0f 84 72 06 00 00    	je     e6fa <_ZN6PRTreeIdLi6EEC1ERSt6vectorISt4pairId11BoundingBoxESaIS4_EE+0x219a>
    e088:	4d 8b 7e 30          	mov    0x30(%r14),%r15
    e08c:	4d 85 ff             	test   %r15,%r15
    e08f:	0f 84 10 03 00 00    	je     e3a5 <_ZN6PRTreeIdLi6EEC1ERSt6vectorISt4pairId11BoundingBoxESaIS4_EE+0x1e45>
    e095:	4d 8b 47 30          	mov    0x30(%r15),%r8
    e099:	4d 85 c0             	test   %r8,%r8
    e09c:	0f 84 10 01 00 00    	je     e1b2 <_ZN6PRTreeIdLi6EEC1ERSt6vectorISt4pairId11BoundingBoxESaIS4_EE+0x1c52>
    e0a2:	4d 8b 48 30          	mov    0x30(%r8),%r9
    e0a6:	4d 85 c9             	test   %r9,%r9
    e0a9:	0f 84 9a 00 00 00    	je     e149 <_ZN6PRTreeIdLi6EEC1ERSt6vectorISt4pairId11BoundingBoxESaIS4_EE+0x1be9>
    e0af:	49 8d 79 30          	lea    0x30(%r9),%rdi
    e0b3:	4c 89 44 24 58       	mov    %r8,0x58(%rsp)
    e0b8:	4c 89 4c 24 68       	mov    %r9,0x68(%rsp)
    e0bd:	e8 3e 5a ff ff       	callq  3b00 <_ZNSt10unique_ptrI10PRTreeNodeIdLi6EESt14default_deleteIS1_EED1Ev>
    e0c2:	4c 8b 4c 24 68       	mov    0x68(%rsp),%r9
    e0c7:	49 8d 79 28          	lea    0x28(%r9),%rdi
    e0cb:	e8 30 5a ff ff       	callq  3b00 <_ZNSt10unique_ptrI10PRTreeNodeIdLi6EESt14default_deleteIS1_EED1Ev>
    e0d0:	4c 8b 4c 24 68       	mov    0x68(%rsp),%r9
    e0d5:	4c 8b 44 24 58       	mov    0x58(%rsp),%r8
    e0da:	4d 8b 51 20          	mov    0x20(%r9),%r10
    e0de:	4d 85 d2             	test   %r10,%r10
    e0e1:	74 4f                	je     e132 <_ZN6PRTreeIdLi6EEC1ERSt6vectorISt4pairId11BoundingBoxESaIS4_EE+0x1bd2>
    e0e3:	49 8b 7a 28          	mov    0x28(%r10),%rdi
    e0e7:	48 85 ff             	test   %rdi,%rdi
    e0ea:	74 25                	je     e111 <_ZN6PRTreeIdLi6EEC1ERSt6vectorISt4pairId11BoundingBoxESaIS4_EE+0x1bb1>
    e0ec:	49 8b 72 38          	mov    0x38(%r10),%rsi
    e0f0:	4c 89 4c 24 20       	mov    %r9,0x20(%rsp)
    e0f5:	4c 89 54 24 68       	mov    %r10,0x68(%rsp)
    e0fa:	48 29 fe             	sub    %rdi,%rsi
    e0fd:	e8 0e 40 ff ff       	callq  2110 <_ZdlPvm@plt>
    e102:	4c 8b 4c 24 20       	mov    0x20(%rsp),%r9
    e107:	4c 8b 44 24 58       	mov    0x58(%rsp),%r8
    e10c:	4c 8b 54 24 68       	mov    0x68(%rsp),%r10
    e111:	be 40 00 00 00       	mov    $0x40,%esi
    e116:	4c 89 d7             	mov    %r10,%rdi
    e119:	4c 89 4c 24 58       	mov    %r9,0x58(%rsp)
    e11e:	4c 89 44 24 68       	mov    %r8,0x68(%rsp)
    e123:	e8 e8 3f ff ff       	callq  2110 <_ZdlPvm@plt>
    e128:	4c 8b 4c 24 58       	mov    0x58(%rsp),%r9
    e12d:	4c 8b 44 24 68       	mov    0x68(%rsp),%r8
    e132:	be 38 00 00 00       	mov    $0x38,%esi
    e137:	4c 89 cf             	mov    %r9,%rdi
    e13a:	4c 89 44 24 68       	mov    %r8,0x68(%rsp)
    e13f:	e8 cc 3f ff ff       	callq  2110 <_ZdlPvm@plt>
    e144:	4c 8b 44 24 68       	mov    0x68(%rsp),%r8
    e149:	49 8d 78 28          	lea    0x28(%r8),%rdi
    e14d:	4c 89 44 24 68       	mov    %r8,0x68(%rsp)
    e152:	e8 a9 59 ff ff       	callq  3b00 <_ZNSt10unique_ptrI10PRTreeNodeIdLi6EESt14default_deleteIS1_EED1Ev>
    e157:	4c 8b 44 24 68       	mov    0x68(%rsp),%r8
    e15c:	4d 8b 48 20          	mov    0x20(%r8),%r9
    e160:	4d 85 c9             	test   %r9,%r9
    e163:	74 40                	je     e1a5 <_ZN6PRTreeIdLi6EEC1ERSt6vectorISt4pairId11BoundingBoxESaIS4_EE+0x1c45>
    e165:	49 8b 79 28          	mov    0x28(%r9),%rdi
    e169:	48 85 ff             	test   %rdi,%rdi
    e16c:	74 20                	je     e18e <_ZN6PRTreeIdLi6EEC1ERSt6vectorISt4pairId11BoundingBoxESaIS4_EE+0x1c2e>
    e16e:	49 8b 71 38          	mov    0x38(%r9),%rsi
    e172:	4c 89 44 24 58       	mov    %r8,0x58(%rsp)
    e177:	4c 89 4c 24 68       	mov    %r9,0x68(%rsp)
    e17c:	48 29 fe             	sub    %rdi,%rsi
    e17f:	e8 8c 3f ff ff       	callq  2110 <_ZdlPvm@plt>
    e184:	4c 8b 44 24 58       	mov    0x58(%rsp),%r8
    e189:	4c 8b 4c 24 68       	mov    0x68(%rsp),%r9
    e18e:	be 40 00 00 00       	mov    $0x40,%esi
    e193:	4c 89 cf             	mov    %r9,%rdi
    e196:	4c 89 44 24 68       	mov    %r8,0x68(%rsp)
    e19b:	e8 70 3f ff ff       	callq  2110 <_ZdlPvm@plt>
    e1a0:	4c 8b 44 24 68       	mov    0x68(%rsp),%r8
    e1a5:	be 38 00 00 00       	mov    $0x38,%esi
    e1aa:	4c 89 c7             	mov    %r8,%rdi
    e1ad:	e8 5e 3f ff ff       	callq  2110 <_ZdlPvm@plt>
    e1b2:	4d 8b 47 28          	mov    0x28(%r15),%r8
    e1b6:	4d 85 c0             	test   %r8,%r8
    e1b9:	0f 84 a4 01 00 00    	je     e363 <_ZN6PRTreeIdLi6EEC1ERSt6vectorISt4pairId11BoundingBoxESaIS4_EE+0x1e03>
    e1bf:	4d 8b 48 30          	mov    0x30(%r8),%r9
    e1c3:	4d 85 c9             	test   %r9,%r9
    e1c6:	0f 84 9a 00 00 00    	je     e266 <_ZN6PRTreeIdLi6EEC1ERSt6vectorISt4pairId11BoundingBoxESaIS4_EE+0x1d06>
    e1cc:	49 8d 79 30          	lea    0x30(%r9),%rdi
    e1d0:	4c 89 44 24 58       	mov    %r8,0x58(%rsp)
    e1d5:	4c 89 4c 24 68       	mov    %r9,0x68(%rsp)
    e1da:	e8 21 59 ff ff       	callq  3b00 <_ZNSt10unique_ptrI10PRTreeNodeIdLi6EESt14default_deleteIS1_EED1Ev>
    e1df:	4c 8b 4c 24 68       	mov    0x68(%rsp),%r9
    e1e4:	49 8d 79 28          	lea    0x28(%r9),%rdi
    e1e8:	e8 13 59 ff ff       	callq  3b00 <_ZNSt10unique_ptrI10PRTreeNodeIdLi6EESt14default_deleteIS1_EED1Ev>
    e1ed:	4c 8b 4c 24 68       	mov    0x68(%rsp),%r9
    e1f2:	4c 8b 44 24 58       	mov    0x58(%rsp),%r8
    e1f7:	4d 8b 51 20          	mov    0x20(%r9),%r10
    e1fb:	4d 85 d2             	test   %r10,%r10
    e1fe:	74 4f                	je     e24f <_ZN6PRTreeIdLi6EEC1ERSt6vectorISt4pairId11BoundingBoxESaIS4_EE+0x1cef>
    e200:	49 8b 7a 28          	mov    0x28(%r10),%rdi
    e204:	48 85 ff             	test   %rdi,%rdi
    e207:	74 25                	je     e22e <_ZN6PRTreeIdLi6EEC1ERSt6vectorISt4pairId11BoundingBoxESaIS4_EE+0x1cce>
    e209:	49 8b 72 38          	mov    0x38(%r10),%rsi
    e20d:	4c 89 4c 24 20       	mov    %r9,0x20(%rsp)
    e212:	4c 89 54 24 68       	mov    %r10,0x68(%rsp)
    e217:	48 29 fe             	sub    %rdi,%rsi
    e21a:	e8 f1 3e ff ff       	callq  2110 <_ZdlPvm@plt>
    e21f:	4c 8b 4c 24 20       	mov    0x20(%rsp),%r9
    e224:	4c 8b 44 24 58       	mov    0x58(%rsp),%r8
    e229:	4c 8b 54 24 68       	mov    0x68(%rsp),%r10
    e22e:	be 40 00 00 00       	mov    $0x40,%esi
    e233:	4c 89 d7             	mov    %r10,%rdi
    e236:	4c 89 4c 24 58       	mov    %r9,0x58(%rsp)
    e23b:	4c 89 44 24 68       	mov    %r8,0x68(%rsp)
    e240:	e8 cb 3e ff ff       	callq  2110 <_ZdlPvm@plt>
    e245:	4c 8b 4c 24 58       	mov    0x58(%rsp),%r9
    e24a:	4c 8b 44 24 68       	mov    0x68(%rsp),%r8
    e24f:	be 38 00 00 00       	mov    $0x38,%esi
    e254:	4c 89 cf             	mov    %r9,%rdi
    e257:	4c 89 44 24 68       	mov    %r8,0x68(%rsp)
    e25c:	e8 af 3e ff ff       	callq  2110 <_ZdlPvm@plt>
    e261:	4c 8b 44 24 68       	mov    0x68(%rsp),%r8
    e266:	4d 8b 48 28          	mov    0x28(%r8),%r9
    e26a:	4d 85 c9             	test   %r9,%r9
    e26d:	0f 84 9a 00 00 00    	je     e30d <_ZN6PRTreeIdLi6EEC1ERSt6vectorISt4pairId11BoundingBoxESaIS4_EE+0x1dad>
    e273:	49 8d 79 30          	lea    0x30(%r9),%rdi
    e277:	4c 89 44 24 58       	mov    %r8,0x58(%rsp)
    e27c:	4c 89 4c 24 68       	mov    %r9,0x68(%rsp)
    e281:	e8 7a 58 ff ff       	callq  3b00 <_ZNSt10unique_ptrI10PRTreeNodeIdLi6EESt14default_deleteIS1_EED1Ev>
    e286:	4c 8b 4c 24 68       	mov    0x68(%rsp),%r9
    e28b:	49 8d 79 28          	lea    0x28(%r9),%rdi
    e28f:	e8 6c 58 ff ff       	callq  3b00 <_ZNSt10unique_ptrI10PRTreeNodeIdLi6EESt14default_deleteIS1_EED1Ev>
    e294:	4c 8b 4c 24 68       	mov    0x68(%rsp),%r9
    e299:	4c 8b 44 24 58       	mov    0x58(%rsp),%r8
    e29e:	4d 8b 51 20          	mov    0x20(%r9),%r10
    e2a2:	4d 85 d2             	test   %r10,%r10
    e2a5:	74 4f                	je     e2f6 <_ZN6PRTreeIdLi6EEC1ERSt6vectorISt4pairId11BoundingBoxESaIS4_EE+0x1d96>
    e2a7:	49 8b 7a 28          	mov    0x28(%r10),%rdi
    e2ab:	48 85 ff             	test   %rdi,%rdi
    e2ae:	74 25                	je     e2d5 <_ZN6PRTreeIdLi6EEC1ERSt6vectorISt4pairId11BoundingBoxESaIS4_EE+0x1d75>
    e2b0:	49 8b 72 38          	mov    0x38(%r10),%rsi
    e2b4:	4c 89 4c 24 20       	mov    %r9,0x20(%rsp)
    e2b9:	4c 89 54 24 68       	mov    %r10,0x68(%rsp)
    e2be:	48 29 fe             	sub    %rdi,%rsi
    e2c1:	e8 4a 3e ff ff       	callq  2110 <_ZdlPvm@plt>
    e2c6:	4c 8b 4c 24 20       	mov    0x20(%rsp),%r9
    e2cb:	4c 8b 44 24 58       	mov    0x58(%rsp),%r8
    e2d0:	4c 8b 54 24 68       	mov    0x68(%rsp),%r10
    e2d5:	be 40 00 00 00       	mov    $0x40,%esi
    e2da:	4c 89 d7             	mov    %r10,%rdi
    e2dd:	4c 89 4c 24 58       	mov    %r9,0x58(%rsp)
    e2e2:	4c 89 44 24 68       	mov    %r8,0x68(%rsp)
    e2e7:	e8 24 3e ff ff       	callq  2110 <_ZdlPvm@plt>
    e2ec:	4c 8b 4c 24 58       	mov    0x58(%rsp),%r9
    e2f1:	4c 8b 44 24 68       	mov    0x68(%rsp),%r8
    e2f6:	be 38 00 00 00       	mov    $0x38,%esi
    e2fb:	4c 89 cf             	mov    %r9,%rdi
    e2fe:	4c 89 44 24 68       	mov    %r8,0x68(%rsp)
    e303:	e8 08 3e ff ff       	callq  2110 <_ZdlPvm@plt>
    e308:	4c 8b 44 24 68       	mov    0x68(%rsp),%r8
    e30d:	4d 8b 48 20          	mov    0x20(%r8),%r9
    e311:	4d 85 c9             	test   %r9,%r9
    e314:	74 40                	je     e356 <_ZN6PRTreeIdLi6EEC1ERSt6vectorISt4pairId11BoundingBoxESaIS4_EE+0x1df6>
    e316:	49 8b 79 28          	mov    0x28(%r9),%rdi
    e31a:	48 85 ff             	test   %rdi,%rdi
    e31d:	74 20                	je     e33f <_ZN6PRTreeIdLi6EEC1ERSt6vectorISt4pairId11BoundingBoxESaIS4_EE+0x1ddf>
    e31f:	49 8b 71 38          	mov    0x38(%r9),%rsi
    e323:	4c 89 44 24 58       	mov    %r8,0x58(%rsp)
    e328:	4c 89 4c 24 68       	mov    %r9,0x68(%rsp)
    e32d:	48 29 fe             	sub    %rdi,%rsi
    e330:	e8 db 3d ff ff       	callq  2110 <_ZdlPvm@plt>
    e335:	4c 8b 44 24 58       	mov    0x58(%rsp),%r8
    e33a:	4c 8b 4c 24 68       	mov    0x68(%rsp),%r9
    e33f:	be 40 00 00 00       	mov    $0x40,%esi
    e344:	4c 89 cf             	mov    %r9,%rdi
    e347:	4c 89 44 24 68       	mov    %r8,0x68(%rsp)
    e34c:	e8 bf 3d ff ff       	callq  2110 <_ZdlPvm@plt>
    e351:	4c 8b 44 24 68       	mov    0x68(%rsp),%r8
    e356:	be 38 00 00 00       	mov    $0x38,%esi
    e35b:	4c 89 c7             	mov    %r8,%rdi
    e35e:	e8 ad 3d ff ff       	callq  2110 <_ZdlPvm@plt>
    e363:	4d 8b 47 20          	mov    0x20(%r15),%r8
    e367:	4d 85 c0             	test   %r8,%r8
    e36a:	74 2c                	je     e398 <_ZN6PRTreeIdLi6EEC1ERSt6vectorISt4pairId11BoundingBoxESaIS4_EE+0x1e38>
    e36c:	49 8b 78 28          	mov    0x28(%r8),%rdi
    e370:	48 85 ff             	test   %rdi,%rdi
    e373:	74 16                	je     e38b <_ZN6PRTreeIdLi6EEC1ERSt6vectorISt4pairId11BoundingBoxESaIS4_EE+0x1e2b>
    e375:	49 8b 70 38          	mov    0x38(%r8),%rsi
    e379:	4c 89 44 24 68       	mov    %r8,0x68(%rsp)
    e37e:	48 29 fe             	sub    %rdi,%rsi
    e381:	e8 8a 3d ff ff       	callq  2110 <_ZdlPvm@plt>
    e386:	4c 8b 44 24 68       	mov    0x68(%rsp),%r8
    e38b:	be 40 00 00 00       	mov    $0x40,%esi
    e390:	4c 89 c7             	mov    %r8,%rdi
    e393:	e8 78 3d ff ff       	callq  2110 <_ZdlPvm@plt>
    e398:	be 38 00 00 00       	mov    $0x38,%esi
    e39d:	4c 89 ff             	mov    %r15,%rdi
    e3a0:	e8 6b 3d ff ff       	callq  2110 <_ZdlPvm@plt>
    e3a5:	4d 8b 7e 28          	mov    0x28(%r14),%r15
    e3a9:	4d 85 ff             	test   %r15,%r15
    e3ac:	0f 84 10 03 00 00    	je     e6c2 <_ZN6PRTreeIdLi6EEC1ERSt6vectorISt4pairId11BoundingBoxESaIS4_EE+0x2162>
    e3b2:	4d 8b 47 30          	mov    0x30(%r15),%r8
    e3b6:	4d 85 c0             	test   %r8,%r8
    e3b9:	0f 84 a4 01 00 00    	je     e563 <_ZN6PRTreeIdLi6EEC1ERSt6vectorISt4pairId11BoundingBoxESaIS4_EE+0x2003>
    e3bf:	4d 8b 48 30          	mov    0x30(%r8),%r9
    e3c3:	4d 85 c9             	test   %r9,%r9
    e3c6:	0f 84 9a 00 00 00    	je     e466 <_ZN6PRTreeIdLi6EEC1ERSt6vectorISt4pairId11BoundingBoxESaIS4_EE+0x1f06>
    e3cc:	49 8d 79 30          	lea    0x30(%r9),%rdi
    e3d0:	4c 89 44 24 58       	mov    %r8,0x58(%rsp)
    e3d5:	4c 89 4c 24 68       	mov    %r9,0x68(%rsp)
    e3da:	e8 21 57 ff ff       	callq  3b00 <_ZNSt10unique_ptrI10PRTreeNodeIdLi6EESt14default_deleteIS1_EED1Ev>
    e3df:	4c 8b 4c 24 68       	mov    0x68(%rsp),%r9
    e3e4:	49 8d 79 28          	lea    0x28(%r9),%rdi
    e3e8:	e8 13 57 ff ff       	callq  3b00 <_ZNSt10unique_ptrI10PRTreeNodeIdLi6EESt14default_deleteIS1_EED1Ev>
    e3ed:	4c 8b 4c 24 68       	mov    0x68(%rsp),%r9
    e3f2:	4c 8b 44 24 58       	mov    0x58(%rsp),%r8
    e3f7:	4d 8b 51 20          	mov    0x20(%r9),%r10
    e3fb:	4d 85 d2             	test   %r10,%r10
    e3fe:	74 4f                	je     e44f <_ZN6PRTreeIdLi6EEC1ERSt6vectorISt4pairId11BoundingBoxESaIS4_EE+0x1eef>
    e400:	49 8b 7a 28          	mov    0x28(%r10),%rdi
    e404:	48 85 ff             	test   %rdi,%rdi
    e407:	74 25                	je     e42e <_ZN6PRTreeIdLi6EEC1ERSt6vectorISt4pairId11BoundingBoxESaIS4_EE+0x1ece>
    e409:	49 8b 72 38          	mov    0x38(%r10),%rsi
    e40d:	4c 89 4c 24 20       	mov    %r9,0x20(%rsp)
    e412:	4c 89 54 24 68       	mov    %r10,0x68(%rsp)
    e417:	48 29 fe             	sub    %rdi,%rsi
    e41a:	e8 f1 3c ff ff       	callq  2110 <_ZdlPvm@plt>
    e41f:	4c 8b 4c 24 20       	mov    0x20(%rsp),%r9
    e424:	4c 8b 44 24 58       	mov    0x58(%rsp),%r8
    e429:	4c 8b 54 24 68       	mov    0x68(%rsp),%r10
    e42e:	be 40 00 00 00       	mov    $0x40,%esi
    e433:	4c 89 d7             	mov    %r10,%rdi
    e436:	4c 89 4c 24 58       	mov    %r9,0x58(%rsp)
    e43b:	4c 89 44 24 68       	mov    %r8,0x68(%rsp)
    e440:	e8 cb 3c ff ff       	callq  2110 <_ZdlPvm@plt>
    e445:	4c 8b 4c 24 58       	mov    0x58(%rsp),%r9
    e44a:	4c 8b 44 24 68       	mov    0x68(%rsp),%r8
    e44f:	be 38 00 00 00       	mov    $0x38,%esi
    e454:	4c 89 cf             	mov    %r9,%rdi
    e457:	4c 89 44 24 68       	mov    %r8,0x68(%rsp)
    e45c:	e8 af 3c ff ff       	callq  2110 <_ZdlPvm@plt>
    e461:	4c 8b 44 24 68       	mov    0x68(%rsp),%r8
    e466:	4d 8b 48 28          	mov    0x28(%r8),%r9
    e46a:	4d 85 c9             	test   %r9,%r9
    e46d:	0f 84 9a 00 00 00    	je     e50d <_ZN6PRTreeIdLi6EEC1ERSt6vectorISt4pairId11BoundingBoxESaIS4_EE+0x1fad>
    e473:	49 8d 79 30          	lea    0x30(%r9),%rdi
    e477:	4c 89 44 24 58       	mov    %r8,0x58(%rsp)
    e47c:	4c 89 4c 24 68       	mov    %r9,0x68(%rsp)
    e481:	e8 7a 56 ff ff       	callq  3b00 <_ZNSt10unique_ptrI10PRTreeNodeIdLi6EESt14default_deleteIS1_EED1Ev>
    e486:	4c 8b 4c 24 68       	mov    0x68(%rsp),%r9
    e48b:	49 8d 79 28          	lea    0x28(%r9),%rdi
    e48f:	e8 6c 56 ff ff       	callq  3b00 <_ZNSt10unique_ptrI10PRTreeNodeIdLi6EESt14default_deleteIS1_EED1Ev>
    e494:	4c 8b 4c 24 68       	mov    0x68(%rsp),%r9
    e499:	4c 8b 44 24 58       	mov    0x58(%rsp),%r8
    e49e:	4d 8b 51 20          	mov    0x20(%r9),%r10
    e4a2:	4d 85 d2             	test   %r10,%r10
    e4a5:	74 4f                	je     e4f6 <_ZN6PRTreeIdLi6EEC1ERSt6vectorISt4pairId11BoundingBoxESaIS4_EE+0x1f96>
    e4a7:	49 8b 7a 28          	mov    0x28(%r10),%rdi
    e4ab:	48 85 ff             	test   %rdi,%rdi
    e4ae:	74 25                	je     e4d5 <_ZN6PRTreeIdLi6EEC1ERSt6vectorISt4pairId11BoundingBoxESaIS4_EE+0x1f75>
    e4b0:	49 8b 72 38          	mov    0x38(%r10),%rsi
    e4b4:	4c 89 4c 24 20       	mov    %r9,0x20(%rsp)
    e4b9:	4c 89 54 24 68       	mov    %r10,0x68(%rsp)
    e4be:	48 29 fe             	sub    %rdi,%rsi
    e4c1:	e8 4a 3c ff ff       	callq  2110 <_ZdlPvm@plt>
    e4c6:	4c 8b 4c 24 20       	mov    0x20(%rsp),%r9
    e4cb:	4c 8b 44 24 58       	mov    0x58(%rsp),%r8
    e4d0:	4c 8b 54 24 68       	mov    0x68(%rsp),%r10
    e4d5:	be 40 00 00 00       	mov    $0x40,%esi
    e4da:	4c 89 d7             	mov    %r10,%rdi
    e4dd:	4c 89 4c 24 58       	mov    %r9,0x58(%rsp)
    e4e2:	4c 89 44 24 68       	mov    %r8,0x68(%rsp)
    e4e7:	e8 24 3c ff ff       	callq  2110 <_ZdlPvm@plt>
    e4ec:	4c 8b 4c 24 58       	mov    0x58(%rsp),%r9
    e4f1:	4c 8b 44 24 68       	mov    0x68(%rsp),%r8
    e4f6:	be 38 00 00 00       	mov    $0x38,%esi
    e4fb:	4c 89 cf             	mov    %r9,%rdi
    e4fe:	4c 89 44 24 68       	mov    %r8,0x68(%rsp)
    e503:	e8 08 3c ff ff       	callq  2110 <_ZdlPvm@plt>
    e508:	4c 8b 44 24 68       	mov    0x68(%rsp),%r8
    e50d:	4d 8b 48 20          	mov    0x20(%r8),%r9
    e511:	4d 85 c9             	test   %r9,%r9
    e514:	74 40                	je     e556 <_ZN6PRTreeIdLi6EEC1ERSt6vectorISt4pairId11BoundingBoxESaIS4_EE+0x1ff6>
    e516:	49 8b 79 28          	mov    0x28(%r9),%rdi
    e51a:	48 85 ff             	test   %rdi,%rdi
    e51d:	74 20                	je     e53f <_ZN6PRTreeIdLi6EEC1ERSt6vectorISt4pairId11BoundingBoxESaIS4_EE+0x1fdf>
    e51f:	49 8b 71 38          	mov    0x38(%r9),%rsi
    e523:	4c 89 44 24 58       	mov    %r8,0x58(%rsp)
    e528:	4c 89 4c 24 68       	mov    %r9,0x68(%rsp)
    e52d:	48 29 fe             	sub    %rdi,%rsi
    e530:	e8 db 3b ff ff       	callq  2110 <_ZdlPvm@plt>
    e535:	4c 8b 44 24 58       	mov    0x58(%rsp),%r8
    e53a:	4c 8b 4c 24 68       	mov    0x68(%rsp),%r9
    e53f:	be 40 00 00 00       	mov    $0x40,%esi
    e544:	4c 89 cf             	mov    %r9,%rdi
    e547:	4c 89 44 24 68       	mov    %r8,0x68(%rsp)
    e54c:	e8 bf 3b ff ff       	callq  2110 <_ZdlPvm@plt>
    e551:	4c 8b 44 24 68       	mov    0x68(%rsp),%r8
    e556:	be 38 00 00 00       	mov    $0x38,%esi
    e55b:	4c 89 c7             	mov    %r8,%rdi
    e55e:	e8 ad 3b ff ff       	callq  2110 <_ZdlPvm@plt>
    e563:	4d 8b 47 28          	mov    0x28(%r15),%r8
    e567:	4d 85 c0             	test   %r8,%r8
    e56a:	0f 84 10 01 00 00    	je     e680 <_ZN6PRTreeIdLi6EEC1ERSt6vectorISt4pairId11BoundingBoxESaIS4_EE+0x2120>
    e570:	49 8d 78 30          	lea    0x30(%r8),%rdi
    e574:	4c 89 44 24 68       	mov    %r8,0x68(%rsp)
    e579:	e8 82 55 ff ff       	callq  3b00 <_ZNSt10unique_ptrI10PRTreeNodeIdLi6EESt14default_deleteIS1_EED1Ev>
    e57e:	4c 8b 44 24 68       	mov    0x68(%rsp),%r8
    e583:	4d 8b 48 28          	mov    0x28(%r8),%r9
    e587:	4d 85 c9             	test   %r9,%r9
    e58a:	0f 84 9a 00 00 00    	je     e62a <_ZN6PRTreeIdLi6EEC1ERSt6vectorISt4pairId11BoundingBoxESaIS4_EE+0x20ca>
    e590:	49 8d 79 30          	lea    0x30(%r9),%rdi
    e594:	4c 89 44 24 58       	mov    %r8,0x58(%rsp)
    e599:	4c 89 4c 24 68       	mov    %r9,0x68(%rsp)
    e59e:	e8 5d 55 ff ff       	callq  3b00 <_ZNSt10unique_ptrI10PRTreeNodeIdLi6EESt14default_deleteIS1_EED1Ev>
    e5a3:	4c 8b 4c 24 68       	mov    0x68(%rsp),%r9
    e5a8:	49 8d 79 28          	lea    0x28(%r9),%rdi
    e5ac:	e8 4f 55 ff ff       	callq  3b00 <_ZNSt10unique_ptrI10PRTreeNodeIdLi6EESt14default_deleteIS1_EED1Ev>
    e5b1:	4c 8b 4c 24 68       	mov    0x68(%rsp),%r9
    e5b6:	4c 8b 44 24 58       	mov    0x58(%rsp),%r8
    e5bb:	4d 8b 51 20          	mov    0x20(%r9),%r10
    e5bf:	4d 85 d2             	test   %r10,%r10
    e5c2:	74 4f                	je     e613 <_ZN6PRTreeIdLi6EEC1ERSt6vectorISt4pairId11BoundingBoxESaIS4_EE+0x20b3>
    e5c4:	49 8b 7a 28          	mov    0x28(%r10),%rdi
    e5c8:	48 85 ff             	test   %rdi,%rdi
    e5cb:	74 25                	je     e5f2 <_ZN6PRTreeIdLi6EEC1ERSt6vectorISt4pairId11BoundingBoxESaIS4_EE+0x2092>
    e5cd:	49 8b 72 38          	mov    0x38(%r10),%rsi
    e5d1:	4c 89 4c 24 20       	mov    %r9,0x20(%rsp)
    e5d6:	4c 89 54 24 68       	mov    %r10,0x68(%rsp)
    e5db:	48 29 fe             	sub    %rdi,%rsi
    e5de:	e8 2d 3b ff ff       	callq  2110 <_ZdlPvm@plt>
    e5e3:	4c 8b 4c 24 20       	mov    0x20(%rsp),%r9
    e5e8:	4c 8b 44 24 58       	mov    0x58(%rsp),%r8
    e5ed:	4c 8b 54 24 68       	mov    0x68(%rsp),%r10
    e5f2:	be 40 00 00 00       	mov    $0x40,%esi
    e5f7:	4c 89 d7             	mov    %r10,%rdi
    e5fa:	4c 89 4c 24 58       	mov    %r9,0x58(%rsp)
    e5ff:	4c 89 44 24 68       	mov    %r8,0x68(%rsp)
    e604:	e8 07 3b ff ff       	callq  2110 <_ZdlPvm@plt>
    e609:	4c 8b 4c 24 58       	mov    0x58(%rsp),%r9
    e60e:	4c 8b 44 24 68       	mov    0x68(%rsp),%r8
    e613:	be 38 00 00 00       	mov    $0x38,%esi
    e618:	4c 89 cf             	mov    %r9,%rdi
    e61b:	4c 89 44 24 68       	mov    %r8,0x68(%rsp)
    e620:	e8 eb 3a ff ff       	callq  2110 <_ZdlPvm@plt>
    e625:	4c 8b 44 24 68       	mov    0x68(%rsp),%r8
    e62a:	4d 8b 48 20          	mov    0x20(%r8),%r9
    e62e:	4d 85 c9             	test   %r9,%r9
    e631:	74 40                	je     e673 <_ZN6PRTreeIdLi6EEC1ERSt6vectorISt4pairId11BoundingBoxESaIS4_EE+0x2113>
    e633:	49 8b 79 28          	mov    0x28(%r9),%rdi
    e637:	48 85 ff             	test   %rdi,%rdi
    e63a:	74 20                	je     e65c <_ZN6PRTreeIdLi6EEC1ERSt6vectorISt4pairId11BoundingBoxESaIS4_EE+0x20fc>
    e63c:	49 8b 71 38          	mov    0x38(%r9),%rsi
    e640:	4c 89 44 24 58       	mov    %r8,0x58(%rsp)
    e645:	4c 89 4c 24 68       	mov    %r9,0x68(%rsp)
    e64a:	48 29 fe             	sub    %rdi,%rsi
    e64d:	e8 be 3a ff ff       	callq  2110 <_ZdlPvm@plt>
    e652:	4c 8b 44 24 58       	mov    0x58(%rsp),%r8
    e657:	4c 8b 4c 24 68       	mov    0x68(%rsp),%r9
    e65c:	be 40 00 00 00       	mov    $0x40,%esi
    e661:	4c 89 cf             	mov    %r9,%rdi
    e664:	4c 89 44 24 68       	mov    %r8,0x68(%rsp)
    e669:	e8 a2 3a ff ff       	callq  2110 <_ZdlPvm@plt>
    e66e:	4c 8b 44 24 68       	mov    0x68(%rsp),%r8
    e673:	be 38 00 00 00       	mov    $0x38,%esi
    e678:	4c 89 c7             	mov    %r8,%rdi
    e67b:	e8 90 3a ff ff       	callq  2110 <_ZdlPvm@plt>
    e680:	4d 8b 47 20          	mov    0x20(%r15),%r8
    e684:	4d 85 c0             	test   %r8,%r8
    e687:	74 2c                	je     e6b5 <_ZN6PRTreeIdLi6EEC1ERSt6vectorISt4pairId11BoundingBoxESaIS4_EE+0x2155>
    e689:	49 8b 78 28          	mov    0x28(%r8),%rdi
    e68d:	48 85 ff             	test   %rdi,%rdi
    e690:	74 16                	je     e6a8 <_ZN6PRTreeIdLi6EEC1ERSt6vectorISt4pairId11BoundingBoxESaIS4_EE+0x2148>
    e692:	49 8b 70 38          	mov    0x38(%r8),%rsi
    e696:	4c 89 44 24 68       	mov    %r8,0x68(%rsp)
    e69b:	48 29 fe             	sub    %rdi,%rsi
    e69e:	e8 6d 3a ff ff       	callq  2110 <_ZdlPvm@plt>
    e6a3:	4c 8b 44 24 68       	mov    0x68(%rsp),%r8
    e6a8:	be 40 00 00 00       	mov    $0x40,%esi
    e6ad:	4c 89 c7             	mov    %r8,%rdi
    e6b0:	e8 5b 3a ff ff       	callq  2110 <_ZdlPvm@plt>
    e6b5:	be 38 00 00 00       	mov    $0x38,%esi
    e6ba:	4c 89 ff             	mov    %r15,%rdi
    e6bd:	e8 4e 3a ff ff       	callq  2110 <_ZdlPvm@plt>
    e6c2:	4d 8b 7e 20          	mov    0x20(%r14),%r15
    e6c6:	4d 85 ff             	test   %r15,%r15
    e6c9:	74 22                	je     e6ed <_ZN6PRTreeIdLi6EEC1ERSt6vectorISt4pairId11BoundingBoxESaIS4_EE+0x218d>
    e6cb:	49 8b 7f 28          	mov    0x28(%r15),%rdi
    e6cf:	48 85 ff             	test   %rdi,%rdi
    e6d2:	74 0c                	je     e6e0 <_ZN6PRTreeIdLi6EEC1ERSt6vectorISt4pairId11BoundingBoxESaIS4_EE+0x2180>
    e6d4:	49 8b 77 38          	mov    0x38(%r15),%rsi
    e6d8:	48 29 fe             	sub    %rdi,%rsi
    e6db:	e8 30 3a ff ff       	callq  2110 <_ZdlPvm@plt>
    e6e0:	be 40 00 00 00       	mov    $0x40,%esi
    e6e5:	4c 89 ff             	mov    %r15,%rdi
    e6e8:	e8 23 3a ff ff       	callq  2110 <_ZdlPvm@plt>
    e6ed:	be 38 00 00 00       	mov    $0x38,%esi
    e6f2:	4c 89 f7             	mov    %r14,%rdi
    e6f5:	e8 16 3a ff ff       	callq  2110 <_ZdlPvm@plt>
    e6fa:	4d 8b 75 28          	mov    0x28(%r13),%r14
    e6fe:	4d 85 f6             	test   %r14,%r14
    e701:	0f 84 72 06 00 00    	je     ed79 <_ZN6PRTreeIdLi6EEC1ERSt6vectorISt4pairId11BoundingBoxESaIS4_EE+0x2819>
    e707:	4d 8b 7e 30          	mov    0x30(%r14),%r15
    e70b:	4d 85 ff             	test   %r15,%r15
    e70e:	0f 84 10 03 00 00    	je     ea24 <_ZN6PRTreeIdLi6EEC1ERSt6vectorISt4pairId11BoundingBoxESaIS4_EE+0x24c4>
    e714:	4d 8b 47 30          	mov    0x30(%r15),%r8
    e718:	4d 85 c0             	test   %r8,%r8
    e71b:	0f 84 10 01 00 00    	je     e831 <_ZN6PRTreeIdLi6EEC1ERSt6vectorISt4pairId11BoundingBoxESaIS4_EE+0x22d1>
    e721:	49 8d 78 30          	lea    0x30(%r8),%rdi
    e725:	4c 89 44 24 68       	mov    %r8,0x68(%rsp)
    e72a:	e8 d1 53 ff ff       	callq  3b00 <_ZNSt10unique_ptrI10PRTreeNodeIdLi6EESt14default_deleteIS1_EED1Ev>
    e72f:	4c 8b 44 24 68       	mov    0x68(%rsp),%r8
    e734:	4d 8b 48 28          	mov    0x28(%r8),%r9
    e738:	4d 85 c9             	test   %r9,%r9
    e73b:	0f 84 9a 00 00 00    	je     e7db <_ZN6PRTreeIdLi6EEC1ERSt6vectorISt4pairId11BoundingBoxESaIS4_EE+0x227b>
    e741:	49 8d 79 30          	lea    0x30(%r9),%rdi
    e745:	4c 89 44 24 58       	mov    %r8,0x58(%rsp)
    e74a:	4c 89 4c 24 68       	mov    %r9,0x68(%rsp)
    e74f:	e8 ac 53 ff ff       	callq  3b00 <_ZNSt10unique_ptrI10PRTreeNodeIdLi6EESt14default_deleteIS1_EED1Ev>
    e754:	4c 8b 4c 24 68       	mov    0x68(%rsp),%r9
    e759:	49 8d 79 28          	lea    0x28(%r9),%rdi
    e75d:	e8 9e 53 ff ff       	callq  3b00 <_ZNSt10unique_ptrI10PRTreeNodeIdLi6EESt14default_deleteIS1_EED1Ev>
    e762:	4c 8b 4c 24 68       	mov    0x68(%rsp),%r9
    e767:	4c 8b 44 24 58       	mov    0x58(%rsp),%r8
    e76c:	4d 8b 51 20          	mov    0x20(%r9),%r10
    e770:	4d 85 d2             	test   %r10,%r10
    e773:	74 4f                	je     e7c4 <_ZN6PRTreeIdLi6EEC1ERSt6vectorISt4pairId11BoundingBoxESaIS4_EE+0x2264>
    e775:	49 8b 7a 28          	mov    0x28(%r10),%rdi
    e779:	48 85 ff             	test   %rdi,%rdi
    e77c:	74 25                	je     e7a3 <_ZN6PRTreeIdLi6EEC1ERSt6vectorISt4pairId11BoundingBoxESaIS4_EE+0x2243>
    e77e:	49 8b 72 38          	mov    0x38(%r10),%rsi
    e782:	4c 89 4c 24 20       	mov    %r9,0x20(%rsp)
    e787:	4c 89 54 24 68       	mov    %r10,0x68(%rsp)
    e78c:	48 29 fe             	sub    %rdi,%rsi
    e78f:	e8 7c 39 ff ff       	callq  2110 <_ZdlPvm@plt>
    e794:	4c 8b 4c 24 20       	mov    0x20(%rsp),%r9
    e799:	4c 8b 44 24 58       	mov    0x58(%rsp),%r8
    e79e:	4c 8b 54 24 68       	mov    0x68(%rsp),%r10
    e7a3:	be 40 00 00 00       	mov    $0x40,%esi
    e7a8:	4c 89 d7             	mov    %r10,%rdi
    e7ab:	4c 89 4c 24 58       	mov    %r9,0x58(%rsp)
    e7b0:	4c 89 44 24 68       	mov    %r8,0x68(%rsp)
    e7b5:	e8 56 39 ff ff       	callq  2110 <_ZdlPvm@plt>
    e7ba:	4c 8b 4c 24 58       	mov    0x58(%rsp),%r9
    e7bf:	4c 8b 44 24 68       	mov    0x68(%rsp),%r8
    e7c4:	be 38 00 00 00       	mov    $0x38,%esi
    e7c9:	4c 89 cf             	mov    %r9,%rdi
    e7cc:	4c 89 44 24 68       	mov    %r8,0x68(%rsp)
    e7d1:	e8 3a 39 ff ff       	callq  2110 <_ZdlPvm@plt>
    e7d6:	4c 8b 44 24 68       	mov    0x68(%rsp),%r8
    e7db:	4d 8b 48 20          	mov    0x20(%r8),%r9
    e7df:	4d 85 c9             	test   %r9,%r9
    e7e2:	74 40                	je     e824 <_ZN6PRTreeIdLi6EEC1ERSt6vectorISt4pairId11BoundingBoxESaIS4_EE+0x22c4>
    e7e4:	49 8b 79 28          	mov    0x28(%r9),%rdi
    e7e8:	48 85 ff             	test   %rdi,%rdi
    e7eb:	74 20                	je     e80d <_ZN6PRTreeIdLi6EEC1ERSt6vectorISt4pairId11BoundingBoxESaIS4_EE+0x22ad>
    e7ed:	49 8b 71 38          	mov    0x38(%r9),%rsi
    e7f1:	4c 89 44 24 58       	mov    %r8,0x58(%rsp)
    e7f6:	4c 89 4c 24 68       	mov    %r9,0x68(%rsp)
    e7fb:	48 29 fe             	sub    %rdi,%rsi
    e7fe:	e8 0d 39 ff ff       	callq  2110 <_ZdlPvm@plt>
    e803:	4c 8b 44 24 58       	mov    0x58(%rsp),%r8
    e808:	4c 8b 4c 24 68       	mov    0x68(%rsp),%r9
    e80d:	be 40 00 00 00       	mov    $0x40,%esi
    e812:	4c 89 cf             	mov    %r9,%rdi
    e815:	4c 89 44 24 68       	mov    %r8,0x68(%rsp)
    e81a:	e8 f1 38 ff ff       	callq  2110 <_ZdlPvm@plt>
    e81f:	4c 8b 44 24 68       	mov    0x68(%rsp),%r8
    e824:	be 38 00 00 00       	mov    $0x38,%esi
    e829:	4c 89 c7             	mov    %r8,%rdi
    e82c:	e8 df 38 ff ff       	callq  2110 <_ZdlPvm@plt>
    e831:	4d 8b 47 28          	mov    0x28(%r15),%r8
    e835:	4d 85 c0             	test   %r8,%r8
    e838:	0f 84 a4 01 00 00    	je     e9e2 <_ZN6PRTreeIdLi6EEC1ERSt6vectorISt4pairId11BoundingBoxESaIS4_EE+0x2482>
    e83e:	4d 8b 48 30          	mov    0x30(%r8),%r9
    e842:	4d 85 c9             	test   %r9,%r9
    e845:	0f 84 9a 00 00 00    	je     e8e5 <_ZN6PRTreeIdLi6EEC1ERSt6vectorISt4pairId11BoundingBoxESaIS4_EE+0x2385>
    e84b:	49 8d 79 30          	lea    0x30(%r9),%rdi
    e84f:	4c 89 44 24 58       	mov    %r8,0x58(%rsp)
    e854:	4c 89 4c 24 68       	mov    %r9,0x68(%rsp)
    e859:	e8 a2 52 ff ff       	callq  3b00 <_ZNSt10unique_ptrI10PRTreeNodeIdLi6EESt14default_deleteIS1_EED1Ev>
    e85e:	4c 8b 4c 24 68       	mov    0x68(%rsp),%r9
    e863:	49 8d 79 28          	lea    0x28(%r9),%rdi
    e867:	e8 94 52 ff ff       	callq  3b00 <_ZNSt10unique_ptrI10PRTreeNodeIdLi6EESt14default_deleteIS1_EED1Ev>
    e86c:	4c 8b 4c 24 68       	mov    0x68(%rsp),%r9
    e871:	4c 8b 44 24 58       	mov    0x58(%rsp),%r8
    e876:	4d 8b 51 20          	mov    0x20(%r9),%r10
    e87a:	4d 85 d2             	test   %r10,%r10
    e87d:	74 4f                	je     e8ce <_ZN6PRTreeIdLi6EEC1ERSt6vectorISt4pairId11BoundingBoxESaIS4_EE+0x236e>
    e87f:	49 8b 7a 28          	mov    0x28(%r10),%rdi
    e883:	48 85 ff             	test   %rdi,%rdi
    e886:	74 25                	je     e8ad <_ZN6PRTreeIdLi6EEC1ERSt6vectorISt4pairId11BoundingBoxESaIS4_EE+0x234d>
    e888:	49 8b 72 38          	mov    0x38(%r10),%rsi
    e88c:	4c 89 4c 24 20       	mov    %r9,0x20(%rsp)
    e891:	4c 89 54 24 68       	mov    %r10,0x68(%rsp)
    e896:	48 29 fe             	sub    %rdi,%rsi
    e899:	e8 72 38 ff ff       	callq  2110 <_ZdlPvm@plt>
    e89e:	4c 8b 4c 24 20       	mov    0x20(%rsp),%r9
    e8a3:	4c 8b 44 24 58       	mov    0x58(%rsp),%r8
    e8a8:	4c 8b 54 24 68       	mov    0x68(%rsp),%r10
    e8ad:	be 40 00 00 00       	mov    $0x40,%esi
    e8b2:	4c 89 d7             	mov    %r10,%rdi
    e8b5:	4c 89 4c 24 58       	mov    %r9,0x58(%rsp)
    e8ba:	4c 89 44 24 68       	mov    %r8,0x68(%rsp)
    e8bf:	e8 4c 38 ff ff       	callq  2110 <_ZdlPvm@plt>
    e8c4:	4c 8b 4c 24 58       	mov    0x58(%rsp),%r9
    e8c9:	4c 8b 44 24 68       	mov    0x68(%rsp),%r8
    e8ce:	be 38 00 00 00       	mov    $0x38,%esi
    e8d3:	4c 89 cf             	mov    %r9,%rdi
    e8d6:	4c 89 44 24 68       	mov    %r8,0x68(%rsp)
    e8db:	e8 30 38 ff ff       	callq  2110 <_ZdlPvm@plt>
    e8e0:	4c 8b 44 24 68       	mov    0x68(%rsp),%r8
    e8e5:	4d 8b 48 28          	mov    0x28(%r8),%r9
    e8e9:	4d 85 c9             	test   %r9,%r9
    e8ec:	0f 84 9a 00 00 00    	je     e98c <_ZN6PRTreeIdLi6EEC1ERSt6vectorISt4pairId11BoundingBoxESaIS4_EE+0x242c>
    e8f2:	49 8d 79 30          	lea    0x30(%r9),%rdi
    e8f6:	4c 89 44 24 58       	mov    %r8,0x58(%rsp)
    e8fb:	4c 89 4c 24 68       	mov    %r9,0x68(%rsp)
    e900:	e8 fb 51 ff ff       	callq  3b00 <_ZNSt10unique_ptrI10PRTreeNodeIdLi6EESt14default_deleteIS1_EED1Ev>
    e905:	4c 8b 4c 24 68       	mov    0x68(%rsp),%r9
    e90a:	49 8d 79 28          	lea    0x28(%r9),%rdi
    e90e:	e8 ed 51 ff ff       	callq  3b00 <_ZNSt10unique_ptrI10PRTreeNodeIdLi6EESt14default_deleteIS1_EED1Ev>
    e913:	4c 8b 4c 24 68       	mov    0x68(%rsp),%r9
    e918:	4c 8b 44 24 58       	mov    0x58(%rsp),%r8
    e91d:	4d 8b 51 20          	mov    0x20(%r9),%r10
    e921:	4d 85 d2             	test   %r10,%r10
    e924:	74 4f                	je     e975 <_ZN6PRTreeIdLi6EEC1ERSt6vectorISt4pairId11BoundingBoxESaIS4_EE+0x2415>
    e926:	49 8b 7a 28          	mov    0x28(%r10),%rdi
    e92a:	48 85 ff             	test   %rdi,%rdi
    e92d:	74 25                	je     e954 <_ZN6PRTreeIdLi6EEC1ERSt6vectorISt4pairId11BoundingBoxESaIS4_EE+0x23f4>
    e92f:	49 8b 72 38          	mov    0x38(%r10),%rsi
    e933:	4c 89 4c 24 20       	mov    %r9,0x20(%rsp)
    e938:	4c 89 54 24 68       	mov    %r10,0x68(%rsp)
    e93d:	48 29 fe             	sub    %rdi,%rsi
    e940:	e8 cb 37 ff ff       	callq  2110 <_ZdlPvm@plt>
    e945:	4c 8b 4c 24 20       	mov    0x20(%rsp),%r9
    e94a:	4c 8b 44 24 58       	mov    0x58(%rsp),%r8
    e94f:	4c 8b 54 24 68       	mov    0x68(%rsp),%r10
    e954:	be 40 00 00 00       	mov    $0x40,%esi
    e959:	4c 89 d7             	mov    %r10,%rdi
    e95c:	4c 89 4c 24 58       	mov    %r9,0x58(%rsp)
    e961:	4c 89 44 24 68       	mov    %r8,0x68(%rsp)
    e966:	e8 a5 37 ff ff       	callq  2110 <_ZdlPvm@plt>
    e96b:	4c 8b 4c 24 58       	mov    0x58(%rsp),%r9
    e970:	4c 8b 44 24 68       	mov    0x68(%rsp),%r8
    e975:	be 38 00 00 00       	mov    $0x38,%esi
    e97a:	4c 89 cf             	mov    %r9,%rdi
    e97d:	4c 89 44 24 68       	mov    %r8,0x68(%rsp)
    e982:	e8 89 37 ff ff       	callq  2110 <_ZdlPvm@plt>
    e987:	4c 8b 44 24 68       	mov    0x68(%rsp),%r8
    e98c:	4d 8b 48 20          	mov    0x20(%r8),%r9
    e990:	4d 85 c9             	test   %r9,%r9
    e993:	74 40                	je     e9d5 <_ZN6PRTreeIdLi6EEC1ERSt6vectorISt4pairId11BoundingBoxESaIS4_EE+0x2475>
    e995:	49 8b 79 28          	mov    0x28(%r9),%rdi
    e999:	48 85 ff             	test   %rdi,%rdi
    e99c:	74 20                	je     e9be <_ZN6PRTreeIdLi6EEC1ERSt6vectorISt4pairId11BoundingBoxESaIS4_EE+0x245e>
    e99e:	49 8b 71 38          	mov    0x38(%r9),%rsi
    e9a2:	4c 89 44 24 58       	mov    %r8,0x58(%rsp)
    e9a7:	4c 89 4c 24 68       	mov    %r9,0x68(%rsp)
    e9ac:	48 29 fe             	sub    %rdi,%rsi
    e9af:	e8 5c 37 ff ff       	callq  2110 <_ZdlPvm@plt>
    e9b4:	4c 8b 44 24 58       	mov    0x58(%rsp),%r8
    e9b9:	4c 8b 4c 24 68       	mov    0x68(%rsp),%r9
    e9be:	be 40 00 00 00       	mov    $0x40,%esi
    e9c3:	4c 89 cf             	mov    %r9,%rdi
    e9c6:	4c 89 44 24 68       	mov    %r8,0x68(%rsp)
    e9cb:	e8 40 37 ff ff       	callq  2110 <_ZdlPvm@plt>
    e9d0:	4c 8b 44 24 68       	mov    0x68(%rsp),%r8
    e9d5:	be 38 00 00 00       	mov    $0x38,%esi
    e9da:	4c 89 c7             	mov    %r8,%rdi
    e9dd:	e8 2e 37 ff ff       	callq  2110 <_ZdlPvm@plt>
    e9e2:	4d 8b 47 20          	mov    0x20(%r15),%r8
    e9e6:	4d 85 c0             	test   %r8,%r8
    e9e9:	74 2c                	je     ea17 <_ZN6PRTreeIdLi6EEC1ERSt6vectorISt4pairId11BoundingBoxESaIS4_EE+0x24b7>
    e9eb:	49 8b 78 28          	mov    0x28(%r8),%rdi
    e9ef:	48 85 ff             	test   %rdi,%rdi
    e9f2:	74 16                	je     ea0a <_ZN6PRTreeIdLi6EEC1ERSt6vectorISt4pairId11BoundingBoxESaIS4_EE+0x24aa>
    e9f4:	49 8b 70 38          	mov    0x38(%r8),%rsi
    e9f8:	4c 89 44 24 68       	mov    %r8,0x68(%rsp)
    e9fd:	48 29 fe             	sub    %rdi,%rsi
    ea00:	e8 0b 37 ff ff       	callq  2110 <_ZdlPvm@plt>
    ea05:	4c 8b 44 24 68       	mov    0x68(%rsp),%r8
    ea0a:	be 40 00 00 00       	mov    $0x40,%esi
    ea0f:	4c 89 c7             	mov    %r8,%rdi
    ea12:	e8 f9 36 ff ff       	callq  2110 <_ZdlPvm@plt>
    ea17:	be 38 00 00 00       	mov    $0x38,%esi
    ea1c:	4c 89 ff             	mov    %r15,%rdi
    ea1f:	e8 ec 36 ff ff       	callq  2110 <_ZdlPvm@plt>
    ea24:	4d 8b 7e 28          	mov    0x28(%r14),%r15
    ea28:	4d 85 ff             	test   %r15,%r15
    ea2b:	0f 84 10 03 00 00    	je     ed41 <_ZN6PRTreeIdLi6EEC1ERSt6vectorISt4pairId11BoundingBoxESaIS4_EE+0x27e1>
    ea31:	4d 8b 47 30          	mov    0x30(%r15),%r8
    ea35:	4d 85 c0             	test   %r8,%r8
    ea38:	0f 84 10 01 00 00    	je     eb4e <_ZN6PRTreeIdLi6EEC1ERSt6vectorISt4pairId11BoundingBoxESaIS4_EE+0x25ee>
    ea3e:	4d 8b 48 30          	mov    0x30(%r8),%r9
    ea42:	4d 85 c9             	test   %r9,%r9
    ea45:	0f 84 9a 00 00 00    	je     eae5 <_ZN6PRTreeIdLi6EEC1ERSt6vectorISt4pairId11BoundingBoxESaIS4_EE+0x2585>
    ea4b:	49 8d 79 30          	lea    0x30(%r9),%rdi
    ea4f:	4c 89 44 24 58       	mov    %r8,0x58(%rsp)
    ea54:	4c 89 4c 24 68       	mov    %r9,0x68(%rsp)
    ea59:	e8 a2 50 ff ff       	callq  3b00 <_ZNSt10unique_ptrI10PRTreeNodeIdLi6EESt14default_deleteIS1_EED1Ev>
    ea5e:	4c 8b 4c 24 68       	mov    0x68(%rsp),%r9
    ea63:	49 8d 79 28          	lea    0x28(%r9),%rdi
    ea67:	e8 94 50 ff ff       	callq  3b00 <_ZNSt10unique_ptrI10PRTreeNodeIdLi6EESt14default_deleteIS1_EED1Ev>
    ea6c:	4c 8b 4c 24 68       	mov    0x68(%rsp),%r9
    ea71:	4c 8b 44 24 58       	mov    0x58(%rsp),%r8
    ea76:	4d 8b 51 20          	mov    0x20(%r9),%r10
    ea7a:	4d 85 d2             	test   %r10,%r10
    ea7d:	74 4f                	je     eace <_ZN6PRTreeIdLi6EEC1ERSt6vectorISt4pairId11BoundingBoxESaIS4_EE+0x256e>
    ea7f:	49 8b 7a 28          	mov    0x28(%r10),%rdi
    ea83:	48 85 ff             	test   %rdi,%rdi
    ea86:	74 25                	je     eaad <_ZN6PRTreeIdLi6EEC1ERSt6vectorISt4pairId11BoundingBoxESaIS4_EE+0x254d>
    ea88:	49 8b 72 38          	mov    0x38(%r10),%rsi
    ea8c:	4c 89 4c 24 20       	mov    %r9,0x20(%rsp)
    ea91:	4c 89 54 24 68       	mov    %r10,0x68(%rsp)
    ea96:	48 29 fe             	sub    %rdi,%rsi
    ea99:	e8 72 36 ff ff       	callq  2110 <_ZdlPvm@plt>
    ea9e:	4c 8b 4c 24 20       	mov    0x20(%rsp),%r9
    eaa3:	4c 8b 44 24 58       	mov    0x58(%rsp),%r8
    eaa8:	4c 8b 54 24 68       	mov    0x68(%rsp),%r10
    eaad:	be 40 00 00 00       	mov    $0x40,%esi
    eab2:	4c 89 d7             	mov    %r10,%rdi
    eab5:	4c 89 4c 24 58       	mov    %r9,0x58(%rsp)
    eaba:	4c 89 44 24 68       	mov    %r8,0x68(%rsp)
    eabf:	e8 4c 36 ff ff       	callq  2110 <_ZdlPvm@plt>
    eac4:	4c 8b 4c 24 58       	mov    0x58(%rsp),%r9
    eac9:	4c 8b 44 24 68       	mov    0x68(%rsp),%r8
    eace:	be 38 00 00 00       	mov    $0x38,%esi
    ead3:	4c 89 cf             	mov    %r9,%rdi
    ead6:	4c 89 44 24 68       	mov    %r8,0x68(%rsp)
    eadb:	e8 30 36 ff ff       	callq  2110 <_ZdlPvm@plt>
    eae0:	4c 8b 44 24 68       	mov    0x68(%rsp),%r8
    eae5:	49 8d 78 28          	lea    0x28(%r8),%rdi
    eae9:	4c 89 44 24 68       	mov    %r8,0x68(%rsp)
    eaee:	e8 0d 50 ff ff       	callq  3b00 <_ZNSt10unique_ptrI10PRTreeNodeIdLi6EESt14default_deleteIS1_EED1Ev>
    eaf3:	4c 8b 44 24 68       	mov    0x68(%rsp),%r8
    eaf8:	4d 8b 48 20          	mov    0x20(%r8),%r9
    eafc:	4d 85 c9             	test   %r9,%r9
    eaff:	74 40                	je     eb41 <_ZN6PRTreeIdLi6EEC1ERSt6vectorISt4pairId11BoundingBoxESaIS4_EE+0x25e1>
    eb01:	49 8b 79 28          	mov    0x28(%r9),%rdi
    eb05:	48 85 ff             	test   %rdi,%rdi
    eb08:	74 20                	je     eb2a <_ZN6PRTreeIdLi6EEC1ERSt6vectorISt4pairId11BoundingBoxESaIS4_EE+0x25ca>
    eb0a:	49 8b 71 38          	mov    0x38(%r9),%rsi
    eb0e:	4c 89 44 24 58       	mov    %r8,0x58(%rsp)
    eb13:	4c 89 4c 24 68       	mov    %r9,0x68(%rsp)
    eb18:	48 29 fe             	sub    %rdi,%rsi
    eb1b:	e8 f0 35 ff ff       	callq  2110 <_ZdlPvm@plt>
    eb20:	4c 8b 44 24 58       	mov    0x58(%rsp),%r8
    eb25:	4c 8b 4c 24 68       	mov    0x68(%rsp),%r9
    eb2a:	be 40 00 00 00       	mov    $0x40,%esi
    eb2f:	4c 89 cf             	mov    %r9,%rdi
    eb32:	4c 89 44 24 68       	mov    %r8,0x68(%rsp)
    eb37:	e8 d4 35 ff ff       	callq  2110 <_ZdlPvm@plt>
    eb3c:	4c 8b 44 24 68       	mov    0x68(%rsp),%r8
    eb41:	be 38 00 00 00       	mov    $0x38,%esi
    eb46:	4c 89 c7             	mov    %r8,%rdi
    eb49:	e8 c2 35 ff ff       	callq  2110 <_ZdlPvm@plt>
    eb4e:	4d 8b 47 28          	mov    0x28(%r15),%r8
    eb52:	4d 85 c0             	test   %r8,%r8
    eb55:	0f 84 a4 01 00 00    	je     ecff <_ZN6PRTreeIdLi6EEC1ERSt6vectorISt4pairId11BoundingBoxESaIS4_EE+0x279f>
    eb5b:	4d 8b 48 30          	mov    0x30(%r8),%r9
    eb5f:	4d 85 c9             	test   %r9,%r9
    eb62:	0f 84 9a 00 00 00    	je     ec02 <_ZN6PRTreeIdLi6EEC1ERSt6vectorISt4pairId11BoundingBoxESaIS4_EE+0x26a2>
    eb68:	49 8d 79 30          	lea    0x30(%r9),%rdi
    eb6c:	4c 89 44 24 58       	mov    %r8,0x58(%rsp)
    eb71:	4c 89 4c 24 68       	mov    %r9,0x68(%rsp)
    eb76:	e8 85 4f ff ff       	callq  3b00 <_ZNSt10unique_ptrI10PRTreeNodeIdLi6EESt14default_deleteIS1_EED1Ev>
    eb7b:	4c 8b 4c 24 68       	mov    0x68(%rsp),%r9
    eb80:	49 8d 79 28          	lea    0x28(%r9),%rdi
    eb84:	e8 77 4f ff ff       	callq  3b00 <_ZNSt10unique_ptrI10PRTreeNodeIdLi6EESt14default_deleteIS1_EED1Ev>
    eb89:	4c 8b 4c 24 68       	mov    0x68(%rsp),%r9
    eb8e:	4c 8b 44 24 58       	mov    0x58(%rsp),%r8
    eb93:	4d 8b 51 20          	mov    0x20(%r9),%r10
    eb97:	4d 85 d2             	test   %r10,%r10
    eb9a:	74 4f                	je     ebeb <_ZN6PRTreeIdLi6EEC1ERSt6vectorISt4pairId11BoundingBoxESaIS4_EE+0x268b>
    eb9c:	49 8b 7a 28          	mov    0x28(%r10),%rdi
    eba0:	48 85 ff             	test   %rdi,%rdi
    eba3:	74 25                	je     ebca <_ZN6PRTreeIdLi6EEC1ERSt6vectorISt4pairId11BoundingBoxESaIS4_EE+0x266a>
    eba5:	49 8b 72 38          	mov    0x38(%r10),%rsi
    eba9:	4c 89 4c 24 20       	mov    %r9,0x20(%rsp)
    ebae:	4c 89 54 24 68       	mov    %r10,0x68(%rsp)
    ebb3:	48 29 fe             	sub    %rdi,%rsi
    ebb6:	e8 55 35 ff ff       	callq  2110 <_ZdlPvm@plt>
    ebbb:	4c 8b 4c 24 20       	mov    0x20(%rsp),%r9
    ebc0:	4c 8b 44 24 58       	mov    0x58(%rsp),%r8
    ebc5:	4c 8b 54 24 68       	mov    0x68(%rsp),%r10
    ebca:	be 40 00 00 00       	mov    $0x40,%esi
    ebcf:	4c 89 d7             	mov    %r10,%rdi
    ebd2:	4c 89 4c 24 58       	mov    %r9,0x58(%rsp)
    ebd7:	4c 89 44 24 68       	mov    %r8,0x68(%rsp)
    ebdc:	e8 2f 35 ff ff       	callq  2110 <_ZdlPvm@plt>
    ebe1:	4c 8b 4c 24 58       	mov    0x58(%rsp),%r9
    ebe6:	4c 8b 44 24 68       	mov    0x68(%rsp),%r8
    ebeb:	be 38 00 00 00       	mov    $0x38,%esi
    ebf0:	4c 89 cf             	mov    %r9,%rdi
    ebf3:	4c 89 44 24 68       	mov    %r8,0x68(%rsp)
    ebf8:	e8 13 35 ff ff       	callq  2110 <_ZdlPvm@plt>
    ebfd:	4c 8b 44 24 68       	mov    0x68(%rsp),%r8
    ec02:	4d 8b 48 28          	mov    0x28(%r8),%r9
    ec06:	4d 85 c9             	test   %r9,%r9
    ec09:	0f 84 9a 00 00 00    	je     eca9 <_ZN6PRTreeIdLi6EEC1ERSt6vectorISt4pairId11BoundingBoxESaIS4_EE+0x2749>
    ec0f:	49 8d 79 30          	lea    0x30(%r9),%rdi
    ec13:	4c 89 44 24 58       	mov    %r8,0x58(%rsp)
    ec18:	4c 89 4c 24 68       	mov    %r9,0x68(%rsp)
    ec1d:	e8 de 4e ff ff       	callq  3b00 <_ZNSt10unique_ptrI10PRTreeNodeIdLi6EESt14default_deleteIS1_EED1Ev>
    ec22:	4c 8b 4c 24 68       	mov    0x68(%rsp),%r9
    ec27:	49 8d 79 28          	lea    0x28(%r9),%rdi
    ec2b:	e8 d0 4e ff ff       	callq  3b00 <_ZNSt10unique_ptrI10PRTreeNodeIdLi6EESt14default_deleteIS1_EED1Ev>
    ec30:	4c 8b 4c 24 68       	mov    0x68(%rsp),%r9
    ec35:	4c 8b 44 24 58       	mov    0x58(%rsp),%r8
    ec3a:	4d 8b 51 20          	mov    0x20(%r9),%r10
    ec3e:	4d 85 d2             	test   %r10,%r10
    ec41:	74 4f                	je     ec92 <_ZN6PRTreeIdLi6EEC1ERSt6vectorISt4pairId11BoundingBoxESaIS4_EE+0x2732>
    ec43:	49 8b 7a 28          	mov    0x28(%r10),%rdi
    ec47:	48 85 ff             	test   %rdi,%rdi
    ec4a:	74 25                	je     ec71 <_ZN6PRTreeIdLi6EEC1ERSt6vectorISt4pairId11BoundingBoxESaIS4_EE+0x2711>
    ec4c:	49 8b 72 38          	mov    0x38(%r10),%rsi
    ec50:	4c 89 4c 24 20       	mov    %r9,0x20(%rsp)
    ec55:	4c 89 54 24 68       	mov    %r10,0x68(%rsp)
    ec5a:	48 29 fe             	sub    %rdi,%rsi
    ec5d:	e8 ae 34 ff ff       	callq  2110 <_ZdlPvm@plt>
    ec62:	4c 8b 4c 24 20       	mov    0x20(%rsp),%r9
    ec67:	4c 8b 44 24 58       	mov    0x58(%rsp),%r8
    ec6c:	4c 8b 54 24 68       	mov    0x68(%rsp),%r10
    ec71:	be 40 00 00 00       	mov    $0x40,%esi
    ec76:	4c 89 d7             	mov    %r10,%rdi
    ec79:	4c 89 4c 24 58       	mov    %r9,0x58(%rsp)
    ec7e:	4c 89 44 24 68       	mov    %r8,0x68(%rsp)
    ec83:	e8 88 34 ff ff       	callq  2110 <_ZdlPvm@plt>
    ec88:	4c 8b 4c 24 58       	mov    0x58(%rsp),%r9
    ec8d:	4c 8b 44 24 68       	mov    0x68(%rsp),%r8
    ec92:	be 38 00 00 00       	mov    $0x38,%esi
    ec97:	4c 89 cf             	mov    %r9,%rdi
    ec9a:	4c 89 44 24 68       	mov    %r8,0x68(%rsp)
    ec9f:	e8 6c 34 ff ff       	callq  2110 <_ZdlPvm@plt>
    eca4:	4c 8b 44 24 68       	mov    0x68(%rsp),%r8
    eca9:	4d 8b 48 20          	mov    0x20(%r8),%r9
    ecad:	4d 85 c9             	test   %r9,%r9
    ecb0:	74 40                	je     ecf2 <_ZN6PRTreeIdLi6EEC1ERSt6vectorISt4pairId11BoundingBoxESaIS4_EE+0x2792>
    ecb2:	49 8b 79 28          	mov    0x28(%r9),%rdi
    ecb6:	48 85 ff             	test   %rdi,%rdi
    ecb9:	74 20                	je     ecdb <_ZN6PRTreeIdLi6EEC1ERSt6vectorISt4pairId11BoundingBoxESaIS4_EE+0x277b>
    ecbb:	49 8b 71 38          	mov    0x38(%r9),%rsi
    ecbf:	4c 89 44 24 58       	mov    %r8,0x58(%rsp)
    ecc4:	4c 89 4c 24 68       	mov    %r9,0x68(%rsp)
    ecc9:	48 29 fe             	sub    %rdi,%rsi
    eccc:	e8 3f 34 ff ff       	callq  2110 <_ZdlPvm@plt>
    ecd1:	4c 8b 44 24 58       	mov    0x58(%rsp),%r8
    ecd6:	4c 8b 4c 24 68       	mov    0x68(%rsp),%r9
    ecdb:	be 40 00 00 00       	mov    $0x40,%esi
    ece0:	4c 89 cf             	mov    %r9,%rdi
    ece3:	4c 89 44 24 68       	mov    %r8,0x68(%rsp)
    ece8:	e8 23 34 ff ff       	callq  2110 <_ZdlPvm@plt>
    eced:	4c 8b 44 24 68       	mov    0x68(%rsp),%r8
    ecf2:	be 38 00 00 00       	mov    $0x38,%esi
    ecf7:	4c 89 c7             	mov    %r8,%rdi
    ecfa:	e8 11 34 ff ff       	callq  2110 <_ZdlPvm@plt>
    ecff:	4d 8b 47 20          	mov    0x20(%r15),%r8
    ed03:	4d 85 c0             	test   %r8,%r8
    ed06:	74 2c                	je     ed34 <_ZN6PRTreeIdLi6EEC1ERSt6vectorISt4pairId11BoundingBoxESaIS4_EE+0x27d4>
    ed08:	49 8b 78 28          	mov    0x28(%r8),%rdi
    ed0c:	48 85 ff             	test   %rdi,%rdi
    ed0f:	74 16                	je     ed27 <_ZN6PRTreeIdLi6EEC1ERSt6vectorISt4pairId11BoundingBoxESaIS4_EE+0x27c7>
    ed11:	49 8b 70 38          	mov    0x38(%r8),%rsi
    ed15:	4c 89 44 24 68       	mov    %r8,0x68(%rsp)
    ed1a:	48 29 fe             	sub    %rdi,%rsi
    ed1d:	e8 ee 33 ff ff       	callq  2110 <_ZdlPvm@plt>
    ed22:	4c 8b 44 24 68       	mov    0x68(%rsp),%r8
    ed27:	be 40 00 00 00       	mov    $0x40,%esi
    ed2c:	4c 89 c7             	mov    %r8,%rdi
    ed2f:	e8 dc 33 ff ff       	callq  2110 <_ZdlPvm@plt>
    ed34:	be 38 00 00 00       	mov    $0x38,%esi
    ed39:	4c 89 ff             	mov    %r15,%rdi
    ed3c:	e8 cf 33 ff ff       	callq  2110 <_ZdlPvm@plt>
    ed41:	4d 8b 7e 20          	mov    0x20(%r14),%r15
    ed45:	4d 85 ff             	test   %r15,%r15
    ed48:	74 22                	je     ed6c <_ZN6PRTreeIdLi6EEC1ERSt6vectorISt4pairId11BoundingBoxESaIS4_EE+0x280c>
    ed4a:	49 8b 7f 28          	mov    0x28(%r15),%rdi
    ed4e:	48 85 ff             	test   %rdi,%rdi
    ed51:	74 0c                	je     ed5f <_ZN6PRTreeIdLi6EEC1ERSt6vectorISt4pairId11BoundingBoxESaIS4_EE+0x27ff>
    ed53:	49 8b 77 38          	mov    0x38(%r15),%rsi
    ed57:	48 29 fe             	sub    %rdi,%rsi
    ed5a:	e8 b1 33 ff ff       	callq  2110 <_ZdlPvm@plt>
    ed5f:	be 40 00 00 00       	mov    $0x40,%esi
    ed64:	4c 89 ff             	mov    %r15,%rdi
    ed67:	e8 a4 33 ff ff       	callq  2110 <_ZdlPvm@plt>
    ed6c:	be 38 00 00 00       	mov    $0x38,%esi
    ed71:	4c 89 f7             	mov    %r14,%rdi
    ed74:	e8 97 33 ff ff       	callq  2110 <_ZdlPvm@plt>
    ed79:	4d 8b 75 20          	mov    0x20(%r13),%r14
    ed7d:	4d 85 f6             	test   %r14,%r14
    ed80:	74 22                	je     eda4 <_ZN6PRTreeIdLi6EEC1ERSt6vectorISt4pairId11BoundingBoxESaIS4_EE+0x2844>
    ed82:	49 8b 7e 28          	mov    0x28(%r14),%rdi
    ed86:	48 85 ff             	test   %rdi,%rdi
    ed89:	74 0c                	je     ed97 <_ZN6PRTreeIdLi6EEC1ERSt6vectorISt4pairId11BoundingBoxESaIS4_EE+0x2837>
    ed8b:	49 8b 76 38          	mov    0x38(%r14),%rsi
    ed8f:	48 29 fe             	sub    %rdi,%rsi
    ed92:	e8 79 33 ff ff       	callq  2110 <_ZdlPvm@plt>
    ed97:	be 40 00 00 00       	mov    $0x40,%esi
    ed9c:	4c 89 f7             	mov    %r14,%rdi
    ed9f:	e8 6c 33 ff ff       	callq  2110 <_ZdlPvm@plt>
    eda4:	be 38 00 00 00       	mov    $0x38,%esi
    eda9:	4c 89 ef             	mov    %r13,%rdi
    edac:	e8 5f 33 ff ff       	callq  2110 <_ZdlPvm@plt>
    edb1:	4d 8b 6c 24 20       	mov    0x20(%r12),%r13
    edb6:	4d 85 ed             	test   %r13,%r13
    edb9:	74 22                	je     eddd <_ZN6PRTreeIdLi6EEC1ERSt6vectorISt4pairId11BoundingBoxESaIS4_EE+0x287d>
    edbb:	49 8b 7d 28          	mov    0x28(%r13),%rdi
    edbf:	48 85 ff             	test   %rdi,%rdi
    edc2:	74 0c                	je     edd0 <_ZN6PRTreeIdLi6EEC1ERSt6vectorISt4pairId11BoundingBoxESaIS4_EE+0x2870>
    edc4:	49 8b 75 38          	mov    0x38(%r13),%rsi
    edc8:	48 29 fe             	sub    %rdi,%rsi
    edcb:	e8 40 33 ff ff       	callq  2110 <_ZdlPvm@plt>
    edd0:	be 40 00 00 00       	mov    $0x40,%esi
    edd5:	4c 89 ef             	mov    %r13,%rdi
    edd8:	e8 33 33 ff ff       	callq  2110 <_ZdlPvm@plt>
    eddd:	be 38 00 00 00       	mov    $0x38,%esi
    ede2:	4c 89 e7             	mov    %r12,%rdi
    ede5:	e8 26 33 ff ff       	callq  2110 <_ZdlPvm@plt>
    edea:	48 8b 84 24 88 00 00 	mov    0x88(%rsp),%rax
    edf1:	00 
    edf2:	48 8b b4 24 10 01 00 	mov    0x110(%rsp),%rsi
    edf9:	00 
    edfa:	48 8b 48 28          	mov    0x28(%rax),%rcx
    edfe:	48 83 eb 28          	sub    $0x28,%rbx
    ee02:	48 3b 5c 24 70       	cmp    0x70(%rsp),%rbx
    ee07:	0f 85 83 e8 ff ff    	jne    d690 <_ZN6PRTreeIdLi6EEC1ERSt6vectorISt4pairId11BoundingBoxESaIS4_EE+0x1130>
    ee0d:	48 63 01             	movslq (%rcx),%rax
    ee10:	48 8d 14 c6          	lea    (%rsi,%rax,8),%rdx
    ee14:	48 8b 84 24 98 00 00 	mov    0x98(%rsp),%rax
    ee1b:	00 
    ee1c:	48 8b 0a             	mov    (%rdx),%rcx
    ee1f:	48 c7 02 00 00 00 00 	movq   $0x0,(%rdx)
    ee26:	4c 8b 60 28          	mov    0x28(%rax),%r12
    ee2a:	48 89 48 28          	mov    %rcx,0x28(%rax)
    ee2e:	4d 85 e4             	test   %r12,%r12
    ee31:	0f 84 e1 00 00 00    	je     ef18 <_ZN6PRTreeIdLi6EEC1ERSt6vectorISt4pairId11BoundingBoxESaIS4_EE+0x29b8>
    ee37:	4d 8b 6c 24 30       	mov    0x30(%r12),%r13
    ee3c:	4d 85 ed             	test   %r13,%r13
    ee3f:	74 4a                	je     ee8b <_ZN6PRTreeIdLi6EEC1ERSt6vectorISt4pairId11BoundingBoxESaIS4_EE+0x292b>
    ee41:	49 8d 7d 30          	lea    0x30(%r13),%rdi
    ee45:	e8 b6 4c ff ff       	callq  3b00 <_ZNSt10unique_ptrI10PRTreeNodeIdLi6EESt14default_deleteIS1_EED1Ev>
    ee4a:	49 8d 7d 28          	lea    0x28(%r13),%rdi
    ee4e:	e8 ad 4c ff ff       	callq  3b00 <_ZNSt10unique_ptrI10PRTreeNodeIdLi6EESt14default_deleteIS1_EED1Ev>
    ee53:	4d 8b 75 20          	mov    0x20(%r13),%r14
    ee57:	4d 85 f6             	test   %r14,%r14
    ee5a:	74 22                	je     ee7e <_ZN6PRTreeIdLi6EEC1ERSt6vectorISt4pairId11BoundingBoxESaIS4_EE+0x291e>
    ee5c:	49 8b 7e 28          	mov    0x28(%r14),%rdi
    ee60:	48 85 ff             	test   %rdi,%rdi
    ee63:	74 0c                	je     ee71 <_ZN6PRTreeIdLi6EEC1ERSt6vectorISt4pairId11BoundingBoxESaIS4_EE+0x2911>
    ee65:	49 8b 76 38          	mov    0x38(%r14),%rsi
    ee69:	48 29 fe             	sub    %rdi,%rsi
    ee6c:	e8 9f 32 ff ff       	callq  2110 <_ZdlPvm@plt>
    ee71:	be 40 00 00 00       	mov    $0x40,%esi
    ee76:	4c 89 f7             	mov    %r14,%rdi
    ee79:	e8 92 32 ff ff       	callq  2110 <_ZdlPvm@plt>
    ee7e:	be 38 00 00 00       	mov    $0x38,%esi
    ee83:	4c 89 ef             	mov    %r13,%rdi
    ee86:	e8 85 32 ff ff       	callq  2110 <_ZdlPvm@plt>
    ee8b:	4d 8b 6c 24 28       	mov    0x28(%r12),%r13
    ee90:	4d 85 ed             	test   %r13,%r13
    ee93:	74 4a                	je     eedf <_ZN6PRTreeIdLi6EEC1ERSt6vectorISt4pairId11BoundingBoxESaIS4_EE+0x297f>
    ee95:	49 8d 7d 30          	lea    0x30(%r13),%rdi
    ee99:	e8 62 4c ff ff       	callq  3b00 <_ZNSt10unique_ptrI10PRTreeNodeIdLi6EESt14default_deleteIS1_EED1Ev>
    ee9e:	49 8d 7d 28          	lea    0x28(%r13),%rdi
    eea2:	e8 59 4c ff ff       	callq  3b00 <_ZNSt10unique_ptrI10PRTreeNodeIdLi6EESt14default_deleteIS1_EED1Ev>
    eea7:	4d 8b 75 20          	mov    0x20(%r13),%r14
    eeab:	4d 85 f6             	test   %r14,%r14
    eeae:	74 22                	je     eed2 <_ZN6PRTreeIdLi6EEC1ERSt6vectorISt4pairId11BoundingBoxESaIS4_EE+0x2972>
    eeb0:	49 8b 7e 28          	mov    0x28(%r14),%rdi
    eeb4:	48 85 ff             	test   %rdi,%rdi
    eeb7:	74 0c                	je     eec5 <_ZN6PRTreeIdLi6EEC1ERSt6vectorISt4pairId11BoundingBoxESaIS4_EE+0x2965>
    eeb9:	49 8b 76 38          	mov    0x38(%r14),%rsi
    eebd:	48 29 fe             	sub    %rdi,%rsi
    eec0:	e8 4b 32 ff ff       	callq  2110 <_ZdlPvm@plt>
    eec5:	be 40 00 00 00       	mov    $0x40,%esi
    eeca:	4c 89 f7             	mov    %r14,%rdi
    eecd:	e8 3e 32 ff ff       	callq  2110 <_ZdlPvm@plt>
    eed2:	be 38 00 00 00       	mov    $0x38,%esi
    eed7:	4c 89 ef             	mov    %r13,%rdi
    eeda:	e8 31 32 ff ff       	callq  2110 <_ZdlPvm@plt>
    eedf:	4d 8b 6c 24 20       	mov    0x20(%r12),%r13
    eee4:	4d 85 ed             	test   %r13,%r13
    eee7:	74 22                	je     ef0b <_ZN6PRTreeIdLi6EEC1ERSt6vectorISt4pairId11BoundingBoxESaIS4_EE+0x29ab>
    eee9:	49 8b 7d 28          	mov    0x28(%r13),%rdi
    eeed:	48 85 ff             	test   %rdi,%rdi
    eef0:	74 0c                	je     eefe <_ZN6PRTreeIdLi6EEC1ERSt6vectorISt4pairId11BoundingBoxESaIS4_EE+0x299e>
    eef2:	49 8b 75 38          	mov    0x38(%r13),%rsi
    eef6:	48 29 fe             	sub    %rdi,%rsi
    eef9:	e8 12 32 ff ff       	callq  2110 <_ZdlPvm@plt>
    eefe:	be 40 00 00 00       	mov    $0x40,%esi
    ef03:	4c 89 ef             	mov    %r13,%rdi
    ef06:	e8 05 32 ff ff       	callq  2110 <_ZdlPvm@plt>
    ef0b:	be 38 00 00 00       	mov    $0x38,%esi
    ef10:	4c 89 e7             	mov    %r12,%rdi
    ef13:	e8 f8 31 ff ff       	callq  2110 <_ZdlPvm@plt>
    ef18:	48 8b b4 24 f8 00 00 	mov    0xf8(%rsp),%rsi
    ef1f:	00 
    ef20:	48 3b b4 24 00 01 00 	cmp    0x100(%rsp),%rsi
    ef27:	00 
    ef28:	0f 84 42 05 00 00    	je     f470 <_ZN6PRTreeIdLi6EEC1ERSt6vectorISt4pairId11BoundingBoxESaIS4_EE+0x2f10>
    ef2e:	48 8b 84 24 98 00 00 	mov    0x98(%rsp),%rax
    ef35:	00 
    ef36:	48 83 c6 08          	add    $0x8,%rsi
    ef3a:	48 89 46 f8          	mov    %rax,-0x8(%rsi)
    ef3e:	48 c7 84 24 98 00 00 	movq   $0x0,0x98(%rsp)
    ef45:	00 00 00 00 00 
    ef4a:	48 89 b4 24 f8 00 00 	mov    %rsi,0xf8(%rsp)
    ef51:	00 
    ef52:	48 83 84 24 88 00 00 	addq   $0x40,0x88(%rsp)
    ef59:	00 40 
    ef5b:	48 8b 84 24 88 00 00 	mov    0x88(%rsp),%rax
    ef62:	00 
    ef63:	48 3b 84 24 80 00 00 	cmp    0x80(%rsp),%rax
    ef6a:	00 
    ef6b:	0f 85 7f e5 ff ff    	jne    d4f0 <_ZN6PRTreeIdLi6EEC1ERSt6vectorISt4pairId11BoundingBoxESaIS4_EE+0xf90>
    ef71:	48 8b 74 24 38       	mov    0x38(%rsp),%rsi
    ef76:	c5 f9 ef c0          	vpxor  %xmm0,%xmm0,%xmm0
    ef7a:	48 c7 84 24 60 01 00 	movq   $0x0,0x160(%rsp)
    ef81:	00 00 00 00 00 
    ef86:	48 8b 7c 24 50       	mov    0x50(%rsp),%rdi
    ef8b:	c5 f9 7f 84 24 50 01 	vmovdqa %xmm0,0x150(%rsp)
    ef92:	00 00 
    ef94:	e8 57 7d ff ff       	callq  6cf0 <_ZN12PseudoPRTreeIiLi6EE14get_all_leavesEv>
    ef99:	48 8b 9c 24 70 01 00 	mov    0x170(%rsp),%rbx
    efa0:	00 
    efa1:	4c 8b ac 24 78 01 00 	mov    0x178(%rsp),%r13
    efa8:	00 
    efa9:	c7 84 24 94 00 00 00 	movl   $0x0,0x94(%rsp)
    efb0:	00 00 00 00 
    efb4:	4c 39 eb             	cmp    %r13,%rbx
    efb7:	0f 84 cd 01 00 00    	je     f18a <_ZN6PRTreeIdLi6EEC1ERSt6vectorISt4pairId11BoundingBoxESaIS4_EE+0x2c2a>
    efbd:	0f 1f 00             	nopl   (%rax)
    efc0:	c5 fa 6f 4b 08       	vmovdqu 0x8(%rbx),%xmm1
    efc5:	8b 03                	mov    (%rbx),%eax
    efc7:	c5 e1 ef db          	vpxor  %xmm3,%xmm3,%xmm3
    efcb:	4c 8b 63 30          	mov    0x30(%rbx),%r12
    efcf:	4c 2b 63 28          	sub    0x28(%rbx),%r12
    efd3:	89 84 24 90 01 00 00 	mov    %eax,0x190(%rsp)
    efda:	c5 fa 7f 8c 24 98 01 	vmovdqu %xmm1,0x198(%rsp)
    efe1:	00 00 
    efe3:	c5 fa 6f 53 18       	vmovdqu 0x18(%rbx),%xmm2
    efe8:	c5 fa 7f 9c 24 b8 01 	vmovdqu %xmm3,0x1b8(%rsp)
    efef:	00 00 
    eff1:	48 c7 84 24 c8 01 00 	movq   $0x0,0x1c8(%rsp)
    eff8:	00 00 00 00 00 
    effd:	c5 fa 7f 94 24 a8 01 	vmovdqu %xmm2,0x1a8(%rsp)
    f004:	00 00 
    f006:	0f 84 34 04 00 00    	je     f440 <_ZN6PRTreeIdLi6EEC1ERSt6vectorISt4pairId11BoundingBoxESaIS4_EE+0x2ee0>
    f00c:	48 b8 f8 ff ff ff ff 	movabs $0x7ffffffffffffff8,%rax
    f013:	ff ff 7f 
    f016:	4d 89 e6             	mov    %r12,%r14
    f019:	49 39 c4             	cmp    %rax,%r12
    f01c:	0f 87 23 07 00 00    	ja     f745 <_ZN6PRTreeIdLi6EEC1ERSt6vectorISt4pairId11BoundingBoxESaIS4_EE+0x31e5>
    f022:	4c 89 e7             	mov    %r12,%rdi
    f025:	e8 d6 30 ff ff       	callq  2100 <_Znwm@plt>
    f02a:	48 89 c7             	mov    %rax,%rdi
    f02d:	c4 e1 f9 6e cf       	vmovq  %rdi,%xmm1
    f032:	49 01 fe             	add    %rdi,%r14
    f035:	c5 f1 6c c1          	vpunpcklqdq %xmm1,%xmm1,%xmm0
    f039:	4c 89 b4 24 c8 01 00 	mov    %r14,0x1c8(%rsp)
    f040:	00 
    f041:	c5 fa 7f 84 24 b8 01 	vmovdqu %xmm0,0x1b8(%rsp)
    f048:	00 00 
    f04a:	48 8b 4b 30          	mov    0x30(%rbx),%rcx
    f04e:	4c 8b 43 28          	mov    0x28(%rbx),%r8
    f052:	4c 39 c1             	cmp    %r8,%rcx
    f055:	0f 84 75 04 00 00    	je     f4d0 <_ZN6PRTreeIdLi6EEC1ERSt6vectorISt4pairId11BoundingBoxESaIS4_EE+0x2f70>
    f05b:	4c 89 c0             	mov    %r8,%rax
    f05e:	48 89 fa             	mov    %rdi,%rdx
    f061:	66 66 2e 0f 1f 84 00 	data16 nopw %cs:0x0(%rax,%rax,1)
    f068:	00 00 00 00 
    f06c:	0f 1f 40 00          	nopl   0x0(%rax)
    f070:	c5 fa 6f 30          	vmovdqu (%rax),%xmm6
    f074:	48 83 c0 28          	add    $0x28,%rax
    f078:	48 83 c2 28          	add    $0x28,%rdx
    f07c:	c5 fa 7f 72 d8       	vmovdqu %xmm6,-0x28(%rdx)
    f081:	c5 fa 6f 78 e8       	vmovdqu -0x18(%rax),%xmm7
    f086:	c5 fa 7f 7a e8       	vmovdqu %xmm7,-0x18(%rdx)
    f08b:	48 8b 70 f8          	mov    -0x8(%rax),%rsi
    f08f:	48 89 72 f8          	mov    %rsi,-0x8(%rdx)
    f093:	48 39 c1             	cmp    %rax,%rcx
    f096:	75 d8                	jne    f070 <_ZN6PRTreeIdLi6EEC1ERSt6vectorISt4pairId11BoundingBoxESaIS4_EE+0x2b10>
    f098:	48 8d 41 d8          	lea    -0x28(%rcx),%rax
    f09c:	48 b9 cd cc cc cc cc 	movabs $0xccccccccccccccd,%rcx
    f0a3:	cc cc 0c 
    f0a6:	4c 29 c0             	sub    %r8,%rax
    f0a9:	48 c1 e8 03          	shr    $0x3,%rax
    f0ad:	48 0f af c1          	imul   %rcx,%rax
    f0b1:	48 b9 ff ff ff ff ff 	movabs $0x1fffffffffffffff,%rcx
    f0b8:	ff ff 1f 
    f0bb:	48 21 c8             	and    %rcx,%rax
    f0be:	48 8d 44 80 05       	lea    0x5(%rax,%rax,4),%rax
    f0c3:	48 8d 04 c7          	lea    (%rdi,%rax,8),%rax
    f0c7:	48 8b b4 24 58 01 00 	mov    0x158(%rsp),%rsi
    f0ce:	00 
    f0cf:	48 89 84 24 c0 01 00 	mov    %rax,0x1c0(%rsp)
    f0d6:	00 
    f0d7:	48 3b b4 24 60 01 00 	cmp    0x160(%rsp),%rsi
    f0de:	00 
    f0df:	0f 84 ab 03 00 00    	je     f490 <_ZN6PRTreeIdLi6EEC1ERSt6vectorISt4pairId11BoundingBoxESaIS4_EE+0x2f30>
    f0e5:	c5 fa 6f 9c 24 98 01 	vmovdqu 0x198(%rsp),%xmm3
    f0ec:	00 00 
    f0ee:	48 83 c6 28          	add    $0x28,%rsi
    f0f2:	8b 84 24 94 00 00 00 	mov    0x94(%rsp),%eax
    f0f9:	89 46 d8             	mov    %eax,-0x28(%rsi)
    f0fc:	c5 fa 7f 5e e0       	vmovdqu %xmm3,-0x20(%rsi)
    f101:	c5 fa 6f 8c 24 a8 01 	vmovdqu 0x1a8(%rsp),%xmm1
    f108:	00 00 
    f10a:	c5 fa 7f 4e f0       	vmovdqu %xmm1,-0x10(%rsi)
    f10f:	48 89 b4 24 58 01 00 	mov    %rsi,0x158(%rsp)
    f116:	00 
    f117:	ff c0                	inc    %eax
    f119:	89 84 24 94 00 00 00 	mov    %eax,0x94(%rsp)
    f120:	48 85 ff             	test   %rdi,%rdi
    f123:	0f 84 f7 02 00 00    	je     f420 <_ZN6PRTreeIdLi6EEC1ERSt6vectorISt4pairId11BoundingBoxESaIS4_EE+0x2ec0>
    f129:	4c 89 e6             	mov    %r12,%rsi
    f12c:	48 83 c3 40          	add    $0x40,%rbx
    f130:	e8 db 2f ff ff       	callq  2110 <_ZdlPvm@plt>
    f135:	49 39 dd             	cmp    %rbx,%r13
    f138:	0f 85 82 fe ff ff    	jne    efc0 <_ZN6PRTreeIdLi6EEC1ERSt6vectorISt4pairId11BoundingBoxESaIS4_EE+0x2a60>
    f13e:	48 8b 9c 24 78 01 00 	mov    0x178(%rsp),%rbx
    f145:	00 
    f146:	4c 8b ac 24 70 01 00 	mov    0x170(%rsp),%r13
    f14d:	00 
    f14e:	4c 39 eb             	cmp    %r13,%rbx
    f151:	74 37                	je     f18a <_ZN6PRTreeIdLi6EEC1ERSt6vectorISt4pairId11BoundingBoxESaIS4_EE+0x2c2a>
    f153:	66 66 2e 0f 1f 84 00 	data16 nopw %cs:0x0(%rax,%rax,1)
    f15a:	00 00 00 00 
    f15e:	66 90                	xchg   %ax,%ax
    f160:	49 8b 7d 28          	mov    0x28(%r13),%rdi
    f164:	48 85 ff             	test   %rdi,%rdi
    f167:	0f 84 93 02 00 00    	je     f400 <_ZN6PRTreeIdLi6EEC1ERSt6vectorISt4pairId11BoundingBoxESaIS4_EE+0x2ea0>
    f16d:	49 8b 75 38          	mov    0x38(%r13),%rsi
    f171:	49 83 c5 40          	add    $0x40,%r13
    f175:	48 29 fe             	sub    %rdi,%rsi
    f178:	e8 93 2f ff ff       	callq  2110 <_ZdlPvm@plt>
    f17d:	49 39 dd             	cmp    %rbx,%r13
    f180:	75 de                	jne    f160 <_ZN6PRTreeIdLi6EEC1ERSt6vectorISt4pairId11BoundingBoxESaIS4_EE+0x2c00>
    f182:	4c 8b ac 24 70 01 00 	mov    0x170(%rsp),%r13
    f189:	00 
    f18a:	4d 85 ed             	test   %r13,%r13
    f18d:	74 13                	je     f1a2 <_ZN6PRTreeIdLi6EEC1ERSt6vectorISt4pairId11BoundingBoxESaIS4_EE+0x2c42>
    f18f:	48 8b b4 24 80 01 00 	mov    0x180(%rsp),%rsi
    f196:	00 
    f197:	4c 89 ef             	mov    %r13,%rdi
    f19a:	4c 29 ee             	sub    %r13,%rsi
    f19d:	e8 6e 2f ff ff       	callq  2110 <_ZdlPvm@plt>
    f1a2:	c5 f9 6f 8c 24 50 01 	vmovdqa 0x150(%rsp),%xmm1
    f1a9:	00 00 
    f1ab:	48 8b 84 24 60 01 00 	mov    0x160(%rsp),%rax
    f1b2:	00 
    f1b3:	c5 f9 ef c0          	vpxor  %xmm0,%xmm0,%xmm0
    f1b7:	48 c7 84 24 60 01 00 	movq   $0x0,0x160(%rsp)
    f1be:	00 00 00 00 00 
    f1c3:	48 8b bc 24 30 01 00 	mov    0x130(%rsp),%rdi
    f1ca:	00 
    f1cb:	c5 f9 7f 84 24 50 01 	vmovdqa %xmm0,0x150(%rsp)
    f1d2:	00 00 
    f1d4:	48 8b b4 24 40 01 00 	mov    0x140(%rsp),%rsi
    f1db:	00 
    f1dc:	48 89 84 24 40 01 00 	mov    %rax,0x140(%rsp)
    f1e3:	00 
    f1e4:	c5 f9 7f 8c 24 30 01 	vmovdqa %xmm1,0x130(%rsp)
    f1eb:	00 00 
    f1ed:	48 85 ff             	test   %rdi,%rdi
    f1f0:	74 25                	je     f217 <_ZN6PRTreeIdLi6EEC1ERSt6vectorISt4pairId11BoundingBoxESaIS4_EE+0x2cb7>
    f1f2:	48 29 fe             	sub    %rdi,%rsi
    f1f5:	e8 16 2f ff ff       	callq  2110 <_ZdlPvm@plt>
    f1fa:	48 8b bc 24 50 01 00 	mov    0x150(%rsp),%rdi
    f201:	00 
    f202:	48 8b b4 24 60 01 00 	mov    0x160(%rsp),%rsi
    f209:	00 
    f20a:	48 29 fe             	sub    %rdi,%rsi
    f20d:	48 85 ff             	test   %rdi,%rdi
    f210:	74 05                	je     f217 <_ZN6PRTreeIdLi6EEC1ERSt6vectorISt4pairId11BoundingBoxESaIS4_EE+0x2cb7>
    f212:	e8 f9 2e ff ff       	callq  2110 <_ZdlPvm@plt>
    f217:	c5 f9 6f 84 24 10 01 	vmovdqa 0x110(%rsp),%xmm0
    f21e:	00 00 
    f220:	c5 f9 6f 9c 24 f0 00 	vmovdqa 0xf0(%rsp),%xmm3
    f227:	00 00 
    f229:	48 8b 94 24 f0 00 00 	mov    0xf0(%rsp),%rdx
    f230:	00 
    f231:	48 8b 84 24 f8 00 00 	mov    0xf8(%rsp),%rax
    f238:	00 
    f239:	48 8b 8c 24 20 01 00 	mov    0x120(%rsp),%rcx
    f240:	00 
    f241:	48 8b b4 24 00 01 00 	mov    0x100(%rsp),%rsi
    f248:	00 
    f249:	48 29 d0             	sub    %rdx,%rax
    f24c:	48 89 b4 24 20 01 00 	mov    %rsi,0x120(%rsp)
    f253:	00 
    f254:	48 89 8c 24 00 01 00 	mov    %rcx,0x100(%rsp)
    f25b:	00 
    f25c:	c5 f9 7f 9c 24 10 01 	vmovdqa %xmm3,0x110(%rsp)
    f263:	00 00 
    f265:	c5 f9 7f 84 24 f0 00 	vmovdqa %xmm0,0xf0(%rsp)
    f26c:	00 00 
    f26e:	48 83 f8 08          	cmp    $0x8,%rax
    f272:	0f 87 c8 dc ff ff    	ja     cf40 <_ZN6PRTreeIdLi6EEC1ERSt6vectorISt4pairId11BoundingBoxESaIS4_EE+0x9e0>
    f278:	48 83 f8 08          	cmp    $0x8,%rax
    f27c:	0f 85 9c 05 00 00    	jne    f81e <_ZN6PRTreeIdLi6EEC1ERSt6vectorISt4pairId11BoundingBoxESaIS4_EE+0x32be>
    f282:	48 8b 5c 24 18       	mov    0x18(%rsp),%rbx
    f287:	48 8b 02             	mov    (%rdx),%rax
    f28a:	48 c7 02 00 00 00 00 	movq   $0x0,(%rdx)
    f291:	4c 8b 23             	mov    (%rbx),%r12
    f294:	48 89 03             	mov    %rax,(%rbx)
    f297:	4d 85 e4             	test   %r12,%r12
    f29a:	74 4d                	je     f2e9 <_ZN6PRTreeIdLi6EEC1ERSt6vectorISt4pairId11BoundingBoxESaIS4_EE+0x2d89>
    f29c:	49 8d 7c 24 30       	lea    0x30(%r12),%rdi
    f2a1:	e8 5a 48 ff ff       	callq  3b00 <_ZNSt10unique_ptrI10PRTreeNodeIdLi6EESt14default_deleteIS1_EED1Ev>
    f2a6:	49 8d 7c 24 28       	lea    0x28(%r12),%rdi
    f2ab:	e8 50 48 ff ff       	callq  3b00 <_ZNSt10unique_ptrI10PRTreeNodeIdLi6EESt14default_deleteIS1_EED1Ev>
    f2b0:	4d 8b 6c 24 20       	mov    0x20(%r12),%r13
    f2b5:	4d 85 ed             	test   %r13,%r13
    f2b8:	74 22                	je     f2dc <_ZN6PRTreeIdLi6EEC1ERSt6vectorISt4pairId11BoundingBoxESaIS4_EE+0x2d7c>
    f2ba:	49 8b 7d 28          	mov    0x28(%r13),%rdi
    f2be:	48 85 ff             	test   %rdi,%rdi
    f2c1:	74 0c                	je     f2cf <_ZN6PRTreeIdLi6EEC1ERSt6vectorISt4pairId11BoundingBoxESaIS4_EE+0x2d6f>
    f2c3:	49 8b 75 38          	mov    0x38(%r13),%rsi
    f2c7:	48 29 fe             	sub    %rdi,%rsi
    f2ca:	e8 41 2e ff ff       	callq  2110 <_ZdlPvm@plt>
    f2cf:	be 40 00 00 00       	mov    $0x40,%esi
    f2d4:	4c 89 ef             	mov    %r13,%rdi
    f2d7:	e8 34 2e ff ff       	callq  2110 <_ZdlPvm@plt>
    f2dc:	be 38 00 00 00       	mov    $0x38,%esi
    f2e1:	4c 89 e7             	mov    %r12,%rdi
    f2e4:	e8 27 2e ff ff       	callq  2110 <_ZdlPvm@plt>
    f2e9:	48 8b bc 24 30 01 00 	mov    0x130(%rsp),%rdi
    f2f0:	00 
    f2f1:	48 85 ff             	test   %rdi,%rdi
    f2f4:	74 10                	je     f306 <_ZN6PRTreeIdLi6EEC1ERSt6vectorISt4pairId11BoundingBoxESaIS4_EE+0x2da6>
    f2f6:	48 8b b4 24 40 01 00 	mov    0x140(%rsp),%rsi
    f2fd:	00 
    f2fe:	48 29 fe             	sub    %rdi,%rsi
    f301:	e8 0a 2e ff ff       	callq  2110 <_ZdlPvm@plt>
    f306:	48 8b bc 24 c8 00 00 	mov    0xc8(%rsp),%rdi
    f30d:	00 
    f30e:	48 85 ff             	test   %rdi,%rdi
    f311:	74 05                	je     f318 <_ZN6PRTreeIdLi6EEC1ERSt6vectorISt4pairId11BoundingBoxESaIS4_EE+0x2db8>
    f313:	e8 48 65 ff ff       	callq  5860 <_ZNSt16_Sp_counted_baseILN9__gnu_cxx12_Lock_policyE2EE10_M_releaseEv>
    f318:	48 8d bc 24 a8 00 00 	lea    0xa8(%rsp),%rdi
    f31f:	00 
    f320:	e8 db 47 ff ff       	callq  3b00 <_ZNSt10unique_ptrI10PRTreeNodeIdLi6EESt14default_deleteIS1_EED1Ev>
    f325:	48 8d bc 24 a0 00 00 	lea    0xa0(%rsp),%rdi
    f32c:	00 
    f32d:	e8 ce 47 ff ff       	callq  3b00 <_ZNSt10unique_ptrI10PRTreeNodeIdLi6EESt14default_deleteIS1_EED1Ev>
    f332:	48 8b 7c 24 48       	mov    0x48(%rsp),%rdi
    f337:	e8 c4 47 ff ff       	callq  3b00 <_ZNSt10unique_ptrI10PRTreeNodeIdLi6EESt14default_deleteIS1_EED1Ev>
    f33c:	48 8b 7c 24 28       	mov    0x28(%rsp),%rdi
    f341:	e8 ea 4e ff ff       	callq  4230 <_ZNSt6vectorISt10unique_ptrI10PRTreeNodeIdLi6EESt14default_deleteIS2_EESaIS5_EED1Ev>
    f346:	48 8b 7c 24 40       	mov    0x40(%rsp),%rdi
    f34b:	e8 e0 4e ff ff       	callq  4230 <_ZNSt6vectorISt10unique_ptrI10PRTreeNodeIdLi6EESt14default_deleteIS2_EESaIS5_EED1Ev>
    f350:	48 8d bc 24 d0 00 00 	lea    0xd0(%rsp),%rdi
    f357:	00 
    f358:	e8 53 4e ff ff       	callq  41b0 <_ZNSt6vectorI4LeafIiLi6EESaIS1_EED1Ev>
    f35d:	48 8b bc 24 b8 00 00 	mov    0xb8(%rsp),%rdi
    f364:	00 
    f365:	48 85 ff             	test   %rdi,%rdi
    f368:	74 05                	je     f36f <_ZN6PRTreeIdLi6EEC1ERSt6vectorISt4pairId11BoundingBoxESaIS4_EE+0x2e0f>
    f36a:	e8 f1 64 ff ff       	callq  5860 <_ZNSt16_Sp_counted_baseILN9__gnu_cxx12_Lock_policyE2EE10_M_releaseEv>
    f36f:	48 8b 84 24 d8 01 00 	mov    0x1d8(%rsp),%rax
    f376:	00 
    f377:	64 48 2b 04 25 28 00 	sub    %fs:0x28,%rax
    f37e:	00 00 
    f380:	0f 85 d0 03 00 00    	jne    f756 <_ZN6PRTreeIdLi6EEC1ERSt6vectorISt4pairId11BoundingBoxESaIS4_EE+0x31f6>
    f386:	48 8d 65 d8          	lea    -0x28(%rbp),%rsp
    f38a:	5b                   	pop    %rbx
    f38b:	41 5c                	pop    %r12
    f38d:	41 5d                	pop    %r13
    f38f:	41 5e                	pop    %r14
    f391:	41 5f                	pop    %r15
    f393:	5d                   	pop    %rbp
    f394:	c3                   	retq   
    f395:	66 66 2e 0f 1f 84 00 	data16 nopw %cs:0x0(%rax,%rax,1)
    f39c:	00 00 00 00 
    f3a0:	49 83 c4 40          	add    $0x40,%r12
    f3a4:	4c 39 e3             	cmp    %r12,%rbx
    f3a7:	0f 85 53 df ff ff    	jne    d300 <_ZN6PRTreeIdLi6EEC1ERSt6vectorISt4pairId11BoundingBoxESaIS4_EE+0xda0>
    f3ad:	e9 72 df ff ff       	jmpq   d324 <_ZN6PRTreeIdLi6EEC1ERSt6vectorISt4pairId11BoundingBoxESaIS4_EE+0xdc4>
    f3b2:	66 66 2e 0f 1f 84 00 	data16 nopw %cs:0x0(%rax,%rax,1)
    f3b9:	00 00 00 00 
    f3bd:	0f 1f 00             	nopl   (%rax)
    f3c0:	49 83 c4 40          	add    $0x40,%r12
    f3c4:	4c 39 e3             	cmp    %r12,%rbx
    f3c7:	0f 85 d3 dd ff ff    	jne    d1a0 <_ZN6PRTreeIdLi6EEC1ERSt6vectorISt4pairId11BoundingBoxESaIS4_EE+0xc40>
    f3cd:	e9 f2 dd ff ff       	jmpq   d1c4 <_ZN6PRTreeIdLi6EEC1ERSt6vectorISt4pairId11BoundingBoxESaIS4_EE+0xc64>
    f3d2:	66 66 2e 0f 1f 84 00 	data16 nopw %cs:0x0(%rax,%rax,1)
    f3d9:	00 00 00 00 
    f3dd:	0f 1f 00             	nopl   (%rax)
    f3e0:	49 83 c6 40          	add    $0x40,%r14
    f3e4:	4c 39 f3             	cmp    %r14,%rbx
    f3e7:	0f 85 c3 de ff ff    	jne    d2b0 <_ZN6PRTreeIdLi6EEC1ERSt6vectorISt4pairId11BoundingBoxESaIS4_EE+0xd50>
    f3ed:	e9 e0 de ff ff       	jmpq   d2d2 <_ZN6PRTreeIdLi6EEC1ERSt6vectorISt4pairId11BoundingBoxESaIS4_EE+0xd72>
    f3f2:	66 66 2e 0f 1f 84 00 	data16 nopw %cs:0x0(%rax,%rax,1)
    f3f9:	00 00 00 00 
    f3fd:	0f 1f 00             	nopl   (%rax)
    f400:	49 83 c5 40          	add    $0x40,%r13
    f404:	49 39 dd             	cmp    %rbx,%r13
    f407:	0f 85 53 fd ff ff    	jne    f160 <_ZN6PRTreeIdLi6EEC1ERSt6vectorISt4pairId11BoundingBoxESaIS4_EE+0x2c00>
    f40d:	e9 70 fd ff ff       	jmpq   f182 <_ZN6PRTreeIdLi6EEC1ERSt6vectorISt4pairId11BoundingBoxESaIS4_EE+0x2c22>
    f412:	66 66 2e 0f 1f 84 00 	data16 nopw %cs:0x0(%rax,%rax,1)
    f419:	00 00 00 00 
    f41d:	0f 1f 00             	nopl   (%rax)
    f420:	48 83 c3 40          	add    $0x40,%rbx
    f424:	49 39 dd             	cmp    %rbx,%r13
    f427:	0f 85 93 fb ff ff    	jne    efc0 <_ZN6PRTreeIdLi6EEC1ERSt6vectorISt4pairId11BoundingBoxESaIS4_EE+0x2a60>
    f42d:	e9 0c fd ff ff       	jmpq   f13e <_ZN6PRTreeIdLi6EEC1ERSt6vectorISt4pairId11BoundingBoxESaIS4_EE+0x2bde>
    f432:	66 66 2e 0f 1f 84 00 	data16 nopw %cs:0x0(%rax,%rax,1)
    f439:	00 00 00 00 
    f43d:	0f 1f 00             	nopl   (%rax)
    f440:	45 31 f6             	xor    %r14d,%r14d
    f443:	31 ff                	xor    %edi,%edi
    f445:	e9 e3 fb ff ff       	jmpq   f02d <_ZN6PRTreeIdLi6EEC1ERSt6vectorISt4pairId11BoundingBoxESaIS4_EE+0x2acd>
    f44a:	66 0f 1f 44 00 00    	nopw   0x0(%rax,%rax,1)
    f450:	41 ff c5             	inc    %r13d
    f453:	48 83 c3 40          	add    $0x40,%rbx
    f457:	41 83 fd 04          	cmp    $0x4,%r13d
    f45b:	74 7b                	je     f4d8 <_ZN6PRTreeIdLi6EEC1ERSt6vectorISt4pairId11BoundingBoxESaIS4_EE+0x2f78>
    f45d:	c5 f8 77             	vzeroupper 
    f460:	e9 74 dc ff ff       	jmpq   d0d9 <_ZN6PRTreeIdLi6EEC1ERSt6vectorISt4pairId11BoundingBoxESaIS4_EE+0xb79>
    f465:	66 66 2e 0f 1f 84 00 	data16 nopw %cs:0x0(%rax,%rax,1)
    f46c:	00 00 00 00 
    f470:	48 8b 54 24 48       	mov    0x48(%rsp),%rdx
    f475:	48 8b 7c 24 40       	mov    0x40(%rsp),%rdi
    f47a:	e8 01 84 ff ff       	callq  7880 <_ZNSt6vectorISt10unique_ptrI10PRTreeNodeIdLi6EESt14default_deleteIS2_EESaIS5_EE17_M_realloc_insertIJS5_EEEvN9__gnu_cxx17__normal_iteratorIPS5_S7_EEDpOT_>
    f47f:	e9 ce fa ff ff       	jmpq   ef52 <_ZN6PRTreeIdLi6EEC1ERSt6vectorISt4pairId11BoundingBoxESaIS4_EE+0x29f2>
    f484:	66 66 2e 0f 1f 84 00 	data16 nopw %cs:0x0(%rax,%rax,1)
    f48b:	00 00 00 00 
    f48f:	90                   	nop
    f490:	48 8b 4c 24 30       	mov    0x30(%rsp),%rcx
    f495:	48 8d 94 24 94 00 00 	lea    0x94(%rsp),%rdx
    f49c:	00 
    f49d:	48 8d bc 24 50 01 00 	lea    0x150(%rsp),%rdi
    f4a4:	00 
    f4a5:	e8 06 73 ff ff       	callq  67b0 <_ZNSt6vectorISt4pairIi11BoundingBoxESaIS2_EE17_M_realloc_insertIJRiRS1_EEEvN9__gnu_cxx17__normal_iteratorIPS2_S4_EEDpOT_>
    f4aa:	48 8b bc 24 b8 01 00 	mov    0x1b8(%rsp),%rdi
    f4b1:	00 
    f4b2:	4c 8b a4 24 c8 01 00 	mov    0x1c8(%rsp),%r12
    f4b9:	00 
    f4ba:	8b 84 24 94 00 00 00 	mov    0x94(%rsp),%eax
    f4c1:	49 29 fc             	sub    %rdi,%r12
    f4c4:	e9 4e fc ff ff       	jmpq   f117 <_ZN6PRTreeIdLi6EEC1ERSt6vectorISt4pairId11BoundingBoxESaIS4_EE+0x2bb7>
    f4c9:	0f 1f 80 00 00 00 00 	nopl   0x0(%rax)
    f4d0:	48 89 f8             	mov    %rdi,%rax
    f4d3:	e9 ef fb ff ff       	jmpq   f0c7 <_ZN6PRTreeIdLi6EEC1ERSt6vectorISt4pairId11BoundingBoxESaIS4_EE+0x2b67>
    f4d8:	c5 f8 77             	vzeroupper 
    f4db:	e9 50 dc ff ff       	jmpq   d130 <_ZN6PRTreeIdLi6EEC1ERSt6vectorISt4pairId11BoundingBoxESaIS4_EE+0xbd0>
    f4e0:	49 83 c4 40          	add    $0x40,%r12
    f4e4:	4c 39 e3             	cmp    %r12,%rbx
    f4e7:	0f 85 a3 d7 ff ff    	jne    cc90 <_ZN6PRTreeIdLi6EEC1ERSt6vectorISt4pairId11BoundingBoxESaIS4_EE+0x730>
    f4ed:	e9 c2 d7 ff ff       	jmpq   ccb4 <_ZN6PRTreeIdLi6EEC1ERSt6vectorISt4pairId11BoundingBoxESaIS4_EE+0x754>
    f4f2:	49 83 c4 40          	add    $0x40,%r12
    f4f6:	4c 39 e3             	cmp    %r12,%rbx
    f4f9:	0f 85 31 d3 ff ff    	jne    c830 <_ZN6PRTreeIdLi6EEC1ERSt6vectorISt4pairId11BoundingBoxESaIS4_EE+0x2d0>
    f4ff:	e9 50 d3 ff ff       	jmpq   c854 <_ZN6PRTreeIdLi6EEC1ERSt6vectorISt4pairId11BoundingBoxESaIS4_EE+0x2f4>
    f504:	48 83 c3 40          	add    $0x40,%rbx
    f508:	4c 39 f3             	cmp    %r14,%rbx
    f50b:	0f 85 bf d9 ff ff    	jne    ced0 <_ZN6PRTreeIdLi6EEC1ERSt6vectorISt4pairId11BoundingBoxESaIS4_EE+0x970>
    f511:	e9 dc d9 ff ff       	jmpq   cef2 <_ZN6PRTreeIdLi6EEC1ERSt6vectorISt4pairId11BoundingBoxESaIS4_EE+0x992>
    f516:	48 83 c3 40          	add    $0x40,%rbx
    f51a:	49 39 de             	cmp    %rbx,%r14
    f51d:	0f 85 1d d8 ff ff    	jne    cd40 <_ZN6PRTreeIdLi6EEC1ERSt6vectorISt4pairId11BoundingBoxESaIS4_EE+0x7e0>
    f523:	e9 8c d9 ff ff       	jmpq   ceb4 <_ZN6PRTreeIdLi6EEC1ERSt6vectorISt4pairId11BoundingBoxESaIS4_EE+0x954>
    f528:	49 89 dd             	mov    %rbx,%r13
    f52b:	4c 8d 24 d5 00 00 00 	lea    0x0(,%rdx,8),%r12
    f532:	00 
    f533:	49 29 fd             	sub    %rdi,%r13
    f536:	48 85 d2             	test   %rdx,%rdx
    f539:	0f 84 e9 01 00 00    	je     f728 <_ZN6PRTreeIdLi6EEC1ERSt6vectorISt4pairId11BoundingBoxESaIS4_EE+0x31c8>
    f53f:	4c 89 e7             	mov    %r12,%rdi
    f542:	e8 b9 2b ff ff       	callq  2100 <_Znwm@plt>
    f547:	48 8b bc 24 f0 00 00 	mov    0xf0(%rsp),%rdi
    f54e:	00 
    f54f:	48 8b b4 24 00 01 00 	mov    0x100(%rsp),%rsi
    f556:	00 
    f557:	49 89 c6             	mov    %rax,%r14
    f55a:	48 8b 9c 24 f8 00 00 	mov    0xf8(%rsp),%rbx
    f561:	00 
    f562:	48 29 fe             	sub    %rdi,%rsi
    f565:	48 39 fb             	cmp    %rdi,%rbx
    f568:	0f 84 99 01 00 00    	je     f707 <_ZN6PRTreeIdLi6EEC1ERSt6vectorISt4pairId11BoundingBoxESaIS4_EE+0x31a7>
    f56e:	48 8d 4f 08          	lea    0x8(%rdi),%rcx
    f572:	4c 89 f2             	mov    %r14,%rdx
    f575:	48 8d 43 f8          	lea    -0x8(%rbx),%rax
    f579:	48 29 ca             	sub    %rcx,%rdx
    f57c:	48 29 f8             	sub    %rdi,%rax
    f57f:	48 83 fa 10          	cmp    $0x10,%rdx
    f583:	0f 86 5b 01 00 00    	jbe    f6e4 <_ZN6PRTreeIdLi6EEC1ERSt6vectorISt4pairId11BoundingBoxESaIS4_EE+0x3184>
    f589:	48 83 f8 18          	cmp    $0x18,%rax
    f58d:	0f 86 51 01 00 00    	jbe    f6e4 <_ZN6PRTreeIdLi6EEC1ERSt6vectorISt4pairId11BoundingBoxESaIS4_EE+0x3184>
    f593:	48 c1 e8 03          	shr    $0x3,%rax
    f597:	4c 8d 40 01          	lea    0x1(%rax),%r8
    f59b:	31 c0                	xor    %eax,%eax
    f59d:	4c 89 c2             	mov    %r8,%rdx
    f5a0:	48 c1 ea 02          	shr    $0x2,%rdx
    f5a4:	48 c1 e2 05          	shl    $0x5,%rdx
    f5a8:	0f 1f 84 00 00 00 00 	nopl   0x0(%rax,%rax,1)
    f5af:	00 
    f5b0:	c5 fe 6f 14 07       	vmovdqu (%rdi,%rax,1),%ymm2
    f5b5:	c4 c1 7e 7f 14 06    	vmovdqu %ymm2,(%r14,%rax,1)
    f5bb:	48 83 c0 20          	add    $0x20,%rax
    f5bf:	48 39 c2             	cmp    %rax,%rdx
    f5c2:	75 ec                	jne    f5b0 <_ZN6PRTreeIdLi6EEC1ERSt6vectorISt4pairId11BoundingBoxESaIS4_EE+0x3050>
    f5c4:	4c 89 c2             	mov    %r8,%rdx
    f5c7:	48 83 e2 fc          	and    $0xfffffffffffffffc,%rdx
    f5cb:	48 8d 0c d5 00 00 00 	lea    0x0(,%rdx,8),%rcx
    f5d2:	00 
    f5d3:	48 8d 04 0f          	lea    (%rdi,%rcx,1),%rax
    f5d7:	4c 01 f1             	add    %r14,%rcx
    f5da:	4c 39 c2             	cmp    %r8,%rdx
    f5dd:	0f 84 4d 01 00 00    	je     f730 <_ZN6PRTreeIdLi6EEC1ERSt6vectorISt4pairId11BoundingBoxESaIS4_EE+0x31d0>
    f5e3:	48 8b 10             	mov    (%rax),%rdx
    f5e6:	48 89 11             	mov    %rdx,(%rcx)
    f5e9:	48 8d 50 08          	lea    0x8(%rax),%rdx
    f5ed:	48 39 d3             	cmp    %rdx,%rbx
    f5f0:	0f 84 3a 01 00 00    	je     f730 <_ZN6PRTreeIdLi6EEC1ERSt6vectorISt4pairId11BoundingBoxESaIS4_EE+0x31d0>
    f5f6:	48 8b 50 08          	mov    0x8(%rax),%rdx
    f5fa:	48 89 51 08          	mov    %rdx,0x8(%rcx)
    f5fe:	48 8d 50 10          	lea    0x10(%rax),%rdx
    f602:	48 39 d3             	cmp    %rdx,%rbx
    f605:	0f 84 25 01 00 00    	je     f730 <_ZN6PRTreeIdLi6EEC1ERSt6vectorISt4pairId11BoundingBoxESaIS4_EE+0x31d0>
    f60b:	48 8b 40 10          	mov    0x10(%rax),%rax
    f60f:	48 89 41 10          	mov    %rax,0x10(%rcx)
    f613:	c5 f8 77             	vzeroupper 
    f616:	e8 f5 2a ff ff       	callq  2110 <_ZdlPvm@plt>
    f61b:	48 8b 84 24 d8 00 00 	mov    0xd8(%rsp),%rax
    f622:	00 
    f623:	4d 01 f5             	add    %r14,%r13
    f626:	4d 01 f4             	add    %r14,%r12
    f629:	4c 89 b4 24 f0 00 00 	mov    %r14,0xf0(%rsp)
    f630:	00 
    f631:	4c 89 ac 24 f8 00 00 	mov    %r13,0xf8(%rsp)
    f638:	00 
    f639:	4c 89 a4 24 00 01 00 	mov    %r12,0x100(%rsp)
    f640:	00 
    f641:	48 89 84 24 80 00 00 	mov    %rax,0x80(%rsp)
    f648:	00 
    f649:	48 8b 84 24 d0 00 00 	mov    0xd0(%rsp),%rax
    f650:	00 
    f651:	48 89 84 24 88 00 00 	mov    %rax,0x88(%rsp)
    f658:	00 
    f659:	e9 78 de ff ff       	jmpq   d4d6 <_ZN6PRTreeIdLi6EEC1ERSt6vectorISt4pairId11BoundingBoxESaIS4_EE+0xf76>
    f65e:	45 31 f6             	xor    %r14d,%r14d
    f661:	48 39 f9             	cmp    %rdi,%rcx
    f664:	0f 85 29 d9 ff ff    	jne    cf93 <_ZN6PRTreeIdLi6EEC1ERSt6vectorISt4pairId11BoundingBoxESaIS4_EE+0xa33>
    f66a:	4c 89 74 24 70       	mov    %r14,0x70(%rsp)
    f66f:	e9 88 d9 ff ff       	jmpq   cffc <_ZN6PRTreeIdLi6EEC1ERSt6vectorISt4pairId11BoundingBoxESaIS4_EE+0xa9c>
    f674:	45 31 ed             	xor    %r13d,%r13d
    f677:	31 ff                	xor    %edi,%edi
    f679:	e9 2f d7 ff ff       	jmpq   cdad <_ZN6PRTreeIdLi6EEC1ERSt6vectorISt4pairId11BoundingBoxESaIS4_EE+0x84d>
    f67e:	41 ff c5             	inc    %r13d
    f681:	48 83 c3 40          	add    $0x40,%rbx
    f685:	41 83 fd 04          	cmp    $0x4,%r13d
    f689:	0f 84 a9 00 00 00    	je     f738 <_ZN6PRTreeIdLi6EEC1ERSt6vectorISt4pairId11BoundingBoxESaIS4_EE+0x31d8>
    f68f:	c5 f8 77             	vzeroupper 
    f692:	e9 cc d0 ff ff       	jmpq   c763 <_ZN6PRTreeIdLi6EEC1ERSt6vectorISt4pairId11BoundingBoxESaIS4_EE+0x203>
    f697:	48 8b 54 24 48       	mov    0x48(%rsp),%rdx
    f69c:	48 8b 7c 24 28       	mov    0x28(%rsp),%rdi
    f6a1:	e8 da 81 ff ff       	callq  7880 <_ZNSt6vectorISt10unique_ptrI10PRTreeNodeIdLi6EESt14default_deleteIS2_EESaIS5_EE17_M_realloc_insertIJS5_EEEvN9__gnu_cxx17__normal_iteratorIPS5_S7_EEDpOT_>
    f6a6:	e9 ba d5 ff ff       	jmpq   cc65 <_ZN6PRTreeIdLi6EEC1ERSt6vectorISt4pairId11BoundingBoxESaIS4_EE+0x705>
    f6ab:	48 8b 4c 24 30       	mov    0x30(%rsp),%rcx
    f6b0:	48 8d 94 24 50 01 00 	lea    0x150(%rsp),%rdx
    f6b7:	00 
    f6b8:	48 8d bc 24 30 01 00 	lea    0x130(%rsp),%rdi
    f6bf:	00 
    f6c0:	e8 eb 70 ff ff       	callq  67b0 <_ZNSt6vectorISt4pairIi11BoundingBoxESaIS2_EE17_M_realloc_insertIJRiRS1_EEEvN9__gnu_cxx17__normal_iteratorIPS2_S4_EEDpOT_>
    f6c5:	48 8b bc 24 b8 01 00 	mov    0x1b8(%rsp),%rdi
    f6cc:	00 
    f6cd:	4c 8b a4 24 c8 01 00 	mov    0x1c8(%rsp),%r12
    f6d4:	00 
    f6d5:	8b 84 24 50 01 00 00 	mov    0x150(%rsp),%eax
    f6dc:	49 29 fc             	sub    %rdi,%r12
    f6df:	e9 a9 d7 ff ff       	jmpq   ce8d <_ZN6PRTreeIdLi6EEC1ERSt6vectorISt4pairId11BoundingBoxESaIS4_EE+0x92d>
    f6e4:	48 89 d8             	mov    %rbx,%rax
    f6e7:	4c 89 f2             	mov    %r14,%rdx
    f6ea:	48 89 f9             	mov    %rdi,%rcx
    f6ed:	48 29 f8             	sub    %rdi,%rax
    f6f0:	4c 01 f0             	add    %r14,%rax
    f6f3:	4c 8b 01             	mov    (%rcx),%r8
    f6f6:	48 83 c2 08          	add    $0x8,%rdx
    f6fa:	48 83 c1 08          	add    $0x8,%rcx
    f6fe:	4c 89 42 f8          	mov    %r8,-0x8(%rdx)
    f702:	48 39 d0             	cmp    %rdx,%rax
    f705:	75 ec                	jne    f6f3 <_ZN6PRTreeIdLi6EEC1ERSt6vectorISt4pairId11BoundingBoxESaIS4_EE+0x3193>
    f707:	48 85 ff             	test   %rdi,%rdi
    f70a:	0f 84 0b ff ff ff    	je     f61b <_ZN6PRTreeIdLi6EEC1ERSt6vectorISt4pairId11BoundingBoxESaIS4_EE+0x30bb>
    f710:	e9 01 ff ff ff       	jmpq   f616 <_ZN6PRTreeIdLi6EEC1ERSt6vectorISt4pairId11BoundingBoxESaIS4_EE+0x30b6>
    f715:	66 66 2e 0f 1f 84 00 	data16 nopw %cs:0x0(%rax,%rax,1)
    f71c:	00 00 00 00 
    f720:	48 89 f8             	mov    %rdi,%rax
    f723:	e9 15 d7 ff ff       	jmpq   ce3d <_ZN6PRTreeIdLi6EEC1ERSt6vectorISt4pairId11BoundingBoxESaIS4_EE+0x8dd>
    f728:	45 31 f6             	xor    %r14d,%r14d
    f72b:	e9 35 fe ff ff       	jmpq   f565 <_ZN6PRTreeIdLi6EEC1ERSt6vectorISt4pairId11BoundingBoxESaIS4_EE+0x3005>
    f730:	c5 f8 77             	vzeroupper 
    f733:	e9 de fe ff ff       	jmpq   f616 <_ZN6PRTreeIdLi6EEC1ERSt6vectorISt4pairId11BoundingBoxESaIS4_EE+0x30b6>
    f738:	c5 f8 77             	vzeroupper 
    f73b:	e9 7a d0 ff ff       	jmpq   c7ba <_ZN6PRTreeIdLi6EEC1ERSt6vectorISt4pairId11BoundingBoxESaIS4_EE+0x25a>
    f740:	e8 0b 29 ff ff       	callq  2050 <_ZSt17__throw_bad_allocv@plt>
    f745:	e8 06 29 ff ff       	callq  2050 <_ZSt17__throw_bad_allocv@plt>
    f74a:	48 8d 3d 19 09 00 00 	lea    0x919(%rip),%rdi        # 1006a <_IO_stdin_used+0x6a>
    f751:	e8 3a 29 ff ff       	callq  2090 <_ZSt20__throw_length_errorPKc@plt>
    f756:	e8 c5 29 ff ff       	callq  2120 <__stack_chk_fail@plt>
    f75b:	e8 f0 28 ff ff       	callq  2050 <_ZSt17__throw_bad_allocv@plt>
    f760:	48 89 c3             	mov    %rax,%rbx
    f763:	e9 f8 00 00 00       	jmpq   f860 <_ZN6PRTreeIdLi6EEC1ERSt6vectorISt4pairId11BoundingBoxESaIS4_EE+0x3300>
    f768:	48 89 c3             	mov    %rax,%rbx
    f76b:	e9 3d 01 00 00       	jmpq   f8ad <_ZN6PRTreeIdLi6EEC1ERSt6vectorISt4pairId11BoundingBoxESaIS4_EE+0x334d>
    f770:	48 89 c3             	mov    %rax,%rbx
    f773:	48 8d 84 24 98 00 00 	lea    0x98(%rsp),%rax
    f77a:	00 
    f77b:	48 89 44 24 48       	mov    %rax,0x48(%rsp)
    f780:	48 8d 84 24 10 01 00 	lea    0x110(%rsp),%rax
    f787:	00 
    f788:	48 89 44 24 28       	mov    %rax,0x28(%rsp)
    f78d:	48 8d 84 24 f0 00 00 	lea    0xf0(%rsp),%rax
    f794:	00 
    f795:	48 89 44 24 40       	mov    %rax,0x40(%rsp)
    f79a:	e9 2e 01 00 00       	jmpq   f8cd <_ZN6PRTreeIdLi6EEC1ERSt6vectorISt4pairId11BoundingBoxESaIS4_EE+0x336d>
    f79f:	48 89 c3             	mov    %rax,%rbx
    f7a2:	e9 eb 01 00 00       	jmpq   f992 <_ZN6PRTreeIdLi6EEC1ERSt6vectorISt4pairId11BoundingBoxESaIS4_EE+0x3432>
    f7a7:	48 89 c3             	mov    %rax,%rbx
    f7aa:	e9 0c 02 00 00       	jmpq   f9bb <_ZN6PRTreeIdLi6EEC1ERSt6vectorISt4pairId11BoundingBoxESaIS4_EE+0x345b>
    f7af:	48 89 c3             	mov    %rax,%rbx
    f7b2:	e9 66 02 00 00       	jmpq   fa1d <_ZN6PRTreeIdLi6EEC1ERSt6vectorISt4pairId11BoundingBoxESaIS4_EE+0x34bd>
    f7b7:	48 89 c3             	mov    %rax,%rbx
    f7ba:	e9 ce 00 00 00       	jmpq   f88d <_ZN6PRTreeIdLi6EEC1ERSt6vectorISt4pairId11BoundingBoxESaIS4_EE+0x332d>
    f7bf:	48 89 c3             	mov    %rax,%rbx
    f7c2:	e9 03 03 00 00       	jmpq   faca <_ZN6PRTreeIdLi6EEC1ERSt6vectorISt4pairId11BoundingBoxESaIS4_EE+0x356a>
    f7c7:	48 89 c3             	mov    %rax,%rbx
    f7ca:	e9 64 03 00 00       	jmpq   fb33 <_ZN6PRTreeIdLi6EEC1ERSt6vectorISt4pairId11BoundingBoxESaIS4_EE+0x35d3>
    f7cf:	48 89 c3             	mov    %rax,%rbx
    f7d2:	e9 11 02 00 00       	jmpq   f9e8 <_ZN6PRTreeIdLi6EEC1ERSt6vectorISt4pairId11BoundingBoxESaIS4_EE+0x3488>
    f7d7:	48 89 c3             	mov    %rax,%rbx
    f7da:	e9 a1 00 00 00       	jmpq   f880 <_ZN6PRTreeIdLi6EEC1ERSt6vectorISt4pairId11BoundingBoxESaIS4_EE+0x3320>
    f7df:	48 89 c3             	mov    %rax,%rbx
    f7e2:	e9 a4 02 00 00       	jmpq   fa8b <_ZN6PRTreeIdLi6EEC1ERSt6vectorISt4pairId11BoundingBoxESaIS4_EE+0x352b>
    f7e7:	48 89 c3             	mov    %rax,%rbx
    f7ea:	48 8d 84 24 98 00 00 	lea    0x98(%rsp),%rax
    f7f1:	00 
    f7f2:	48 89 44 24 48       	mov    %rax,0x48(%rsp)
    f7f7:	48 8d 84 24 10 01 00 	lea    0x110(%rsp),%rax
    f7fe:	00 
    f7ff:	48 89 44 24 28       	mov    %rax,0x28(%rsp)
    f804:	48 8d 84 24 f0 00 00 	lea    0xf0(%rsp),%rax
    f80b:	00 
    f80c:	48 89 44 24 40       	mov    %rax,0x40(%rsp)
    f811:	e9 cc 00 00 00       	jmpq   f8e2 <_ZN6PRTreeIdLi6EEC1ERSt6vectorISt4pairId11BoundingBoxESaIS4_EE+0x3382>
    f816:	48 89 c3             	mov    %rax,%rbx
    f819:	e9 4e 02 00 00       	jmpq   fa6c <_ZN6PRTreeIdLi6EEC1ERSt6vectorISt4pairId11BoundingBoxESaIS4_EE+0x350c>
    f81e:	bf 10 00 00 00       	mov    $0x10,%edi
    f823:	e8 58 28 ff ff       	callq  2080 <__cxa_allocate_exception@plt>
    f828:	48 8d 35 4b 08 00 00 	lea    0x84b(%rip),%rsi        # 1007a <_IO_stdin_used+0x7a>
    f82f:	48 89 c7             	mov    %rax,%rdi
    f832:	49 89 c4             	mov    %rax,%r12
    f835:	e8 26 28 ff ff       	callq  2060 <_ZNSt13runtime_errorC1EPKc@plt>
    f83a:	48 8b 15 8f 37 00 00 	mov    0x378f(%rip),%rdx        # 12fd0 <_ZNSt13runtime_errorD1Ev@GLIBCXX_3.4>
    f841:	48 8d 35 f8 33 00 00 	lea    0x33f8(%rip),%rsi        # 12c40 <_ZTISt13runtime_error@@GLIBCXX_3.4>
    f848:	4c 89 e7             	mov    %r12,%rdi
    f84b:	e8 90 29 ff ff       	callq  21e0 <__cxa_throw@plt>
    f850:	48 89 c3             	mov    %rax,%rbx
    f853:	e9 83 01 00 00       	jmpq   f9db <_ZN6PRTreeIdLi6EEC1ERSt6vectorISt4pairId11BoundingBoxESaIS4_EE+0x347b>
    f858:	48 89 c3             	mov    %rax,%rbx
    f85b:	e9 ee 00 00 00       	jmpq   f94e <_ZN6PRTreeIdLi6EEC1ERSt6vectorISt4pairId11BoundingBoxESaIS4_EE+0x33ee>
    f860:	48 8b bc 24 b8 01 00 	mov    0x1b8(%rsp),%rdi
    f867:	00 
    f868:	48 8b b4 24 c8 01 00 	mov    0x1c8(%rsp),%rsi
    f86f:	00 
    f870:	48 29 fe             	sub    %rdi,%rsi
    f873:	48 85 ff             	test   %rdi,%rdi
    f876:	74 08                	je     f880 <_ZN6PRTreeIdLi6EEC1ERSt6vectorISt4pairId11BoundingBoxESaIS4_EE+0x3320>
    f878:	c5 f8 77             	vzeroupper 
    f87b:	e8 90 28 ff ff       	callq  2110 <_ZdlPvm@plt>
    f880:	48 8b 7c 24 50       	mov    0x50(%rsp),%rdi
    f885:	c5 f8 77             	vzeroupper 
    f888:	e8 23 49 ff ff       	callq  41b0 <_ZNSt6vectorI4LeafIiLi6EESaIS1_EED1Ev>
    f88d:	48 8b bc 24 50 01 00 	mov    0x150(%rsp),%rdi
    f894:	00 
    f895:	48 8b b4 24 60 01 00 	mov    0x160(%rsp),%rsi
    f89c:	00 
    f89d:	48 29 fe             	sub    %rdi,%rsi
    f8a0:	48 85 ff             	test   %rdi,%rdi
    f8a3:	74 08                	je     f8ad <_ZN6PRTreeIdLi6EEC1ERSt6vectorISt4pairId11BoundingBoxESaIS4_EE+0x334d>
    f8a5:	c5 f8 77             	vzeroupper 
    f8a8:	e8 63 28 ff ff       	callq  2110 <_ZdlPvm@plt>
    f8ad:	48 8b bc 24 30 01 00 	mov    0x130(%rsp),%rdi
    f8b4:	00 
    f8b5:	48 8b b4 24 40 01 00 	mov    0x140(%rsp),%rsi
    f8bc:	00 
    f8bd:	48 29 fe             	sub    %rdi,%rsi
    f8c0:	48 85 ff             	test   %rdi,%rdi
    f8c3:	74 08                	je     f8cd <_ZN6PRTreeIdLi6EEC1ERSt6vectorISt4pairId11BoundingBoxESaIS4_EE+0x336d>
    f8c5:	c5 f8 77             	vzeroupper 
    f8c8:	e8 43 28 ff ff       	callq  2110 <_ZdlPvm@plt>
    f8cd:	48 8b bc 24 c8 00 00 	mov    0xc8(%rsp),%rdi
    f8d4:	00 
    f8d5:	48 85 ff             	test   %rdi,%rdi
    f8d8:	74 08                	je     f8e2 <_ZN6PRTreeIdLi6EEC1ERSt6vectorISt4pairId11BoundingBoxESaIS4_EE+0x3382>
    f8da:	c5 f8 77             	vzeroupper 
    f8dd:	e8 7e 5f ff ff       	callq  5860 <_ZNSt16_Sp_counted_baseILN9__gnu_cxx12_Lock_policyE2EE10_M_releaseEv>
    f8e2:	48 8d bc 24 a8 00 00 	lea    0xa8(%rsp),%rdi
    f8e9:	00 
    f8ea:	c5 f8 77             	vzeroupper 
    f8ed:	e8 0e 42 ff ff       	callq  3b00 <_ZNSt10unique_ptrI10PRTreeNodeIdLi6EESt14default_deleteIS1_EED1Ev>
    f8f2:	48 8d bc 24 a0 00 00 	lea    0xa0(%rsp),%rdi
    f8f9:	00 
    f8fa:	e8 01 42 ff ff       	callq  3b00 <_ZNSt10unique_ptrI10PRTreeNodeIdLi6EESt14default_deleteIS1_EED1Ev>
    f8ff:	48 8b 7c 24 48       	mov    0x48(%rsp),%rdi
    f904:	e8 f7 41 ff ff       	callq  3b00 <_ZNSt10unique_ptrI10PRTreeNodeIdLi6EESt14default_deleteIS1_EED1Ev>
    f909:	48 8b 7c 24 28       	mov    0x28(%rsp),%rdi
    f90e:	e8 1d 49 ff ff       	callq  4230 <_ZNSt6vectorISt10unique_ptrI10PRTreeNodeIdLi6EESt14default_deleteIS2_EESaIS5_EED1Ev>
    f913:	48 8b 7c 24 40       	mov    0x40(%rsp),%rdi
    f918:	e8 13 49 ff ff       	callq  4230 <_ZNSt6vectorISt10unique_ptrI10PRTreeNodeIdLi6EESt14default_deleteIS2_EESaIS5_EED1Ev>
    f91d:	48 8d bc 24 d0 00 00 	lea    0xd0(%rsp),%rdi
    f924:	00 
    f925:	e8 86 48 ff ff       	callq  41b0 <_ZNSt6vectorI4LeafIiLi6EESaIS1_EED1Ev>
    f92a:	48 8b bc 24 b8 00 00 	mov    0xb8(%rsp),%rdi
    f931:	00 
    f932:	48 85 ff             	test   %rdi,%rdi
    f935:	74 05                	je     f93c <_ZN6PRTreeIdLi6EEC1ERSt6vectorISt4pairId11BoundingBoxESaIS4_EE+0x33dc>
    f937:	e8 24 5f ff ff       	callq  5860 <_ZNSt16_Sp_counted_baseILN9__gnu_cxx12_Lock_policyE2EE10_M_releaseEv>
    f93c:	48 8b 7c 24 18       	mov    0x18(%rsp),%rdi
    f941:	e8 ba 41 ff ff       	callq  3b00 <_ZNSt10unique_ptrI10PRTreeNodeIdLi6EESt14default_deleteIS1_EED1Ev>
    f946:	48 89 df             	mov    %rbx,%rdi
    f949:	e8 a2 28 ff ff       	callq  21f0 <_Unwind_Resume@plt>
    f94e:	49 8b bc 24 28 01 00 	mov    0x128(%r12),%rdi
    f955:	00 
    f956:	48 85 ff             	test   %rdi,%rdi
    f959:	0f 84 f6 01 00 00    	je     fb55 <_ZN6PRTreeIdLi6EEC1ERSt6vectorISt4pairId11BoundingBoxESaIS4_EE+0x35f5>
    f95f:	c5 f8 77             	vzeroupper 
    f962:	e8 f9 5e ff ff       	callq  5860 <_ZNSt16_Sp_counted_baseILN9__gnu_cxx12_Lock_policyE2EE10_M_releaseEv>
    f967:	49 8b bc 24 18 01 00 	mov    0x118(%r12),%rdi
    f96e:	00 
    f96f:	48 85 ff             	test   %rdi,%rdi
    f972:	0f 85 ef 01 00 00    	jne    fb67 <_ZN6PRTreeIdLi6EEC1ERSt6vectorISt4pairId11BoundingBoxESaIS4_EE+0x3607>
    f978:	48 8b bc 24 88 00 00 	mov    0x88(%rsp),%rdi
    f97f:	00 
    f980:	e8 db b0 ff ff       	callq  aa60 <_ZNSt5arrayI4LeafIiLi6EELm4EED1Ev>
    f985:	be 30 01 00 00       	mov    $0x130,%esi
    f98a:	4c 89 e7             	mov    %r12,%rdi
    f98d:	e8 7e 27 ff ff       	callq  2110 <_ZdlPvm@plt>
    f992:	48 8b bc 24 78 01 00 	mov    0x178(%rsp),%rdi
    f999:	00 
    f99a:	48 85 ff             	test   %rdi,%rdi
    f99d:	74 08                	je     f9a7 <_ZN6PRTreeIdLi6EEC1ERSt6vectorISt4pairId11BoundingBoxESaIS4_EE+0x3447>
    f99f:	c5 f8 77             	vzeroupper 
    f9a2:	e8 b9 5e ff ff       	callq  5860 <_ZNSt16_Sp_counted_baseILN9__gnu_cxx12_Lock_policyE2EE10_M_releaseEv>
    f9a7:	4d 85 f6             	test   %r14,%r14
    f9aa:	0f 84 fd fe ff ff    	je     f8ad <_ZN6PRTreeIdLi6EEC1ERSt6vectorISt4pairId11BoundingBoxESaIS4_EE+0x334d>
    f9b0:	4c 89 fe             	mov    %r15,%rsi
    f9b3:	4c 89 f7             	mov    %r14,%rdi
    f9b6:	e9 ea fe ff ff       	jmpq   f8a5 <_ZN6PRTreeIdLi6EEC1ERSt6vectorISt4pairId11BoundingBoxESaIS4_EE+0x3345>
    f9bb:	48 8b bc 24 b8 01 00 	mov    0x1b8(%rsp),%rdi
    f9c2:	00 
    f9c3:	48 8b b4 24 c8 01 00 	mov    0x1c8(%rsp),%rsi
    f9ca:	00 
    f9cb:	48 29 fe             	sub    %rdi,%rsi
    f9ce:	48 85 ff             	test   %rdi,%rdi
    f9d1:	74 08                	je     f9db <_ZN6PRTreeIdLi6EEC1ERSt6vectorISt4pairId11BoundingBoxESaIS4_EE+0x347b>
    f9d3:	c5 f8 77             	vzeroupper 
    f9d6:	e8 35 27 ff ff       	callq  2110 <_ZdlPvm@plt>
    f9db:	48 8b 7c 24 50       	mov    0x50(%rsp),%rdi
    f9e0:	c5 f8 77             	vzeroupper 
    f9e3:	e8 18 56 ff ff       	callq  5000 <_ZNSt6vectorI4LeafIdLi6EESaIS1_EED1Ev>
    f9e8:	48 8b bc 24 30 01 00 	mov    0x130(%rsp),%rdi
    f9ef:	00 
    f9f0:	48 8b b4 24 40 01 00 	mov    0x140(%rsp),%rsi
    f9f7:	00 
    f9f8:	48 29 fe             	sub    %rdi,%rsi
    f9fb:	48 85 ff             	test   %rdi,%rdi
    f9fe:	74 79                	je     fa79 <_ZN6PRTreeIdLi6EEC1ERSt6vectorISt4pairId11BoundingBoxESaIS4_EE+0x3519>
    fa00:	c5 f8 77             	vzeroupper 
    fa03:	e8 08 27 ff ff       	callq  2110 <_ZdlPvm@plt>
    fa08:	eb 6f                	jmp    fa79 <_ZN6PRTreeIdLi6EEC1ERSt6vectorISt4pairId11BoundingBoxESaIS4_EE+0x3519>
    fa0a:	48 89 c3             	mov    %rax,%rbx
    fa0d:	4c 89 e7             	mov    %r12,%rdi
    fa10:	c5 f8 77             	vzeroupper 
    fa13:	e8 98 26 ff ff       	callq  20b0 <__cxa_free_exception@plt>
    fa18:	e9 90 fe ff ff       	jmpq   f8ad <_ZN6PRTreeIdLi6EEC1ERSt6vectorISt4pairId11BoundingBoxESaIS4_EE+0x334d>
    fa1d:	49 8d 7d 30          	lea    0x30(%r13),%rdi
    fa21:	c5 f8 77             	vzeroupper 
    fa24:	e8 d7 40 ff ff       	callq  3b00 <_ZNSt10unique_ptrI10PRTreeNodeIdLi6EESt14default_deleteIS1_EED1Ev>
    fa29:	49 8d 7d 28          	lea    0x28(%r13),%rdi
    fa2d:	e8 ce 40 ff ff       	callq  3b00 <_ZNSt10unique_ptrI10PRTreeNodeIdLi6EESt14default_deleteIS1_EED1Ev>
    fa32:	4d 8b 65 20          	mov    0x20(%r13),%r12
    fa36:	4d 85 e4             	test   %r12,%r12
    fa39:	74 24                	je     fa5f <_ZN6PRTreeIdLi6EEC1ERSt6vectorISt4pairId11BoundingBoxESaIS4_EE+0x34ff>
    fa3b:	49 8b 7c 24 28       	mov    0x28(%r12),%rdi
    fa40:	49 8b 74 24 38       	mov    0x38(%r12),%rsi
    fa45:	48 29 fe             	sub    %rdi,%rsi
    fa48:	48 85 ff             	test   %rdi,%rdi
    fa4b:	74 05                	je     fa52 <_ZN6PRTreeIdLi6EEC1ERSt6vectorISt4pairId11BoundingBoxESaIS4_EE+0x34f2>
    fa4d:	e8 be 26 ff ff       	callq  2110 <_ZdlPvm@plt>
    fa52:	be 40 00 00 00       	mov    $0x40,%esi
    fa57:	4c 89 e7             	mov    %r12,%rdi
    fa5a:	e8 b1 26 ff ff       	callq  2110 <_ZdlPvm@plt>
    fa5f:	be 38 00 00 00       	mov    $0x38,%esi
    fa64:	4c 89 ef             	mov    %r13,%rdi
    fa67:	e8 a4 26 ff ff       	callq  2110 <_ZdlPvm@plt>
    fa6c:	48 8b 7c 24 50       	mov    0x50(%rsp),%rdi
    fa71:	c5 f8 77             	vzeroupper 
    fa74:	e8 87 55 ff ff       	callq  5000 <_ZNSt6vectorI4LeafIdLi6EESaIS1_EED1Ev>
    fa79:	48 8d 84 24 f0 00 00 	lea    0xf0(%rsp),%rax
    fa80:	00 
    fa81:	48 89 44 24 40       	mov    %rax,0x40(%rsp)
    fa86:	e9 42 fe ff ff       	jmpq   f8cd <_ZN6PRTreeIdLi6EEC1ERSt6vectorISt4pairId11BoundingBoxESaIS4_EE+0x336d>
    fa8b:	49 8b bc 24 28 01 00 	mov    0x128(%r12),%rdi
    fa92:	00 
    fa93:	48 85 ff             	test   %rdi,%rdi
    fa96:	0f 84 8f 00 00 00    	je     fb2b <_ZN6PRTreeIdLi6EEC1ERSt6vectorISt4pairId11BoundingBoxESaIS4_EE+0x35cb>
    fa9c:	c5 f8 77             	vzeroupper 
    fa9f:	e8 bc 5d ff ff       	callq  5860 <_ZNSt16_Sp_counted_baseILN9__gnu_cxx12_Lock_policyE2EE10_M_releaseEv>
    faa4:	49 8b bc 24 18 01 00 	mov    0x118(%r12),%rdi
    faab:	00 
    faac:	48 85 ff             	test   %rdi,%rdi
    faaf:	0f 85 a8 00 00 00    	jne    fb5d <_ZN6PRTreeIdLi6EEC1ERSt6vectorISt4pairId11BoundingBoxESaIS4_EE+0x35fd>
    fab5:	4c 89 f7             	mov    %r14,%rdi
    fab8:	e8 03 be ff ff       	callq  b8c0 <_ZNSt5arrayI4LeafIdLi6EELm4EED1Ev>
    fabd:	be 30 01 00 00       	mov    $0x130,%esi
    fac2:	4c 89 e7             	mov    %r12,%rdi
    fac5:	e8 46 26 ff ff       	callq  2110 <_ZdlPvm@plt>
    faca:	48 8b bc 24 c8 00 00 	mov    0xc8(%rsp),%rdi
    fad1:	00 
    fad2:	48 85 ff             	test   %rdi,%rdi
    fad5:	74 08                	je     fadf <_ZN6PRTreeIdLi6EEC1ERSt6vectorISt4pairId11BoundingBoxESaIS4_EE+0x357f>
    fad7:	c5 f8 77             	vzeroupper 
    fada:	e8 81 5d ff ff       	callq  5860 <_ZNSt16_Sp_counted_baseILN9__gnu_cxx12_Lock_policyE2EE10_M_releaseEv>
    fadf:	48 8b bc 24 70 01 00 	mov    0x170(%rsp),%rdi
    fae6:	00 
    fae7:	48 8b b4 24 80 01 00 	mov    0x180(%rsp),%rsi
    faee:	00 
    faef:	48 29 fe             	sub    %rdi,%rsi
    faf2:	48 85 ff             	test   %rdi,%rdi
    faf5:	74 08                	je     faff <_ZN6PRTreeIdLi6EEC1ERSt6vectorISt4pairId11BoundingBoxESaIS4_EE+0x359f>
    faf7:	c5 f8 77             	vzeroupper 
    fafa:	e8 11 26 ff ff       	callq  2110 <_ZdlPvm@plt>
    faff:	48 8d 84 24 98 00 00 	lea    0x98(%rsp),%rax
    fb06:	00 
    fb07:	48 89 44 24 48       	mov    %rax,0x48(%rsp)
    fb0c:	48 8d 84 24 10 01 00 	lea    0x110(%rsp),%rax
    fb13:	00 
    fb14:	48 89 44 24 28       	mov    %rax,0x28(%rsp)
    fb19:	48 8d 84 24 f0 00 00 	lea    0xf0(%rsp),%rax
    fb20:	00 
    fb21:	48 89 44 24 40       	mov    %rax,0x40(%rsp)
    fb26:	e9 b7 fd ff ff       	jmpq   f8e2 <_ZN6PRTreeIdLi6EEC1ERSt6vectorISt4pairId11BoundingBoxESaIS4_EE+0x3382>
    fb2b:	c5 f8 77             	vzeroupper 
    fb2e:	e9 71 ff ff ff       	jmpq   faa4 <_ZN6PRTreeIdLi6EEC1ERSt6vectorISt4pairId11BoundingBoxESaIS4_EE+0x3544>
    fb33:	48 8b bc 24 b8 00 00 	mov    0xb8(%rsp),%rdi
    fb3a:	00 
    fb3b:	48 85 ff             	test   %rdi,%rdi
    fb3e:	74 0d                	je     fb4d <_ZN6PRTreeIdLi6EEC1ERSt6vectorISt4pairId11BoundingBoxESaIS4_EE+0x35ed>
    fb40:	c5 f8 77             	vzeroupper 
    fb43:	e8 18 5d ff ff       	callq  5860 <_ZNSt16_Sp_counted_baseILN9__gnu_cxx12_Lock_policyE2EE10_M_releaseEv>
    fb48:	e9 ef fd ff ff       	jmpq   f93c <_ZN6PRTreeIdLi6EEC1ERSt6vectorISt4pairId11BoundingBoxESaIS4_EE+0x33dc>
    fb4d:	c5 f8 77             	vzeroupper 
    fb50:	e9 e7 fd ff ff       	jmpq   f93c <_ZN6PRTreeIdLi6EEC1ERSt6vectorISt4pairId11BoundingBoxESaIS4_EE+0x33dc>
    fb55:	c5 f8 77             	vzeroupper 
    fb58:	e9 0a fe ff ff       	jmpq   f967 <_ZN6PRTreeIdLi6EEC1ERSt6vectorISt4pairId11BoundingBoxESaIS4_EE+0x3407>
    fb5d:	e8 fe 5c ff ff       	callq  5860 <_ZNSt16_Sp_counted_baseILN9__gnu_cxx12_Lock_policyE2EE10_M_releaseEv>
    fb62:	e9 4e ff ff ff       	jmpq   fab5 <_ZN6PRTreeIdLi6EEC1ERSt6vectorISt4pairId11BoundingBoxESaIS4_EE+0x3555>
    fb67:	e8 f4 5c ff ff       	callq  5860 <_ZNSt16_Sp_counted_baseILN9__gnu_cxx12_Lock_policyE2EE10_M_releaseEv>
    fb6c:	e9 07 fe ff ff       	jmpq   f978 <_ZN6PRTreeIdLi6EEC1ERSt6vectorISt4pairId11BoundingBoxESaIS4_EE+0x3418>
    fb71:	66 2e 0f 1f 84 00 00 	nopw   %cs:0x0(%rax,%rax,1)
    fb78:	00 00 00 
    fb7b:	0f 1f 44 00 00       	nopl   0x0(%rax,%rax,1)

000000000000fb80 <__libc_csu_init>:
    fb80:	f3 0f 1e fa          	endbr64 
    fb84:	41 57                	push   %r15
    fb86:	4c 8d 3d 13 30 00 00 	lea    0x3013(%rip),%r15        # 12ba0 <__frame_dummy_init_array_entry>
    fb8d:	41 56                	push   %r14
    fb8f:	49 89 d6             	mov    %rdx,%r14
    fb92:	41 55                	push   %r13
    fb94:	49 89 f5             	mov    %rsi,%r13
    fb97:	41 54                	push   %r12
    fb99:	41 89 fc             	mov    %edi,%r12d
    fb9c:	55                   	push   %rbp
    fb9d:	48 8d 2d 14 30 00 00 	lea    0x3014(%rip),%rbp        # 12bb8 <__do_global_dtors_aux_fini_array_entry>
    fba4:	53                   	push   %rbx
    fba5:	4c 29 fd             	sub    %r15,%rbp
    fba8:	48 83 ec 08          	sub    $0x8,%rsp
    fbac:	e8 4f 24 ff ff       	callq  2000 <_init>
    fbb1:	48 c1 fd 03          	sar    $0x3,%rbp
    fbb5:	74 1f                	je     fbd6 <__libc_csu_init+0x56>
    fbb7:	31 db                	xor    %ebx,%ebx
    fbb9:	0f 1f 80 00 00 00 00 	nopl   0x0(%rax)
    fbc0:	4c 89 f2             	mov    %r14,%rdx
    fbc3:	4c 89 ee             	mov    %r13,%rsi
    fbc6:	44 89 e7             	mov    %r12d,%edi
    fbc9:	41 ff 14 df          	callq  *(%r15,%rbx,8)
    fbcd:	48 83 c3 01          	add    $0x1,%rbx
    fbd1:	48 39 dd             	cmp    %rbx,%rbp
    fbd4:	75 ea                	jne    fbc0 <__libc_csu_init+0x40>
    fbd6:	48 83 c4 08          	add    $0x8,%rsp
    fbda:	5b                   	pop    %rbx
    fbdb:	5d                   	pop    %rbp
    fbdc:	41 5c                	pop    %r12
    fbde:	41 5d                	pop    %r13
    fbe0:	41 5e                	pop    %r14
    fbe2:	41 5f                	pop    %r15
    fbe4:	c3                   	retq   
    fbe5:	66 66 2e 0f 1f 84 00 	data16 nopw %cs:0x0(%rax,%rax,1)
    fbec:	00 00 00 00 

000000000000fbf0 <__libc_csu_fini>:
    fbf0:	f3 0f 1e fa          	endbr64 
    fbf4:	c3                   	retq   

Disassembly of section .fini:

000000000000fbf8 <_fini>:
    fbf8:	f3 0f 1e fa          	endbr64 
    fbfc:	48 83 ec 08          	sub    $0x8,%rsp
    fc00:	48 83 c4 08          	add    $0x8,%rsp
    fc04:	c3                   	retq   
